Archive member included to satisfy reference by file (symbol)

d:/mplab x ide/xcompilers/bin/bin/../../lib/gcc/pic32c/8.3.1/../../../../pic32c/lib/thumb/v6-m/nofp\libpic32c.a(data_init.o)
                              build/default/production/_ext/1171490990/startup_xc32.o (__pic32c_data_initialization)
d:/mplab x ide/xcompilers/bin/bin/../../lib/gcc/pic32c/8.3.1/../../../../pic32c/lib/thumb/v6-m/nofp\libc-size-musl.a(memcpy.o)
                              build/default/production/_ext/1500443788/ext_flash.o (memcpy)
d:/mplab x ide/xcompilers/bin/bin/../../lib/gcc/pic32c/8.3.1/../../../../pic32c/lib/thumb/v6-m/nofp\libc-size-musl.a(memset.o)
                              build/default/production/_ext/60165182/plib_can1.o (memset)
d:/mplab x ide/xcompilers/bin/bin/../../lib/gcc/pic32c/8.3.1/../../../../pic32c/lib/thumb/v6-m/nofp\libc-size-musl.a(strlen.o)
                              build/default/production/_ext/1832805299/sys_console.o (strlen)
d:/mplab x ide/xcompilers/bin/bin/../../lib/gcc/pic32c/8.3.1/../../../../pic32c/lib/thumb/v6-m/nofp\libm-fast-emfloat.a(__aeabi_fmul.o)
                              build/default/production/_ext/60165182/plib_can1.o (__aeabi_fmul)
d:/mplab x ide/xcompilers/bin/bin/../../lib/gcc/pic32c/8.3.1/../../../../pic32c/lib/thumb/v6-m/nofp\libm-fast-emfloat.a(__aeabi_fdiv.o)
                              build/default/production/_ext/60165182/plib_can1.o (__aeabi_fdiv)
d:/mplab x ide/xcompilers/bin/bin/../../lib/gcc/pic32c/8.3.1/../../../../pic32c/lib/thumb/v6-m/nofp\libm-fast-emfloat.a(__aeabi_fcmplt.o)
                              build/default/production/_ext/60165182/plib_can1.o (__aeabi_fcmplt)
d:/mplab x ide/xcompilers/bin/bin/../../lib/gcc/pic32c/8.3.1/../../../../pic32c/lib/thumb/v6-m/nofp\libm-fast-emfloat.a(__aeabi_f2iz.o)
                              build/default/production/_ext/2089947380/Step_Counter.o (__aeabi_f2iz)
d:/mplab x ide/xcompilers/bin/bin/../../lib/gcc/pic32c/8.3.1/../../../../pic32c/lib/thumb/v6-m/nofp\libm-fast-emfloat.a(__aeabi_f2uiz.o)
                              build/default/production/_ext/60165182/plib_can1.o (__aeabi_f2uiz)
d:/mplab x ide/xcompilers/bin/bin/../../lib/gcc/pic32c/8.3.1/../../../../pic32c/lib/thumb/v6-m/nofp\libm-fast-emfloat.a(__aeabi_i2f.o)
                              build/default/production/_ext/2089947380/Step_Counter.o (__aeabi_i2f)
d:/mplab x ide/xcompilers/bin/bin/../../lib/gcc/pic32c/8.3.1/../../../../pic32c/lib/thumb/v6-m/nofp\libm-fast-emfloat.a(__aeabi_ui2f.o)
                              build/default/production/_ext/60165182/plib_can1.o (__aeabi_ui2f)
d:/mplab x ide/xcompilers/bin/bin/../../lib/gcc/pic32c/8.3.1/../../../../pic32c/lib/thumb/v6-m/nofp\libc-musl.a(__libc_start_main.o)
                              build/default/production/_ext/1171490990/startup_xc32.o (__libc_init_array)
d:/mplab x ide/xcompilers/bin/bin/../../lib/gcc/pic32c/8.3.1/../../../../pic32c/lib/thumb/v6-m/nofp\libc-musl.a(libc.o)
                              d:/mplab x ide/xcompilers/bin/bin/../../lib/gcc/pic32c/8.3.1/../../../../pic32c/lib/thumb/v6-m/nofp\libc-musl.a(__libc_start_main.o) (__progname_full)
d:/mplab x ide/xcompilers/bin/bin/../../lib/gcc/pic32c/8.3.1/../../../../pic32c/lib/thumb/v6-m/nofp\libc-musl.a(vsnprintf.o)
                              build/default/production/_ext/1832805299/sys_console.o (vsnprintf)
d:/mplab x ide/xcompilers/bin/bin/../../lib/gcc/pic32c/8.3.1/../../../../pic32c/lib/thumb/v6-m/nofp\libc-musl.a(printf.o)
                              (printf)
d:/mplab x ide/xcompilers/bin/bin/../../lib/gcc/pic32c/8.3.1/../../../../pic32c/lib/thumb/v6-m/nofp\libc-musl.a(puts.o)
                              build/default/production/_ext/1500443788/ext_flash.o (puts)
d:/mplab x ide/xcompilers/bin/bin/../../lib/gcc/pic32c/8.3.1/../../../../pic32c/lib/thumb/v6-m/nofp\libc-musl.a(__environ.o)
                              d:/mplab x ide/xcompilers/bin/bin/../../lib/gcc/pic32c/8.3.1/../../../../pic32c/lib/thumb/v6-m/nofp\libc-musl.a(__libc_start_main.o) (__environ)
d:/mplab x ide/xcompilers/bin/bin/../../lib/gcc/pic32c/8.3.1/../../../../pic32c/lib/thumb/v6-m/nofp\libc-musl.a(__errno_location.o)
                              d:/mplab x ide/xcompilers/bin/bin/../../lib/gcc/pic32c/8.3.1/../../../../pic32c/lib/thumb/v6-m/nofp\libc-musl.a(vsnprintf.o) (__errno_val)
d:/mplab x ide/xcompilers/bin/bin/../../lib/gcc/pic32c/8.3.1/../../../../pic32c/lib/thumb/v6-m/nofp\libc-musl.a(fputs.o)
                              d:/mplab x ide/xcompilers/bin/bin/../../lib/gcc/pic32c/8.3.1/../../../../pic32c/lib/thumb/v6-m/nofp\libc-musl.a(puts.o) (fputs)
d:/mplab x ide/xcompilers/bin/bin/../../lib/gcc/pic32c/8.3.1/../../../../pic32c/lib/thumb/v6-m/nofp\libc-musl.a(fwrite.o)
                              d:/mplab x ide/xcompilers/bin/bin/../../lib/gcc/pic32c/8.3.1/../../../../pic32c/lib/thumb/v6-m/nofp\libc-musl.a(fputs.o) (fwrite)
d:/mplab x ide/xcompilers/bin/bin/../../lib/gcc/pic32c/8.3.1/../../../../pic32c/lib/thumb/v6-m/nofp\libc-musl.a(putc.o)
                              d:/mplab x ide/xcompilers/bin/bin/../../lib/gcc/pic32c/8.3.1/../../../../pic32c/lib/thumb/v6-m/nofp\libc-musl.a(puts.o) (putc_unlocked)
d:/mplab x ide/xcompilers/bin/bin/../../lib/gcc/pic32c/8.3.1/../../../../pic32c/lib/thumb/v6-m/nofp\libc-musl.a(stdout.o)
                              d:/mplab x ide/xcompilers/bin/bin/../../lib/gcc/pic32c/8.3.1/../../../../pic32c/lib/thumb/v6-m/nofp\libc-musl.a(printf.o) (_stdout)
d:/mplab x ide/xcompilers/bin/bin/../../lib/gcc/pic32c/8.3.1/../../../../pic32c/lib/thumb/v6-m/nofp\libc-musl.a(vfprintf.o)
                              d:/mplab x ide/xcompilers/bin/bin/../../lib/gcc/pic32c/8.3.1/../../../../pic32c/lib/thumb/v6-m/nofp\libc-musl.a(vsnprintf.o) (vfprintf)
d:/mplab x ide/xcompilers/bin/bin/../../lib/gcc/pic32c/8.3.1/../../../../pic32c/lib/thumb/v6-m/nofp\libc-musl.a(__io_fmt_needed.o)
                              d:/mplab x ide/xcompilers/bin/bin/../../lib/gcc/pic32c/8.3.1/../../../../pic32c/lib/thumb/v6-m/nofp\libc-musl.a(vfprintf.o) (__io_fmt_needed)
d:/mplab x ide/xcompilers/bin/bin/../../lib/gcc/pic32c/8.3.1/../../../../pic32c/lib/thumb/v6-m/nofp\libc-musl.a(__io_init_needed.o)
                              d:/mplab x ide/xcompilers/bin/bin/../../lib/gcc/pic32c/8.3.1/../../../../pic32c/lib/thumb/v6-m/nofp\libc-musl.a(stdout.o) (__io_init_needed)
d:/mplab x ide/xcompilers/bin/bin/../../lib/gcc/pic32c/8.3.1/../../../../pic32c/lib/thumb/v6-m/nofp\libc-musl.a(__out.o)
                              d:/mplab x ide/xcompilers/bin/bin/../../lib/gcc/pic32c/8.3.1/../../../../pic32c/lib/thumb/v6-m/nofp\libc-musl.a(putc.o) (__out_needed)
d:/mplab x ide/xcompilers/bin/bin/../../lib/gcc/pic32c/8.3.1/../../../../pic32c/lib/thumb/v6-m/nofp\libc-musl.a(__pop_float.o)
                              d:/mplab x ide/xcompilers/bin/bin/../../lib/gcc/pic32c/8.3.1/../../../../pic32c/lib/thumb/v6-m/nofp\libc-musl.a(__io_fmt_needed.o) (__pop_float_needed)
d:/mplab x ide/xcompilers/bin/bin/../../lib/gcc/pic32c/8.3.1/../../../../pic32c/lib/thumb/v6-m/nofp\libc-musl.a(__pop_int.o)
                              d:/mplab x ide/xcompilers/bin/bin/../../lib/gcc/pic32c/8.3.1/../../../../pic32c/lib/thumb/v6-m/nofp\libc-musl.a(__io_fmt_needed.o) (__pop_int_needed)
d:/mplab x ide/xcompilers/bin/bin/../../lib/gcc/pic32c/8.3.1/../../../../pic32c/lib/thumb/v6-m/nofp\libc-musl.a(__pop_ptr.o)
                              d:/mplab x ide/xcompilers/bin/bin/../../lib/gcc/pic32c/8.3.1/../../../../pic32c/lib/thumb/v6-m/nofp\libc-musl.a(__io_fmt_needed.o) (__pop_ptr_needed)
d:/mplab x ide/xcompilers/bin/bin/../../lib/gcc/pic32c/8.3.1/../../../../pic32c/lib/thumb/v6-m/nofp\libc-musl.a(__printf_core.o)
                              d:/mplab x ide/xcompilers/bin/bin/../../lib/gcc/pic32c/8.3.1/../../../../pic32c/lib/thumb/v6-m/nofp\libc-musl.a(vfprintf.o) (__printf_core)
d:/mplab x ide/xcompilers/bin/bin/../../lib/gcc/pic32c/8.3.1/../../../../pic32c/lib/thumb/v6-m/nofp\libc-musl.a(atoi.o)
                              d:/mplab x ide/xcompilers/bin/bin/../../lib/gcc/pic32c/8.3.1/../../../../pic32c/lib/thumb/v6-m/nofp\libc-musl.a(__printf_core.o) (atoi)
d:/mplab x ide/xcompilers/bin/bin/../../lib/gcc/pic32c/8.3.1/../../../../pic32c/lib/thumb/v6-m/nofp\libc-musl.a(tolower.o)
                              d:/mplab x ide/xcompilers/bin/bin/../../lib/gcc/pic32c/8.3.1/../../../../pic32c/lib/thumb/v6-m/nofp\libc-musl.a(__printf_core.o) (tolower)
d:/mplab x ide/xcompilers/bin/bin/../../lib/gcc/pic32c/8.3.1/../../../../pic32c/lib/thumb/v6-m/nofp\libc-musl.a(__fmt_a.o)
                              d:/mplab x ide/xcompilers/bin/bin/../../lib/gcc/pic32c/8.3.1/../../../../pic32c/lib/thumb/v6-m/nofp\libc-musl.a(__io_fmt_needed.o) (__fmt_a_needed)
d:/mplab x ide/xcompilers/bin/bin/../../lib/gcc/pic32c/8.3.1/../../../../pic32c/lib/thumb/v6-m/nofp\libc-musl.a(__fmt_d.o)
                              d:/mplab x ide/xcompilers/bin/bin/../../lib/gcc/pic32c/8.3.1/../../../../pic32c/lib/thumb/v6-m/nofp\libc-musl.a(__io_fmt_needed.o) (__fmt_d_needed)
d:/mplab x ide/xcompilers/bin/bin/../../lib/gcc/pic32c/8.3.1/../../../../pic32c/lib/thumb/v6-m/nofp\libc-musl.a(__fmt_fp.o)
                              d:/mplab x ide/xcompilers/bin/bin/../../lib/gcc/pic32c/8.3.1/../../../../pic32c/lib/thumb/v6-m/nofp\libc-musl.a(__io_fmt_needed.o) (__fmt_f_needed)
d:/mplab x ide/xcompilers/bin/bin/../../lib/gcc/pic32c/8.3.1/../../../../pic32c/lib/thumb/v6-m/nofp\libc-musl.a(__fmt_o.o)
                              d:/mplab x ide/xcompilers/bin/bin/../../lib/gcc/pic32c/8.3.1/../../../../pic32c/lib/thumb/v6-m/nofp\libc-musl.a(__io_fmt_needed.o) (__fmt_o_needed)
d:/mplab x ide/xcompilers/bin/bin/../../lib/gcc/pic32c/8.3.1/../../../../pic32c/lib/thumb/v6-m/nofp\libc-musl.a(__fmt_s.o)
                              d:/mplab x ide/xcompilers/bin/bin/../../lib/gcc/pic32c/8.3.1/../../../../pic32c/lib/thumb/v6-m/nofp\libc-musl.a(__io_fmt_needed.o) (__fmt_s_needed)
d:/mplab x ide/xcompilers/bin/bin/../../lib/gcc/pic32c/8.3.1/../../../../pic32c/lib/thumb/v6-m/nofp\libc-musl.a(__fmt_u.o)
                              d:/mplab x ide/xcompilers/bin/bin/../../lib/gcc/pic32c/8.3.1/../../../../pic32c/lib/thumb/v6-m/nofp\libc-musl.a(__io_fmt_needed.o) (__fmt_u_needed)
d:/mplab x ide/xcompilers/bin/bin/../../lib/gcc/pic32c/8.3.1/../../../../pic32c/lib/thumb/v6-m/nofp\libc-musl.a(__fmt_x.o)
                              d:/mplab x ide/xcompilers/bin/bin/../../lib/gcc/pic32c/8.3.1/../../../../pic32c/lib/thumb/v6-m/nofp\libc-musl.a(__io_fmt_needed.o) (__fmt_x_needed)
d:/mplab x ide/xcompilers/bin/bin/../../lib/gcc/pic32c/8.3.1/../../../../pic32c/lib/thumb/v6-m/nofp\libc-musl.a(__init_stdio.o)
                              d:/mplab x ide/xcompilers/bin/bin/../../lib/gcc/pic32c/8.3.1/../../../../pic32c/lib/thumb/v6-m/nofp\libc-musl.a(__io_init_needed.o) (__init_stdio_needed)
d:/mplab x ide/xcompilers/bin/bin/../../lib/gcc/pic32c/8.3.1/../../../../pic32c/lib/thumb/v6-m/nofp\libc-musl.a(__io_file_needed.o)
                              d:/mplab x ide/xcompilers/bin/bin/../../lib/gcc/pic32c/8.3.1/../../../../pic32c/lib/thumb/v6-m/nofp\libc-musl.a(__io_init_needed.o) (__io_file_needed)
d:/mplab x ide/xcompilers/bin/bin/../../lib/gcc/pic32c/8.3.1/../../../../pic32c/lib/thumb/v6-m/nofp\libc-musl.a(toupper.o)
                              d:/mplab x ide/xcompilers/bin/bin/../../lib/gcc/pic32c/8.3.1/../../../../pic32c/lib/thumb/v6-m/nofp\libc-musl.a(__fmt_a.o) (toupper)
d:/mplab x ide/xcompilers/bin/bin/../../lib/gcc/pic32c/8.3.1/../../../../pic32c/lib/thumb/v6-m/nofp\libc-musl.a(__cvt_u.o)
                              d:/mplab x ide/xcompilers/bin/bin/../../lib/gcc/pic32c/8.3.1/../../../../pic32c/lib/thumb/v6-m/nofp\libc-musl.a(__fmt_d.o) (__cvt_u)
d:/mplab x ide/xcompilers/bin/bin/../../lib/gcc/pic32c/8.3.1/../../../../pic32c/lib/thumb/v6-m/nofp\libm-fast-emfloat.a(fma.o)
                              d:/mplab x ide/xcompilers/bin/bin/../../lib/gcc/pic32c/8.3.1/../../../../pic32c/lib/thumb/v6-m/nofp\libc-musl.a(__fmt_fp.o) (fma)
d:/mplab x ide/xcompilers/bin/bin/../../lib/gcc/pic32c/8.3.1/../../../../pic32c/lib/thumb/v6-m/nofp\libm-fast-emfloat.a(floor.o)
                              d:/mplab x ide/xcompilers/bin/bin/../../lib/gcc/pic32c/8.3.1/../../../../pic32c/lib/thumb/v6-m/nofp\libc-musl.a(__fmt_a.o) (floor)
d:/mplab x ide/xcompilers/bin/bin/../../lib/gcc/pic32c/8.3.1/../../../../pic32c/lib/thumb/v6-m/nofp\libm-fast-emfloat.a(__aeabi_dadd.o)
                              d:/mplab x ide/xcompilers/bin/bin/../../lib/gcc/pic32c/8.3.1/../../../../pic32c/lib/thumb/v6-m/nofp\libc-musl.a(__fmt_a.o) (__aeabi_dadd)
d:/mplab x ide/xcompilers/bin/bin/../../lib/gcc/pic32c/8.3.1/../../../../pic32c/lib/thumb/v6-m/nofp\libm-fast-emfloat.a(__aeabi_dsub.o)
                              d:/mplab x ide/xcompilers/bin/bin/../../lib/gcc/pic32c/8.3.1/../../../../pic32c/lib/thumb/v6-m/nofp\libc-musl.a(__fmt_a.o) (__aeabi_dsub)
d:/mplab x ide/xcompilers/bin/bin/../../lib/gcc/pic32c/8.3.1/../../../../pic32c/lib/thumb/v6-m/nofp\libm-fast-emfloat.a(__aeabi_dmul_aux.o)
                              d:/mplab x ide/xcompilers/bin/bin/../../lib/gcc/pic32c/8.3.1/../../../../pic32c/lib/thumb/v6-m/nofp\libc-musl.a(__fmt_a.o) (__aeabi_dmul)
d:/mplab x ide/xcompilers/bin/bin/../../lib/gcc/pic32c/8.3.1/../../../../pic32c/lib/thumb/v6-m/nofp\libm-fast-emfloat.a(__aeabi_ddiv.o)
                              d:/mplab x ide/xcompilers/bin/bin/../../lib/gcc/pic32c/8.3.1/../../../../pic32c/lib/thumb/v6-m/nofp\libc-musl.a(__fmt_a.o) (__aeabi_ddiv)
d:/mplab x ide/xcompilers/bin/bin/../../lib/gcc/pic32c/8.3.1/../../../../pic32c/lib/thumb/v6-m/nofp\libm-fast-emfloat.a(__aeabi_dcmple.o)
                              d:/mplab x ide/xcompilers/bin/bin/../../lib/gcc/pic32c/8.3.1/../../../../pic32c/lib/thumb/v6-m/nofp\libc-musl.a(__fmt_fp.o) (__aeabi_dcmple)
d:/mplab x ide/xcompilers/bin/bin/../../lib/gcc/pic32c/8.3.1/../../../../pic32c/lib/thumb/v6-m/nofp\libm-fast-emfloat.a(__aeabi_dcmpeq.o)
                              d:/mplab x ide/xcompilers/bin/bin/../../lib/gcc/pic32c/8.3.1/../../../../pic32c/lib/thumb/v6-m/nofp\libc-musl.a(__fmt_a.o) (__aeabi_dcmpeq)
d:/mplab x ide/xcompilers/bin/bin/../../lib/gcc/pic32c/8.3.1/../../../../pic32c/lib/thumb/v6-m/nofp\libm-fast-emfloat.a(__aeabi_dcmpgt.o)
                              d:/mplab x ide/xcompilers/bin/bin/../../lib/gcc/pic32c/8.3.1/../../../../pic32c/lib/thumb/v6-m/nofp\libc-musl.a(__fmt_fp.o) (__aeabi_dcmpgt)
d:/mplab x ide/xcompilers/bin/bin/../../lib/gcc/pic32c/8.3.1/../../../../pic32c/lib/thumb/v6-m/nofp\libm-fast-emfloat.a(__aeabi_dcmplt.o)
                              d:/mplab x ide/xcompilers/bin/bin/../../lib/gcc/pic32c/8.3.1/../../../../pic32c/lib/thumb/v6-m/nofp\libc-musl.a(__fmt_a.o) (__aeabi_dcmplt)
d:/mplab x ide/xcompilers/bin/bin/../../lib/gcc/pic32c/8.3.1/../../../../pic32c/lib/thumb/v6-m/nofp\libm-fast-emfloat.a(__aeabi_d2iz.o)
                              d:/mplab x ide/xcompilers/bin/bin/../../lib/gcc/pic32c/8.3.1/../../../../pic32c/lib/thumb/v6-m/nofp\libc-musl.a(__fmt_a.o) (__aeabi_d2iz)
d:/mplab x ide/xcompilers/bin/bin/../../lib/gcc/pic32c/8.3.1/../../../../pic32c/lib/thumb/v6-m/nofp\libm-fast-emfloat.a(__aeabi_d2uiz.o)
                              d:/mplab x ide/xcompilers/bin/bin/../../lib/gcc/pic32c/8.3.1/../../../../pic32c/lib/thumb/v6-m/nofp\libm-fast-emfloat.a(__aeabi_d2iz.o) (.L__aeabi_d2uiz_fast_entry)
d:/mplab x ide/xcompilers/bin/bin/../../lib/gcc/pic32c/8.3.1/thumb/v6-m/nofp\libgcc.a(_udivsi3.o)
                              build/default/production/_ext/60165182/plib_can1.o (__aeabi_uidiv)
d:/mplab x ide/xcompilers/bin/bin/../../lib/gcc/pic32c/8.3.1/thumb/v6-m/nofp\libgcc.a(_divsi3.o)
                              build/default/production/_ext/1096015630/Functions.o (__aeabi_idiv)
d:/mplab x ide/xcompilers/bin/bin/../../lib/gcc/pic32c/8.3.1/thumb/v6-m/nofp\libgcc.a(_dvmd_tls.o)
                              d:/mplab x ide/xcompilers/bin/bin/../../lib/gcc/pic32c/8.3.1/thumb/v6-m/nofp\libgcc.a(_udivsi3.o) (__aeabi_idiv0)
d:/mplab x ide/xcompilers/bin/bin/../../lib/gcc/pic32c/8.3.1/thumb/v6-m/nofp\libgcc.a(_aeabi_ldivmod.o)
                              build/default/production/_ext/33404887/LinearRamp.o (__aeabi_ldivmod)
d:/mplab x ide/xcompilers/bin/bin/../../lib/gcc/pic32c/8.3.1/thumb/v6-m/nofp\libgcc.a(_aeabi_uldivmod.o)
                              build/default/production/_ext/504274921/plib_sercom7_usart.o (__aeabi_uldivmod)
d:/mplab x ide/xcompilers/bin/bin/../../lib/gcc/pic32c/8.3.1/thumb/v6-m/nofp\libgcc.a(_muldi3.o)
                              build/default/production/_ext/504274921/plib_sercom7_usart.o (__aeabi_lmul)
d:/mplab x ide/xcompilers/bin/bin/../../lib/gcc/pic32c/8.3.1/thumb/v6-m/nofp\libgcc.a(_udivmoddi4.o)
                              d:/mplab x ide/xcompilers/bin/bin/../../lib/gcc/pic32c/8.3.1/thumb/v6-m/nofp\libgcc.a(_aeabi_uldivmod.o) (__udivmoddi4)
d:/mplab x ide/xcompilers/bin/bin/../../lib/gcc/pic32c/8.3.1/thumb/v6-m/nofp\libgcc.a(bpabi.o)
                              d:/mplab x ide/xcompilers/bin/bin/../../lib/gcc/pic32c/8.3.1/thumb/v6-m/nofp\libgcc.a(_aeabi_ldivmod.o) (__gnu_ldivmod_helper)
d:/mplab x ide/xcompilers/bin/bin/../../lib/gcc/pic32c/8.3.1/thumb/v6-m/nofp\libgcc.a(_lshrdi3.o)
                              d:/mplab x ide/xcompilers/bin/bin/../../lib/gcc/pic32c/8.3.1/thumb/v6-m/nofp\libgcc.a(_udivmoddi4.o) (__aeabi_llsr)
d:/mplab x ide/xcompilers/bin/bin/../../lib/gcc/pic32c/8.3.1/thumb/v6-m/nofp\libgcc.a(_ashldi3.o)
                              d:/mplab x ide/xcompilers/bin/bin/../../lib/gcc/pic32c/8.3.1/thumb/v6-m/nofp\libgcc.a(_udivmoddi4.o) (__aeabi_llsl)
d:/mplab x ide/xcompilers/bin/bin/../../lib/gcc/pic32c/8.3.1/thumb/v6-m/nofp\libgcc.a(_clzdi2.o)
                              d:/mplab x ide/xcompilers/bin/bin/../../lib/gcc/pic32c/8.3.1/thumb/v6-m/nofp\libgcc.a(_udivmoddi4.o) (__clzdi2)
d:/mplab x ide/xcompilers/bin/bin/../../lib/gcc/pic32c/8.3.1/thumb/v6-m/nofp\libgcc.a(_divdi3.o)
                              d:/mplab x ide/xcompilers/bin/bin/../../lib/gcc/pic32c/8.3.1/thumb/v6-m/nofp\libgcc.a(bpabi.o) (__divdi3)
d:/mplab x ide/xcompilers/bin/bin/../../lib/gcc/pic32c/8.3.1/thumb/v6-m/nofp\libgcc.a(_clzsi2.o)
                              d:/mplab x ide/xcompilers/bin/bin/../../lib/gcc/pic32c/8.3.1/thumb/v6-m/nofp\libgcc.a(_clzdi2.o) (__clzsi2)
d:/mplab x ide/xcompilers/bin/bin/../../lib/gcc/pic32c/8.3.1/../../../../pic32c/lib/thumb/v6-m/nofp\libc-size-musl.a(strcpy.o)
                              d:/mplab x ide/xcompilers/bin/bin/../../lib/gcc/pic32c/8.3.1/../../../../pic32c/lib/thumb/v6-m/nofp\libc-musl.a(__fmt_a.o) (strcpy)
d:/mplab x ide/xcompilers/bin/bin/../../lib/gcc/pic32c/8.3.1/../../../../pic32c/lib/thumb/v6-m/nofp\libc-size-musl.a(stpcpy.o)
                              d:/mplab x ide/xcompilers/bin/bin/../../lib/gcc/pic32c/8.3.1/../../../../pic32c/lib/thumb/v6-m/nofp\libc-size-musl.a(strcpy.o) (__stpcpy)

Allocating common symbols
Common symbol       size              file

xTMC2209_MOTION_Tasks
                    0x4               build/default/production/_ext/1171490990/tasks.o
ad                  0x1               build/default/production/_ext/1500443788/ext_flash.o
t                   0x4               build/default/production/_ext/1500443788/ext_flash.o
xCAN_TASK_Tasks     0x4               build/default/production/_ext/1171490990/tasks.o
io_tmc2209          0x4               build/default/production/_ext/1500443788/ext_flash.o
decel_error_position
                    0x4               build/default/production/_ext/1500443788/ext_flash.o
p                   0x4               build/default/production/_ext/1500443788/ext_flash.o
v_temp              0x8               build/default/production/_ext/1500443788/ext_flash.o
xDEBUG_LOGGER_Tasks
                    0x4               build/default/production/_ext/1171490990/tasks.o
tmc2209_shadowRegister
                    0x200             build/default/production/_ext/2089947380/TMC2209.o
timestamp           0x8               build/default/production/_ext/1500443788/ext_flash.o
trig_no             0x4               build/default/production/_ext/1500443788/ext_flash.o
current_time        0x4               build/default/production/_ext/1500443788/ext_flash.o
can_rx_int          0x1               build/default/production/_ext/1500443788/ext_flash.o
s_curve_phase       0x1               build/default/production/_ext/1500443788/ext_flash.o
oi                  0x4               build/default/production/_ext/1500443788/ext_flash.o
autofocus_variables
                    0xa8              build/default/production/_ext/1500443788/ext_flash.o
c_time              0x4               build/default/production/_ext/1500443788/ext_flash.o
stop_error_position
                    0x4               build/default/production/_ext/1500443788/ext_flash.o
homing_v            0x8               build/default/production/_ext/1500443788/ext_flash.o
move_done           0x1               build/default/production/_ext/1500443788/ext_flash.o
adc_reading         0x2               build/default/production/_ext/1500443788/ext_flash.o
move_given_trapezoidal_ramp
                    0x1               build/default/production/_ext/1500443788/ext_flash.o
repeat_ramp         0x1               build/default/production/_ext/1500443788/ext_flash.o
lim_edge_detection  0x1               build/default/production/_ext/1500443788/ext_flash.o
open_loop           0xc               build/default/production/_ext/1500443788/ext_flash.o
mot                 0x1               build/default/production/_ext/1500443788/ext_flash.o
crc                 0x1               build/default/production/_ext/1500443788/ext_flash.o
motor_dir_rev       0x1               build/default/production/_ext/1500443788/ext_flash.o
io                  0x4               build/default/production/_ext/1500443788/ext_flash.o
axis_params         0x68              build/default/production/_ext/1500443788/ext_flash.o
t_Position          0x4               build/default/production/_ext/1500443788/ext_flash.o
axis_id             0x1               build/default/production/_ext/1500443788/ext_flash.o
typ                 0x1               build/default/production/_ext/1500443788/ext_flash.o
non_rep             0x1               build/default/production/_ext/1500443788/ext_flash.o
gtron_limits        0x2               build/default/production/_ext/1500443788/ext_flash.o
rParams             0x1e0             build/default/production/_ext/1500443788/ext_flash.o
gFlash_mem_ptr      0x4               build/default/production/_ext/1500443788/ext_flash.o
flash_tlv           0xc               build/default/production/_ext/1500443788/tlv_flash.o
extflash_io         0x4               build/default/production/_ext/1500443788/ext_flash.o
prev_time           0x4               build/default/production/_ext/1500443788/ext_flash.o
v                   0x8               build/default/production/_ext/1500443788/ext_flash.o
sysObj              0x8               build/default/production/_ext/1171490990/initialization.o
move_given_s_ramp   0x1               build/default/production/_ext/1500443788/ext_flash.o
health_taskData     0x1               build/default/production/_ext/1360937237/health_task.o
idx                 0x4               build/default/production/_ext/1500443788/ext_flash.o
rfs_ping_rxvd       0x1               build/default/production/_ext/1500443788/ext_flash.o
debug_loggerData    0x1               build/default/production/_ext/1360937237/debug_logger.o
error_id            0x1               build/default/production/_ext/1500443788/tlv_flash.o
current_position    0x4               build/default/production/_ext/1500443788/ext_flash.o
ramp_State          0x1               build/default/production/_ext/1500443788/ext_flash.o
can_tx_frame        0x8               build/default/production/_ext/1500443788/ext_flash.o
xCMD_PARSER_Tasks   0x4               build/default/production/_ext/1171490990/tasks.o
data                0x4               build/default/production/_ext/1500443788/ext_flash.o
gblErrLvl           0x4               build/default/production/_ext/944882569/sys_debug.o
xHEALTH_TASK_Tasks  0x4               build/default/production/_ext/1171490990/tasks.o
check_move_done     0x1               build/default/production/_ext/1500443788/ext_flash.o
tmc4671_motionData  0x1               build/default/production/_ext/1360937237/tmc4671_motion.o
timer_flag          0x1               build/default/production/_ext/1500443788/ext_flash.o
can_status          0x4               build/default/production/_ext/1500443788/ext_flash.o
cmd_parserData      0x1               build/default/production/_ext/1360937237/cmd_parser.o
a_temp              0x8               build/default/production/_ext/1500443788/ext_flash.o
tmc2209_motionData  0x1               build/default/production/_ext/1360937237/tmc2209_motion.o
param_id            0x1               build/default/production/_ext/1500443788/tlv_flash.o
traversal_tlv       0x8               build/default/production/_ext/1500443788/tlv_flash.o
message_Id          0x4               build/default/production/_ext/1500443788/ext_flash.o
x_axis_encoder_counters
                    0x1c              build/default/production/_ext/1500443788/ext_flash.o
stop_velocity       0x4               build/default/production/_ext/1500443788/ext_flash.o
can_rx_frame        0x8               build/default/production/_ext/1500443788/ext_flash.o
prev_trig_no        0x4               build/default/production/_ext/1500443788/ext_flash.o
limit_variables     0x38              build/default/production/_ext/1500443788/ext_flash.o
vel_struct          0x8               build/default/production/_ext/1500443788/ext_flash.o
velocity_state      0x1               build/default/production/_ext/1500443788/ext_flash.o
can_taskData        0x1               build/default/production/_ext/1360937237/can_task.o
checksum            0x1               build/default/production/_ext/1500443788/ext_flash.o
xTMC4671_MOTION_Tasks
                    0x4               build/default/production/_ext/1171490990/tasks.o
p_time              0x4               build/default/production/_ext/1500443788/ext_flash.o
decel_velocity      0x4               build/default/production/_ext/1500443788/ext_flash.o
prev_velocity_limit
                    0x4               build/default/production/_ext/1500443788/ext_flash.o
move_done_check_num
                    0x4               build/default/production/_ext/1500443788/ext_flash.o
cmd                 0x1               build/default/production/_ext/1500443788/ext_flash.o
velocity_limit      0x4               build/default/production/_ext/1500443788/ext_flash.o
value               0x4               build/default/production/_ext/1500443788/ext_flash.o
d:/mplab x ide/xcompilers/bin/bin/../../lib/gcc/pic32c/8.3.1/../../../../pic32c/lib/thumb/v6-m/nofp\libpic32c.a(pic32_data_init_clear.o)
                              (__dinit_clear_needed)
d:/mplab x ide/xcompilers/bin/bin/../../lib/gcc/pic32c/8.3.1/../../../../pic32c/lib/thumb/v6-m/nofp\libpic32c.a(pic32_data_init_copy.o)
                              (__dinit_copy_needed)

Microchip PIC32 Memory-Usage Report

ROM Program-Memory Usage
section                    address  length [bytes]      (dec)  Description
-------                 ----------  -------------------------  -----------
.vectors                         0           0xbc         188   
.text                         0xbc           0x20          32  App's exec code 
.dinit                        0xdc          0x210         528   
.text.xTaskCreate            0x2ec          0x1d8         472   
.text.CLOCK_Initialize       0x4c4          0x1c4         452   
.text.xTaskIncrementTic      0x688          0x188         392   
.text.prvTimerTask           0x810          0x188         392   
.text.xTaskResumeAll         0x998          0x158         344   
.text.xQueueSemaphoreTa      0xaf0          0x136         310   
.text.EVSYS_Initialize       0xc26            0x2           2   
.text.PORT_Initialize        0xc28          0x12c         300   
.text.SERCOM7_USART_Wri      0xd54          0x104         260   
.text.xQueueGenericSend      0xe58          0x100         256   
.text.xQueueReceive          0xf58           0xf8         248   
.text.SERCOM7_USART_ISR     0x1050           0xec         236   
.text.SERCOM5_USART_ISR     0x113c           0xec         236   
.text.SERCOM7_USART_ISR     0x1228           0xe0         224   
.text.SERCOM5_USART_ISR     0x1308           0xe0         224   
.text.xTaskRemoveFromEv     0x13e8           0xdc         220   
.text.vTaskSwitchContex     0x14c4           0xd8         216   
.text.SYS_Tasks             0x159c           0xc8         200   
.text.xQueueGenericRese     0x1664           0xb2         178   
.text.Console_UART_Task     0x1716            0x2           2   
.text.xTaskPriorityInhe     0x1718           0xac         172   
.text.EIC_Initialize        0x17c4           0xa4         164   
.text.pxPortInitialiseS     0x1868           0xa0         160   
.text.prvAddCurrentTask     0x1908           0xa0         160   
.text.SERCOM7_USART_Rea     0x19a8           0x94         148   
.text.pvPortMalloc          0x1a3c           0x90         144   
.text.SERCOM7_USART_Ini     0x1acc           0x88         136   
.text.SERCOM5_USART_Ini     0x1b54           0x88         136   
.text.vTaskPriorityDisi     0x1bdc           0x88         136   
.text.prvUnlockQueue        0x1c64           0x86         134   
.text.Dummy_Handler         0x1cea            0x2           2   
.text.SYS_Initialize        0x1cec           0x80         128   
.text.xQueueGenericCrea     0x1d6c           0x7e         126   
.text.NonMaskableInt_Ha     0x1dea            0x2           2   
.rodata.SYS_Tasks.str1.     0x1dec           0x7c         124   
.text.xTaskPriorityDisi     0x1e68           0x7c         124   
.text.NVIC_Initialize       0x1ee4           0x78         120   
.text.prvCopyDataToQueu     0x1f5c           0x76         118   
.text.HardFault_Handler     0x1fd2            0x2           2   
.text.vTaskStartSchedul     0x1fd4           0x74         116   
.text.SYS_CONSOLE_Initi     0x2048           0x70         112   
.text.EIC_InterruptHand     0x20b8           0x60          96   
.text.xTaskCheckForTime     0x2118           0x5c          92   
.text.prvSampleTimeNow      0x2174           0x5c          92   
.text.__libc_start_init     0x21d0           0x5c          92   
.text.CAN1_Initialize       0x222c           0x54          84   
.text.SERCOM7_USART_Int     0x2280           0x54          84   
.text.SERCOM5_USART_Int     0x22d4           0x54          84   
.text.ADC0_Initialize       0x2328           0x50          80   
.text.vQueueWaitForMess     0x2378           0x50          80   
.text.prvCheckTasksWait     0x23c8           0x50          80   
.text.prvCheckForValidL     0x2418           0x50          80   
.text.SERCOM7_USART_ISR     0x2468           0x4c          76   
.text.SERCOM5_USART_ISR     0x24b4           0x4c          76   
.text                       0x2500           0x48          72  App's exec code 
.text.Reset_Handler         0x2548           0x48          72   
.text.prvInsertTimerInA     0x2590           0x48          72   
.text.TC2_TimerInitiali     0x25d8           0x44          68   
.text.TC4_TimerInitiali     0x261c           0x44          68   
.text.xPortStartSchedul     0x2660           0x44          68   
.text.NVMCTRL_Initializ     0x26a4            0xc          12   
.text.xPortPendSVHandle     0x26b0           0x44          68   
.text.Console_UART_Read     0x26f4           0x40          64   
.text.Console_UART_Writ     0x2734           0x40          64   
.text.vTaskPlaceOnEvent     0x2774           0x40          64   
.text.prvProcessExpired     0x27b4           0x3c          60   
.text.xTimerCreateTimer     0x27f0           0x3c          60   
.text.Console_UART_Writ     0x282c           0x38          56   
.text.Console_UART_Writ     0x2864           0x38          56   
.text.Console_UART_Read     0x289c           0x38          56   
.text.Console_UART_Read     0x28d4           0x38          56   
.text.__pic32c_data_ini     0x290c           0x38          56   
.text.TC2_TimerInterrup     0x2944           0x34          52   
.text.TC4_TimerInterrup     0x2978           0x34          52   
.text.vListInsert           0x29ac           0x2e          46   
.text.Dummy_App_Func        0x29da            0x2           2   
.text.SERCOM3_SPI_Initi     0x29dc           0x2c          44   
.text.SERCOM0_SPI_Initi     0x2a08           0x2c          44   
.rodata.sysConsoleUARTD     0x2a34           0x2c          44   
.text.prvResetNextTaskU     0x2a60           0x2c          44   
.text.prvReloadTimer        0x2a8c           0x2a          42   
.text.OSAL_MUTEX_Unlock     0x2ab6           0x28          40   
.text.vPortFree             0x2ade            0x2           2   
.text.vPortSetupTimerIn     0x2ae0           0x28          40   
.rodata.prvTimerTask        0x2b08           0x28          40   
.text.OSAL_MUTEX_Create     0x2b30           0x24          36   
.text.Console_UART_Init     0x2b54           0x24          36   
.text.xPortSysTickHandl     0x2b78           0x24          36   
.text.Console_UART_Flus     0x2b9c            0x4           4   
.text.vRestoreContextOf     0x2ba0           0x24          36   
.text.uxListRemove          0x2bc4           0x24          36   
.text.prvCopyDataFromQu     0x2be8           0x24          36   
.text.xQueueCreateMutex     0x2c0c           0x24          36   
.text.OSAL_MUTEX_Lock       0x2c30           0x22          34   
.text.main                  0x2c52            0xe          14   
.text.vPortSVCHandler       0x2c60           0x20          32   
.text.__dinit_copy          0x2c80           0x1e          30   
.text.vApplicationDaemo     0x2c9e            0x2           2   
.text.SERCOM7_USART_Wri     0x2ca0           0x1c          28   
.text.SERCOM7_USART_Rea     0x2cbc           0x1c          28   
.text.SERCOM5_USART_Wri     0x2cd8           0x1c          28   
.text.SERCOM5_USART_Rea     0x2cf4           0x1c          28   
.text.SYS_DEBUG_Initial     0x2d10           0x1c          28   
.text.vTaskPlaceOnEvent     0x2d2c           0x1c          28   
.rodata.sysConsole0UART     0x2d48           0x18          24   
.text.vPortYield            0x2d60           0x18          24   
.text.vPortEnterCritica     0x2d78           0x18          24   
.text.vPortExitCritical     0x2d90           0x18          24   
.text.prvIdleTask           0x2da8           0x18          24   
.text.vTaskInternalSetT     0x2dc0           0x18          24   
.text.vListInitialise       0x2dd8           0x16          22   
.text.__dummy_init_tls      0x2dee            0x2           2   
.text.SERCOM7_USART_Rea     0x2df0           0x14          20   
.text.SERCOM7_USART_Wri     0x2e04           0x14          20   
.text.SERCOM5_USART_Wri     0x2e18           0x14          20   
.text.Console_UART_Stat     0x2e2c           0x14          20   
.text.Console_UART_Reso     0x2e40           0x14          20   
.text.vPortSVCHandler_C     0x2e54           0x14          20   
.text.prvIsQueueEmpty       0x2e68           0x14          20   
.text.pvTaskIncrementMu     0x2e7c           0x14          20   
.text.HEALTH_TASK_Tasks     0x2e90           0x14          20   
.text.TMC4671_MOTION_Ta     0x2ea4           0x14          20   
.text.TMC2209_MOTION_Ta     0x2eb8           0x14          20   
.text.CAN_TASK_Tasks        0x2ecc           0x14          20   
.text.CMD_PARSER_Tasks      0x2ee0           0x14          20   
.text.DEBUG_LOGGER_Task     0x2ef4           0x14          20   
.rodata                     0x2f08           0x14          20  Read-only const 
.text.memcpy                0x2f1c           0x14          20   
.text.memset                0x2f30           0x14          20   
.text.__init_stdout         0x2f44           0x14          20   
.text.prvTaskExitError      0x2f58           0x12          18   
.text.__dinit_clear         0x2f6a           0x12          18   
.rodata.sysConsole0UART     0x2f7c            0x4           4   
.text.vStartFirstTask       0x2f80           0x10          16   
.text.vTaskSuspendAll       0x2f90           0x10          16   
.text.__init_stdio          0x2fa0           0x10          16   
.rodata.debugInit           0x2fb0            0xc          12   
.rodata.sysConsole0Init     0x2fbc            0xc          12   
.text.xTaskGetTickCount     0x2fc8            0xc          12   
.text.vTaskMissedYield      0x2fd4            0xc          12   
.text.HEALTH_TASK_Initi     0x2fe0            0xc          12   
.text.TMC4671_MOTION_In     0x2fec            0xc          12   
.text.TMC2209_MOTION_In     0x2ff8            0xc          12   
.text.CAN_TASK_Initiali     0x3004            0xc          12   
.text.CMD_PARSER_Initia     0x3010            0xc          12   
.text.DEBUG_LOGGER_Init     0x301c            0xc          12   
.text.SERCOM7_USART_Wri     0x3028            0x8           8   
.text.TC2_7_Handler         0x3030            0x8           8   
.text.SERCOM1_7_Handler     0x3038            0x8           8   
.text.lDEBUG_LOGGER_Tas     0x3040            0x8           8   
.text.lCMD_PARSER_Tasks     0x3048            0x8           8   
.text.lCAN_TASK_Tasks       0x3050            0x8           8   
.text.lTMC2209_MOTION_T     0x3058            0x8           8   
.text.lTMC4671_MOTION_T     0x3060            0x8           8   
.text.lHEALTH_TASK_Task     0x3068            0x8           8   
.text.ulSetInterruptMas     0x3070            0x8           8   
.rodata.xTimerCreateTim     0x3078            0x8           8   
.text.__dummy               0x3080            0x8           8   
.text.vClearInterruptMa     0x3088            0x6           6   
.text.vListInitialiseIt     0x308e            0x6           6   
.text.vApplicationStack     0x3094            0x4           4   
.text.vApplicationMallo     0x3098            0x4           4   
.text.__dummy_decompres     0x309c            0x4           4   
.text.__dummy               0x30a0            0x2           2   
.text.__dummy               0x30a2            0x2           2   
      Total ROM used  :      0x30a4       12452  4.8% of 0x40000
        --------------------------------------------------------------------------
         Total Program Memory used  :      0x30a4       12452  4.8% of 0x40000
        --------------------------------------------------------------------------


RAM Data-Memory Usage
section                    address  length [bytes]      (dec)  Description
-------                 ----------  -------------------------  -----------
.bss                    0x20000000           0x3c          60  Uninitialized data 
.bss.ucHeap             0x2000003c         0x4000       16384   
.bss.SERCOM5_USART_Read 0x2000403c          0x100         256   
.bss.SERCOM5_USART_Writ 0x2000413c          0x100         256   
.bss.eicCallbackObject  0x2000423c           0xc0         192   
.bss.SERCOM7_USART_Read 0x200042fc           0x80         128   
.bss.SERCOM7_USART_Writ 0x2000437c           0x80         128   
.bss.pxReadyTasksLists  0x200043fc           0x64         100   
.bss                    0x20004460           0x50          80  Uninitialized data 
.bss.sercom7USARTObj    0x200044b0           0x40          64   
.bss.sercom5USARTObj    0x200044f0           0x40          64   
.bss                    0x20004530           0x1c          28  Uninitialized data 
.bss.can1Obj            0x2000454c           0x1c          28   
.bss.xDelayedTaskList1  0x20004568           0x14          20   
.bss.xDelayedTaskList2  0x2000457c           0x14          20   
.bss.xPendingReadyList  0x20004590           0x14          20   
.bss.xSuspendedTaskList 0x200045a4           0x14          20   
.bss.xTasksWaitingTermi 0x200045b8           0x14          20   
.bss.xActiveTimerList1  0x200045cc           0x14          20   
.bss.xActiveTimerList2  0x200045e0           0x14          20   
.bss.consoleDeviceInsta 0x200045f4            0xc          12   
.bss.gConsoleUartData   0x20004600            0xc          12   
.bss.TC2_CallbackObject 0x2000460c            0x8           8   
.bss.TC4_CallbackObject 0x20004614            0x8           8   
.bss                    0x2000461c            0x8           8  Uninitialized data 
.bss.consolePrintBuffer 0x20004624            0x4           4   
.bss.sysDebugInstance   0x20004628            0x4           4   
.bss.pucAlignedHeap.481 0x2000462c            0x4           4   
.bss.xNextFreeByte      0x20004630            0x4           4   
.bss.pxCurrentTCB       0x20004634            0x4           4   
.bss.pxDelayedTaskList  0x20004638            0x4           4   
.bss.pxOverflowDelayedT 0x2000463c            0x4           4   
.bss.uxCurrentNumberOfT 0x20004640            0x4           4   
.bss.uxDeletedTasksWait 0x20004644            0x4           4   
.bss.uxSchedulerSuspend 0x20004648            0x4           4   
.bss.uxTaskNumber       0x2000464c            0x4           4   
.bss.uxTopReadyPriority 0x20004650            0x4           4   
.bss.xIdleTaskHandles   0x20004654            0x4           4   
.bss.xNextTaskUnblockTi 0x20004658            0x4           4   
.bss.xNumOfOverflows    0x2000465c            0x4           4   
.bss.xPendedTicks       0x20004660            0x4           4   
.bss.xSchedulerRunning  0x20004664            0x4           4   
.bss.xTickCount         0x20004668            0x4           4   
.bss.xYieldPendings     0x2000466c            0x4           4   
.bss.pxCurrentTimerList 0x20004670            0x4           4   
.bss.pxOverflowTimerLis 0x20004674            0x4           4   
.bss.xLastTime.5109     0x20004678            0x4           4   
.bss.xTimerQueue        0x2000467c            0x4           4   
.bss.xTimerTaskHandle   0x20004680            0x4           4   
.bss                    0x20004684            0x4           4  Uninitialized data 
.bss                    0x20004688            0x4           4  Uninitialized data 
.bss.isConsoleMutexCrea 0x2000468c            0x1           1   
.data                   0x20004690           0x20          32  Initialized data 
.data.ulCriticalNesting 0x200046b0            0x4           4   
.data.uxTopUsedPriority 0x200046b4            0x4           4   
         Total RAM used  :      0x46b5       18101  55.2% of 0x8000
        --------------------------------------------------------------------------
            Total Data Memory used  :      0x46b5       18101  55.2% of 0x8000
        --------------------------------------------------------------------------


Dynamic Data-Memory Reservation
section                    address  length [bytes]      (dec)  Description
-------                 ----------  -------------------------  -----------
heap                    0x200046c0          0x200         512  Reserved for heap 
stack                   0x200048d8         0x3720       14112  Reserved for stack 

        --------------------------------------------------------------------------

Microchip PIC32 Memory-Usage Report By Module

        text        data         bss         dec         hex    basename                     filename
--------------------------------------------------------------------------------
         146           0       16392       16538        409a    heap_1.o                 build/default/production/_ext/1665200909/heap_1.o
        2768           4         260        3032         bd8    FreeRTOS_tasks.o         build/default/production/_ext/404212886/FreeRTOS_tasks.o
        1268           0         320        1588         634    plib_sercom7_usart.o     build/default/production/_ext/504274921/plib_sercom7_usart.o
        1542           0           0        1542         606    queue.o                  build/default/production/_ext/404212886/queue.o
         832           0         576        1408         580    plib_sercom5_usart.o     build/default/production/_ext/504274921/plib_sercom5_usart.o
         846           0          60         906         38a    timers.o                 build/default/production/_ext/404212886/timers.o
         528           0           0         528         210    data_init                data_init
         478           0          12         490         1ea    sys_console_uart.o       build/default/production/_ext/1832805299/sys_console_uart.o
         260           0         192         452         1c4    plib_eic.o               build/default/production/_ext/60167341/plib_eic.o
         452           0           0         452         1c4    plib_clock.o             build/default/production/_ext/1984496892/plib_clock.o
         414           4           0         418         1a2    port.o                   build/default/production/_ext/1624415188/port.o
         372           0          24         396         18c    tasks.o                  build/default/production/_ext/1171490990/tasks.o
         300           0           0         300         12c    plib_port.o              build/default/production/_ext/1865521619/plib_port.o
         206           0           0         206          ce    interrupts.o             build/default/production/_ext/1171490990/interrupts.o
         188           0           8         196          c4    initialization.o         build/default/production/_ext/1171490990/initialization.o
         166           0           0         166          a6    portasm.o                build/default/production/_ext/1624415188/portasm.o
         112           0          17         129          81    sys_console.o            build/default/production/_ext/1832805299/sys_console.o
         120           0           8         128          80    plib_tc4.o               build/default/production/_ext/829342655/plib_tc4.o
         120           0           8         128          80    plib_tc2.o               build/default/production/_ext/829342655/plib_tc2.o
         120           0           0         120          78    plib_nvic.o              build/default/production/_ext/1865468468/plib_nvic.o
          84           0          28         112          70    plib_can1.o              build/default/production/_ext/60165182/plib_can1.o
         110           0           0         110          6e    list.o                   build/default/production/_ext/404212886/list.o
         110           0           0         110          6e    osal_freertos.o          build/default/production/_ext/1529399856/osal_freertos.o
          80           0          28         108          6c    crtbegin.o               d:/mplab x ide/xcompilers/bin/bin/../../lib/gcc/pic32c/8.3.1/thumb/v6-m/nofp/crtbegin.o
          94           0           0          94          5e    __libc_start_main.o      libc-musl.a
          82           0           4          86          56    data_init.o              libpic32c.a
           0           0          80          80          50    libc.o                   libc-musl.a
          80           0           0          80          50    plib_adc0.o              build/default/production/_ext/60163342/plib_adc0.o
          74           0           0          74          4a    startup_xc32.o           build/default/production/_ext/1171490990/startup_xc32.o
          28          32           8          68          44    stdout.o                 libc-musl.a
          44           0           0          44          2c    plib_sercom0_spi_master.obuild/default/production/_ext/17022449/plib_sercom0_spi_master.o
          44           0           0          44          2c    plib_sercom3_spi_master.obuild/default/production/_ext/17022449/plib_sercom3_spi_master.o
          28           0           8          36          24    sys_debug.o              build/default/production/_ext/944882569/sys_debug.o
          32           0           1          33          21    health_task.o            build/default/production/_ext/1360937237/health_task.o
          32           0           1          33          21    tmc4671_motion.o         build/default/production/_ext/1360937237/tmc4671_motion.o
          32           0           1          33          21    tmc2209_motion.o         build/default/production/_ext/1360937237/tmc2209_motion.o
          32           0           1          33          21    cmd_parser.o             build/default/production/_ext/1360937237/cmd_parser.o
          32           0           1          33          21    can_task.o               build/default/production/_ext/1360937237/can_task.o
          32           0           1          33          21    debug_logger.o           build/default/production/_ext/1360937237/debug_logger.o
          30           0           0          30          1e    pic32_data_init_copy.o   libpic32c.a
          20           0           0          20          14    memcpy.o                 libc-size-musl.a
          20           0           0          20          14    memset.o                 libc-size-musl.a
          18           0           0          18          12    __init_stdio.o           libc-musl.a
          18           0           0          18          12    pic32_data_init_clear.o  libpic32c.a
          16           0           0          16          10    crtn.o                   d:/mplab x ide/xcompilers/bin/bin/../../lib/gcc/pic32c/8.3.1/thumb/v6-m/nofp/crtn.o
          14           0           0          14           e    main.o                   build/default/production/_ext/1360937237/main.o
          12           0           0          12           c    plib_nvmctrl.o           build/default/production/_ext/1593096446/plib_nvmctrl.o
           8           0           0           8           8    freertos_hooks.o         build/default/production/_ext/1171490990/freertos_hooks.o
           8           0           0           8           8    crti.o                   d:/mplab x ide/xcompilers/bin/bin/../../lib/gcc/pic32c/8.3.1/thumb/v6-m/nofp/crti.o
           0           0           4           4           4    __environ.o              libc-musl.a
           4           0           0           4           4    exceptions.o             build/default/production/_ext/1171490990/exceptions.o
           2           0           0           2           2    freertos_daemon.o        build/default/production/_ext/1360937237/freertos_daemon.o
           2           0           0           2           2    plib_evsys.o             build/default/production/_ext/1986646378/plib_evsys.o
           0           0           0          18          12    padding                  padding
--------------------------------------------------------------------------------
       12460          40       18043       30561        7761    dist/default/production/NextGen_GTron_AxC.X.production.elf


Discarded input sections

 .text          0x0000000000000000        0x0 d:/mplab x ide/xcompilers/bin/bin/../../lib/gcc/pic32c/8.3.1/thumb/v6-m/nofp/crti.o
 .data          0x0000000000000000        0x0 d:/mplab x ide/xcompilers/bin/bin/../../lib/gcc/pic32c/8.3.1/thumb/v6-m/nofp/crti.o
 .bss           0x0000000000000000        0x0 d:/mplab x ide/xcompilers/bin/bin/../../lib/gcc/pic32c/8.3.1/thumb/v6-m/nofp/crti.o
 .xc_stack_usage.hdr
                0x0000000000000000        0xe d:/mplab x ide/xcompilers/bin/bin/../../lib/gcc/pic32c/8.3.1/thumb/v6-m/nofp/crti.o
 .xc_stack_usage
                0x0000000000000000       0x26 d:/mplab x ide/xcompilers/bin/bin/../../lib/gcc/pic32c/8.3.1/thumb/v6-m/nofp/crti.o
 .data          0x0000000000000000        0x4 d:/mplab x ide/xcompilers/bin/bin/../../lib/gcc/pic32c/8.3.1/thumb/v6-m/nofp/crtbegin.o
 .xc_stack_usage
                0x0000000000000000       0x3c d:/mplab x ide/xcompilers/bin/bin/../../lib/gcc/pic32c/8.3.1/thumb/v6-m/nofp/crtbegin.o
 .xc_stack_usage.hdr
                0x0000000000000000        0xe d:/mplab x ide/xcompilers/bin/bin/../../lib/gcc/pic32c/8.3.1/thumb/v6-m/nofp/crtbegin.o
 .text          0x0000000000000000        0x0 build/default/production/_ext/149991522/spi.o
 .data          0x0000000000000000        0x0 build/default/production/_ext/149991522/spi.o
 .bss           0x0000000000000000        0x0 build/default/production/_ext/149991522/spi.o
 .debug_line    0x0000000000000000        0x0 build/default/production/_ext/149991522/spi.o
 .debug_str     0x0000000000000000      0x1e2 build/default/production/_ext/149991522/spi.o
 .comment       0x0000000000000000       0x2c build/default/production/_ext/149991522/spi.o
 .ARM.attributes
                0x0000000000000000       0x32 build/default/production/_ext/149991522/spi.o
 .text          0x0000000000000000        0x0 build/default/production/_ext/1500443788/ext_flash.o
 .data          0x0000000000000000        0x0 build/default/production/_ext/1500443788/ext_flash.o
 .bss           0x0000000000000000        0x0 build/default/production/_ext/1500443788/ext_flash.o
 .text.SPI_0_transfer_block
                0x0000000000000000       0x10 build/default/production/_ext/1500443788/ext_flash.o
 .text.Ext_Flash_transfer_block
                0x0000000000000000       0x10 build/default/production/_ext/1500443788/ext_flash.o
 .text.EXTFLASH_init
                0x0000000000000000        0x2 build/default/production/_ext/1500443788/ext_flash.o
 .text.EXTFLASH_transfer
                0x0000000000000000       0x1a build/default/production/_ext/1500443788/ext_flash.o
 .text.EXTFLASH_writeEnable
                0x0000000000000000       0x24 build/default/production/_ext/1500443788/ext_flash.o
 .text.EXTFLASH_readInfo
                0x0000000000000000       0x38 build/default/production/_ext/1500443788/ext_flash.o
 .text.EXTFLASH_open
                0x0000000000000000       0x7c build/default/production/_ext/1500443788/ext_flash.o
 .text.EXTFLASH_read
                0x0000000000000000       0x44 build/default/production/_ext/1500443788/ext_flash.o
 .text.EXTFLASH_write
                0x0000000000000000       0x98 build/default/production/_ext/1500443788/ext_flash.o
 .text.EXTFLASH_erase
                0x0000000000000000       0x64 build/default/production/_ext/1500443788/ext_flash.o
 .bss.infoBuf   0x0000000000000000        0x2 build/default/production/_ext/1500443788/ext_flash.o
 .bss.pFlashInfo
                0x0000000000000000        0x4 build/default/production/_ext/1500443788/ext_flash.o
 .bss.rxBuff    0x0000000000000000      0x105 build/default/production/_ext/1500443788/ext_flash.o
 .rodata.EXTFLASH_open.str1.4
                0x0000000000000000       0x24 build/default/production/_ext/1500443788/ext_flash.o
 .rodata.flashInfo
                0x0000000000000000       0x30 build/default/production/_ext/1500443788/ext_flash.o
 .debug_info    0x0000000000000000     0x1f0e build/default/production/_ext/1500443788/ext_flash.o
 .debug_abbrev  0x0000000000000000      0x447 build/default/production/_ext/1500443788/ext_flash.o
 .debug_loc     0x0000000000000000      0x77c build/default/production/_ext/1500443788/ext_flash.o
 .debug_aranges
                0x0000000000000000       0x68 build/default/production/_ext/1500443788/ext_flash.o
 .debug_ranges  0x0000000000000000       0xa8 build/default/production/_ext/1500443788/ext_flash.o
 .debug_line    0x0000000000000000      0x53a build/default/production/_ext/1500443788/ext_flash.o
 .debug_str     0x0000000000000000     0x11d9 build/default/production/_ext/1500443788/ext_flash.o
 .comment       0x0000000000000000       0x2c build/default/production/_ext/1500443788/ext_flash.o
 .debug_frame   0x0000000000000000      0x128 build/default/production/_ext/1500443788/ext_flash.o
 .ARM.attributes
                0x0000000000000000       0x2c build/default/production/_ext/1500443788/ext_flash.o
 COMMON         0x0000000000000000      0x44c build/default/production/_ext/1500443788/ext_flash.o
 .text          0x0000000000000000        0x0 build/default/production/_ext/1500443788/McuSwReset.o
 .data          0x0000000000000000        0x0 build/default/production/_ext/1500443788/McuSwReset.o
 .bss           0x0000000000000000        0x0 build/default/production/_ext/1500443788/McuSwReset.o
 .text.sw_reset
                0x0000000000000000       0x10 build/default/production/_ext/1500443788/McuSwReset.o
 .text.fpga_on  0x0000000000000000        0x2 build/default/production/_ext/1500443788/McuSwReset.o
 .text.fpga_off
                0x0000000000000000       0x22 build/default/production/_ext/1500443788/McuSwReset.o
 .text.check_cdone
                0x0000000000000000        0x8 build/default/production/_ext/1500443788/McuSwReset.o
 .text.erase_can_flash
                0x0000000000000000       0xdc build/default/production/_ext/1500443788/McuSwReset.o
 .text.write_can_flash
                0x0000000000000000       0x54 build/default/production/_ext/1500443788/McuSwReset.o
 .text.erase_flash
                0x0000000000000000        0x2 build/default/production/_ext/1500443788/McuSwReset.o
 .text.read_flash
                0x0000000000000000        0x2 build/default/production/_ext/1500443788/McuSwReset.o
 .text.write_flash
                0x0000000000000000        0x2 build/default/production/_ext/1500443788/McuSwReset.o
 .bss.bin_size  0x0000000000000000        0x4 build/default/production/_ext/1500443788/McuSwReset.o
 .bss.can_id    0x0000000000000000        0x4 build/default/production/_ext/1500443788/McuSwReset.o
 .bss.end_addr  0x0000000000000000        0x4 build/default/production/_ext/1500443788/McuSwReset.o
 .bss.i         0x0000000000000000        0x4 build/default/production/_ext/1500443788/McuSwReset.o
 .bss.no_of_pages
                0x0000000000000000        0x4 build/default/production/_ext/1500443788/McuSwReset.o
 .bss.page_size
                0x0000000000000000        0x4 build/default/production/_ext/1500443788/McuSwReset.o
 .bss.write_addr
                0x0000000000000000        0x4 build/default/production/_ext/1500443788/McuSwReset.o
 .debug_info    0x0000000000000000     0x18c2 build/default/production/_ext/1500443788/McuSwReset.o
 .debug_abbrev  0x0000000000000000      0x2dc build/default/production/_ext/1500443788/McuSwReset.o
 .debug_loc     0x0000000000000000       0xaf build/default/production/_ext/1500443788/McuSwReset.o
 .debug_aranges
                0x0000000000000000       0x60 build/default/production/_ext/1500443788/McuSwReset.o
 .debug_ranges  0x0000000000000000       0x50 build/default/production/_ext/1500443788/McuSwReset.o
 .debug_line    0x0000000000000000      0x37b build/default/production/_ext/1500443788/McuSwReset.o
 .debug_str     0x0000000000000000     0x1025 build/default/production/_ext/1500443788/McuSwReset.o
 .comment       0x0000000000000000       0x2c build/default/production/_ext/1500443788/McuSwReset.o
 .debug_frame   0x0000000000000000       0xc8 build/default/production/_ext/1500443788/McuSwReset.o
 .ARM.attributes
                0x0000000000000000       0x2c build/default/production/_ext/1500443788/McuSwReset.o
 .text          0x0000000000000000        0x0 build/default/production/_ext/1500443788/tlv_flash.o
 .data          0x0000000000000000        0x0 build/default/production/_ext/1500443788/tlv_flash.o
 .bss           0x0000000000000000        0x0 build/default/production/_ext/1500443788/tlv_flash.o
 .text.write_tlv_flash
                0x0000000000000000      0x114 build/default/production/_ext/1500443788/tlv_flash.o
 .text.traverse_tlv_flash
                0x0000000000000000      0x118 build/default/production/_ext/1500443788/tlv_flash.o
 .text.chk_tlv  0x0000000000000000       0xbc build/default/production/_ext/1500443788/tlv_flash.o
 .text.check_tlv_param
                0x0000000000000000       0xd4 build/default/production/_ext/1500443788/tlv_flash.o
 .text.read_tlv_flash
                0x0000000000000000       0xa8 build/default/production/_ext/1500443788/tlv_flash.o
 .data.tlv_ptr  0x0000000000000000        0x4 build/default/production/_ext/1500443788/tlv_flash.o
 .data.tlv_traversal
                0x0000000000000000        0x4 build/default/production/_ext/1500443788/tlv_flash.o
 .rodata.check_tlv_param.str1.4
                0x0000000000000000       0x54 build/default/production/_ext/1500443788/tlv_flash.o
 .rodata.chk_tlv.str1.4
                0x0000000000000000       0x38 build/default/production/_ext/1500443788/tlv_flash.o
 .rodata.read_tlv_flash.str1.4
                0x0000000000000000       0x48 build/default/production/_ext/1500443788/tlv_flash.o
 .rodata.traverse_tlv_flash.str1.4
                0x0000000000000000       0x20 build/default/production/_ext/1500443788/tlv_flash.o
 .rodata.write_tlv_flash.str1.4
                0x0000000000000000       0xac build/default/production/_ext/1500443788/tlv_flash.o
 .debug_info    0x0000000000000000     0x1f34 build/default/production/_ext/1500443788/tlv_flash.o
 .debug_abbrev  0x0000000000000000      0x33d build/default/production/_ext/1500443788/tlv_flash.o
 .debug_loc     0x0000000000000000      0x8da build/default/production/_ext/1500443788/tlv_flash.o
 .debug_aranges
                0x0000000000000000       0x40 build/default/production/_ext/1500443788/tlv_flash.o
 .debug_ranges  0x0000000000000000       0x98 build/default/production/_ext/1500443788/tlv_flash.o
 .debug_line    0x0000000000000000      0x5f0 build/default/production/_ext/1500443788/tlv_flash.o
 .debug_str     0x0000000000000000     0x140b build/default/production/_ext/1500443788/tlv_flash.o
 .comment       0x0000000000000000       0x2c build/default/production/_ext/1500443788/tlv_flash.o
 .debug_frame   0x0000000000000000       0xb0 build/default/production/_ext/1500443788/tlv_flash.o
 .ARM.attributes
                0x0000000000000000       0x2c build/default/production/_ext/1500443788/tlv_flash.o
 COMMON         0x0000000000000000       0x18 build/default/production/_ext/1500443788/tlv_flash.o
 .text          0x0000000000000000        0x0 build/default/production/_ext/1529399856/osal_freertos.o
 .data          0x0000000000000000        0x0 build/default/production/_ext/1529399856/osal_freertos.o
 .bss           0x0000000000000000        0x0 build/default/production/_ext/1529399856/osal_freertos.o
 .text.OSAL_CRIT_Enter
                0x0000000000000000       0x1a build/default/production/_ext/1529399856/osal_freertos.o
 .text.OSAL_CRIT_Leave
                0x0000000000000000       0x18 build/default/production/_ext/1529399856/osal_freertos.o
 .text.OSAL_SEM_Create
                0x0000000000000000       0x5a build/default/production/_ext/1529399856/osal_freertos.o
 .text.OSAL_SEM_Delete
                0x0000000000000000       0x12 build/default/production/_ext/1529399856/osal_freertos.o
 .text.OSAL_SEM_Pend
                0x0000000000000000       0x22 build/default/production/_ext/1529399856/osal_freertos.o
 .text.OSAL_SEM_Post
                0x0000000000000000       0x28 build/default/production/_ext/1529399856/osal_freertos.o
 .text.OSAL_SEM_PostISR
                0x0000000000000000       0x44 build/default/production/_ext/1529399856/osal_freertos.o
 .text.OSAL_SEM_GetCount
                0x0000000000000000       0x10 build/default/production/_ext/1529399856/osal_freertos.o
 .text.OSAL_MUTEX_Delete
                0x0000000000000000       0x20 build/default/production/_ext/1529399856/osal_freertos.o
 .text.OSAL_Malloc
                0x0000000000000000        0x8 build/default/production/_ext/1529399856/osal_freertos.o
 .text.OSAL_Free
                0x0000000000000000        0x8 build/default/production/_ext/1529399856/osal_freertos.o
 .text.OSAL_Initialize
                0x0000000000000000        0x4 build/default/production/_ext/1529399856/osal_freertos.o
 .text          0x0000000000000000        0x0 build/default/production/_ext/60163342/plib_adc0.o
 .data          0x0000000000000000        0x0 build/default/production/_ext/60163342/plib_adc0.o
 .bss           0x0000000000000000        0x0 build/default/production/_ext/60163342/plib_adc0.o
 .text.ADC0_Enable
                0x0000000000000000       0x1c build/default/production/_ext/60163342/plib_adc0.o
 .text.ADC0_Disable
                0x0000000000000000       0x1c build/default/production/_ext/60163342/plib_adc0.o
 .text.ADC0_ChannelSelect
                0x0000000000000000       0x18 build/default/production/_ext/60163342/plib_adc0.o
 .text.ADC0_ConversionStart
                0x0000000000000000       0x1c build/default/production/_ext/60163342/plib_adc0.o
 .text.ADC0_ConversionSequenceIsFinished
                0x0000000000000000       0x10 build/default/production/_ext/60163342/plib_adc0.o
 .text.ADC0_ComparisonWindowSet
                0x0000000000000000       0x20 build/default/production/_ext/60163342/plib_adc0.o
 .text.ADC0_WindowModeSet
                0x0000000000000000       0x24 build/default/production/_ext/60163342/plib_adc0.o
 .text.ADC0_ConversionResultGet
                0x0000000000000000        0xc build/default/production/_ext/60163342/plib_adc0.o
 .text.ADC0_InterruptsClear
                0x0000000000000000        0xc build/default/production/_ext/60163342/plib_adc0.o
 .text.ADC0_InterruptsEnable
                0x0000000000000000        0xc build/default/production/_ext/60163342/plib_adc0.o
 .text.ADC0_InterruptsDisable
                0x0000000000000000        0xc build/default/production/_ext/60163342/plib_adc0.o
 .text.ADC0_ConversionStatusGet
                0x0000000000000000       0x18 build/default/production/_ext/60163342/plib_adc0.o
 .text          0x0000000000000000        0x0 build/default/production/_ext/60165182/plib_can1.o
 .data          0x0000000000000000        0x0 build/default/production/_ext/60165182/plib_can1.o
 .bss           0x0000000000000000        0x0 build/default/production/_ext/60165182/plib_can1.o
 .text.CAN1_MessageTransmitFifo
                0x0000000000000000       0x44 build/default/production/_ext/60165182/plib_can1.o
 .text.CAN1_TxFifoFreeLevelGet
                0x0000000000000000       0x10 build/default/production/_ext/60165182/plib_can1.o
 .text.CAN1_TxBufferIsBusy
                0x0000000000000000       0x14 build/default/production/_ext/60165182/plib_can1.o
 .text.CAN1_TxEventFifoRead
                0x0000000000000000       0x60 build/default/production/_ext/60165182/plib_can1.o
 .text.CAN1_TxEventFifoFillLevelGet
                0x0000000000000000       0x10 build/default/production/_ext/60165182/plib_can1.o
 .text.CAN1_MessageReceiveFifo
                0x0000000000000000       0xc4 build/default/production/_ext/60165182/plib_can1.o
 .text.CAN1_RxFifoFillLevelGet
                0x0000000000000000       0x20 build/default/production/_ext/60165182/plib_can1.o
 .text.CAN1_ErrorGet
                0x0000000000000000       0x2c build/default/production/_ext/60165182/plib_can1.o
 .text.CAN1_ErrorCountGet
                0x0000000000000000       0x14 build/default/production/_ext/60165182/plib_can1.o
 .text.CAN1_InterruptGet
                0x0000000000000000       0x14 build/default/production/_ext/60165182/plib_can1.o
 .text.CAN1_InterruptClear
                0x0000000000000000        0xc build/default/production/_ext/60165182/plib_can1.o
 .text.CAN1_MessageRAMConfigSet
                0x0000000000000000       0x90 build/default/production/_ext/60165182/plib_can1.o
 .text.CAN1_SleepModeEnter
                0x0000000000000000       0x1c build/default/production/_ext/60165182/plib_can1.o
 .text.CAN1_SleepModeExit
                0x0000000000000000       0x30 build/default/production/_ext/60165182/plib_can1.o
 .text.CAN1_BitTimingCalculationGet
                0x0000000000000000       0x8c build/default/production/_ext/60165182/plib_can1.o
 .text.CAN1_BitTimingSet
                0x0000000000000000       0x8c build/default/production/_ext/60165182/plib_can1.o
 .text          0x0000000000000000        0x0 build/default/production/_ext/1984496892/plib_clock.o
 .data          0x0000000000000000        0x0 build/default/production/_ext/1984496892/plib_clock.o
 .bss           0x0000000000000000        0x0 build/default/production/_ext/1984496892/plib_clock.o
 .text          0x0000000000000000        0x0 build/default/production/_ext/60167341/plib_eic.o
 .data          0x0000000000000000        0x0 build/default/production/_ext/60167341/plib_eic.o
 .bss           0x0000000000000000        0x0 build/default/production/_ext/60167341/plib_eic.o
 .text.EIC_InterruptEnable
                0x0000000000000000       0x10 build/default/production/_ext/60167341/plib_eic.o
 .text.EIC_InterruptDisable
                0x0000000000000000       0x10 build/default/production/_ext/60167341/plib_eic.o
 .text.EIC_CallbackRegister
                0x0000000000000000       0x28 build/default/production/_ext/60167341/plib_eic.o
 .text          0x0000000000000000        0x0 build/default/production/_ext/1986646378/plib_evsys.o
 .data          0x0000000000000000        0x0 build/default/production/_ext/1986646378/plib_evsys.o
 .bss           0x0000000000000000        0x0 build/default/production/_ext/1986646378/plib_evsys.o
 .text          0x0000000000000000        0x0 build/default/production/_ext/1865468468/plib_nvic.o
 .data          0x0000000000000000        0x0 build/default/production/_ext/1865468468/plib_nvic.o
 .bss           0x0000000000000000        0x0 build/default/production/_ext/1865468468/plib_nvic.o
 .text.NVIC_INT_Enable
                0x0000000000000000        0x8 build/default/production/_ext/1865468468/plib_nvic.o
 .text.NVIC_INT_Disable
                0x0000000000000000       0x12 build/default/production/_ext/1865468468/plib_nvic.o
 .text.NVIC_INT_Restore
                0x0000000000000000       0x14 build/default/production/_ext/1865468468/plib_nvic.o
 .text.NVIC_INT_SourceDisable
                0x0000000000000000       0x3c build/default/production/_ext/1865468468/plib_nvic.o
 .text.NVIC_INT_SourceRestore
                0x0000000000000000       0x1c build/default/production/_ext/1865468468/plib_nvic.o
 .text          0x0000000000000000        0x0 build/default/production/_ext/1593096446/plib_nvmctrl.o
 .data          0x0000000000000000        0x0 build/default/production/_ext/1593096446/plib_nvmctrl.o
 .bss           0x0000000000000000        0x0 build/default/production/_ext/1593096446/plib_nvmctrl.o
 .text.NVMCTRL_CacheInvalidate
                0x0000000000000000       0x10 build/default/production/_ext/1593096446/plib_nvmctrl.o
 .text.NVMCTRL_RWWEEPROM_Read
                0x0000000000000000       0x10 build/default/production/_ext/1593096446/plib_nvmctrl.o
 .text.NVMCTRL_RWWEEPROM_PageWrite
                0x0000000000000000       0x28 build/default/production/_ext/1593096446/plib_nvmctrl.o
 .text.NVMCTRL_RWWEEPROM_RowErase
                0x0000000000000000       0x18 build/default/production/_ext/1593096446/plib_nvmctrl.o
 .text.NVMCTRL_Read
                0x0000000000000000       0x10 build/default/production/_ext/1593096446/plib_nvmctrl.o
 .text.NVMCTRL_PageBufferWrite
                0x0000000000000000       0x14 build/default/production/_ext/1593096446/plib_nvmctrl.o
 .text.NVMCTRL_PageBufferCommit
                0x0000000000000000       0x30 build/default/production/_ext/1593096446/plib_nvmctrl.o
 .text.NVMCTRL_PageWrite
                0x0000000000000000       0x28 build/default/production/_ext/1593096446/plib_nvmctrl.o
 .text.NVMCTRL_RowErase
                0x0000000000000000       0x18 build/default/production/_ext/1593096446/plib_nvmctrl.o
 .text.NVMCTRL_USER_ROW_PageWrite
                0x0000000000000000       0x38 build/default/production/_ext/1593096446/plib_nvmctrl.o
 .text.NVMCTRL_USER_ROW_RowErase
                0x0000000000000000       0x2c build/default/production/_ext/1593096446/plib_nvmctrl.o
 .text.NVMCTRL_ErrorGet
                0x0000000000000000       0x18 build/default/production/_ext/1593096446/plib_nvmctrl.o
 .text.NVMCTRL_IsBusy
                0x0000000000000000       0x14 build/default/production/_ext/1593096446/plib_nvmctrl.o
 .text.NVMCTRL_RegionLock
                0x0000000000000000       0x14 build/default/production/_ext/1593096446/plib_nvmctrl.o
 .text.NVMCTRL_RegionUnlock
                0x0000000000000000       0x14 build/default/production/_ext/1593096446/plib_nvmctrl.o
 .text.NVMCTRL_SecurityBitSet
                0x0000000000000000       0x10 build/default/production/_ext/1593096446/plib_nvmctrl.o
 .text          0x0000000000000000        0x0 build/default/production/_ext/1865521619/plib_port.o
 .data          0x0000000000000000        0x0 build/default/production/_ext/1865521619/plib_port.o
 .bss           0x0000000000000000        0x0 build/default/production/_ext/1865521619/plib_port.o
 .text.PORT_GroupRead
                0x0000000000000000        0x4 build/default/production/_ext/1865521619/plib_port.o
 .text.PORT_GroupWrite
                0x0000000000000000        0xc build/default/production/_ext/1865521619/plib_port.o
 .text.PORT_GroupLatchRead
                0x0000000000000000        0x4 build/default/production/_ext/1865521619/plib_port.o
 .text.PORT_GroupSet
                0x0000000000000000        0x4 build/default/production/_ext/1865521619/plib_port.o
 .text.PORT_GroupClear
                0x0000000000000000        0x4 build/default/production/_ext/1865521619/plib_port.o
 .text.PORT_GroupToggle
                0x0000000000000000        0x4 build/default/production/_ext/1865521619/plib_port.o
 .text.PORT_GroupInputEnable
                0x0000000000000000       0x2a build/default/production/_ext/1865521619/plib_port.o
 .text.PORT_GroupOutputEnable
                0x0000000000000000        0x4 build/default/production/_ext/1865521619/plib_port.o
 .text.PORT_PinPeripheralFunctionConfig
                0x0000000000000000       0x46 build/default/production/_ext/1865521619/plib_port.o
 .text.PORT_PinGPIOConfig
                0x0000000000000000       0x1e build/default/production/_ext/1865521619/plib_port.o
 .text          0x0000000000000000        0x0 build/default/production/_ext/1865585090/plib_rstc.o
 .data          0x0000000000000000        0x0 build/default/production/_ext/1865585090/plib_rstc.o
 .bss           0x0000000000000000        0x0 build/default/production/_ext/1865585090/plib_rstc.o
 .text.RSTC_ResetCauseGet
                0x0000000000000000        0xc build/default/production/_ext/1865585090/plib_rstc.o
 .debug_info    0x0000000000000000       0xf3 build/default/production/_ext/1865585090/plib_rstc.o
 .debug_abbrev  0x0000000000000000       0x94 build/default/production/_ext/1865585090/plib_rstc.o
 .debug_aranges
                0x0000000000000000       0x20 build/default/production/_ext/1865585090/plib_rstc.o
 .debug_ranges  0x0000000000000000       0x10 build/default/production/_ext/1865585090/plib_rstc.o
 .debug_line    0x0000000000000000       0xef build/default/production/_ext/1865585090/plib_rstc.o
 .debug_str     0x0000000000000000      0x2ec build/default/production/_ext/1865585090/plib_rstc.o
 .comment       0x0000000000000000       0x2c build/default/production/_ext/1865585090/plib_rstc.o
 .debug_frame   0x0000000000000000       0x20 build/default/production/_ext/1865585090/plib_rstc.o
 .ARM.attributes
                0x0000000000000000       0x2c build/default/production/_ext/1865585090/plib_rstc.o
 .text          0x0000000000000000        0x0 build/default/production/_ext/17022449/plib_sercom3_spi_master.o
 .data          0x0000000000000000        0x0 build/default/production/_ext/17022449/plib_sercom3_spi_master.o
 .bss           0x0000000000000000        0x0 build/default/production/_ext/17022449/plib_sercom3_spi_master.o
 .text.SERCOM3_SPI_TransferSetup
                0x0000000000000000       0x90 build/default/production/_ext/17022449/plib_sercom3_spi_master.o
 .text.SERCOM3_SPI_IsTransmitterBusy
                0x0000000000000000       0x14 build/default/production/_ext/17022449/plib_sercom3_spi_master.o
 .text.SERCOM3_SPI_WriteRead
                0x0000000000000000      0x1ac build/default/production/_ext/17022449/plib_sercom3_spi_master.o
 .text.SERCOM3_SPI_Write
                0x0000000000000000        0xc build/default/production/_ext/17022449/plib_sercom3_spi_master.o
 .text.SERCOM3_SPI_Read
                0x0000000000000000       0x10 build/default/production/_ext/17022449/plib_sercom3_spi_master.o
 .text          0x0000000000000000        0x0 build/default/production/_ext/17022449/plib_sercom0_spi_master.o
 .data          0x0000000000000000        0x0 build/default/production/_ext/17022449/plib_sercom0_spi_master.o
 .bss           0x0000000000000000        0x0 build/default/production/_ext/17022449/plib_sercom0_spi_master.o
 .text.SERCOM0_SPI_TransferSetup
                0x0000000000000000       0x90 build/default/production/_ext/17022449/plib_sercom0_spi_master.o
 .text.SERCOM0_SPI_IsTransmitterBusy
                0x0000000000000000       0x14 build/default/production/_ext/17022449/plib_sercom0_spi_master.o
 .text.SERCOM0_SPI_WriteRead
                0x0000000000000000      0x1ac build/default/production/_ext/17022449/plib_sercom0_spi_master.o
 .text.SERCOM0_SPI_Write
                0x0000000000000000        0xc build/default/production/_ext/17022449/plib_sercom0_spi_master.o
 .text.SERCOM0_SPI_Read
                0x0000000000000000       0x10 build/default/production/_ext/17022449/plib_sercom0_spi_master.o
 .text          0x0000000000000000        0x0 build/default/production/_ext/504274921/plib_sercom7_usart.o
 .data          0x0000000000000000        0x0 build/default/production/_ext/504274921/plib_sercom7_usart.o
 .bss           0x0000000000000000        0x0 build/default/production/_ext/504274921/plib_sercom7_usart.o
 .text.SERCOM7_USART_FrequencyGet
                0x0000000000000000        0x8 build/default/production/_ext/504274921/plib_sercom7_usart.o
 .text.SERCOM7_USART_SerialSetup
                0x0000000000000000      0x118 build/default/production/_ext/504274921/plib_sercom7_usart.o
 .text.SERCOM7_USART_Enable
                0x0000000000000000       0x20 build/default/production/_ext/504274921/plib_sercom7_usart.o
 .text.SERCOM7_USART_Disable
                0x0000000000000000       0x20 build/default/production/_ext/504274921/plib_sercom7_usart.o
 .text.SERCOM7_USART_ErrorGet
                0x0000000000000000       0x10 build/default/production/_ext/504274921/plib_sercom7_usart.o
 .text.SERCOM7_USART_ReadBufferSizeGet
                0x0000000000000000        0xc build/default/production/_ext/504274921/plib_sercom7_usart.o
 .text.SERCOM7_USART_ReadNotificationEnable
                0x0000000000000000       0x18 build/default/production/_ext/504274921/plib_sercom7_usart.o
 .text.SERCOM7_USART_ReadThresholdSet
                0x0000000000000000       0x10 build/default/production/_ext/504274921/plib_sercom7_usart.o
 .text.SERCOM7_USART_ReadCallbackRegister
                0x0000000000000000        0xc build/default/production/_ext/504274921/plib_sercom7_usart.o
 .text.SERCOM7_USART_TransmitComplete
                0x0000000000000000       0x10 build/default/production/_ext/504274921/plib_sercom7_usart.o
 .text.SERCOM7_USART_WriteBufferSizeGet
                0x0000000000000000        0xc build/default/production/_ext/504274921/plib_sercom7_usart.o
 .text.SERCOM7_USART_WriteNotificationEnable
                0x0000000000000000       0x14 build/default/production/_ext/504274921/plib_sercom7_usart.o
 .text.SERCOM7_USART_WriteThresholdSet
                0x0000000000000000       0x10 build/default/production/_ext/504274921/plib_sercom7_usart.o
 .text.SERCOM7_USART_WriteCallbackRegister
                0x0000000000000000        0xc build/default/production/_ext/504274921/plib_sercom7_usart.o
 .text          0x0000000000000000        0x0 build/default/production/_ext/504274921/plib_sercom5_usart.o
 .data          0x0000000000000000        0x0 build/default/production/_ext/504274921/plib_sercom5_usart.o
 .bss           0x0000000000000000        0x0 build/default/production/_ext/504274921/plib_sercom5_usart.o
 .text.SERCOM5_USART_FrequencyGet
                0x0000000000000000        0x8 build/default/production/_ext/504274921/plib_sercom5_usart.o
 .text.SERCOM5_USART_SerialSetup
                0x0000000000000000      0x118 build/default/production/_ext/504274921/plib_sercom5_usart.o
 .text.SERCOM5_USART_Enable
                0x0000000000000000       0x20 build/default/production/_ext/504274921/plib_sercom5_usart.o
 .text.SERCOM5_USART_Disable
                0x0000000000000000       0x20 build/default/production/_ext/504274921/plib_sercom5_usart.o
 .text.SERCOM5_USART_ErrorGet
                0x0000000000000000       0x10 build/default/production/_ext/504274921/plib_sercom5_usart.o
 .text.SERCOM5_USART_Read
                0x0000000000000000       0x94 build/default/production/_ext/504274921/plib_sercom5_usart.o
 .text.SERCOM5_USART_ReadFreeBufferCountGet
                0x0000000000000000       0x14 build/default/production/_ext/504274921/plib_sercom5_usart.o
 .text.SERCOM5_USART_ReadBufferSizeGet
                0x0000000000000000        0xc build/default/production/_ext/504274921/plib_sercom5_usart.o
 .text.SERCOM5_USART_ReadNotificationEnable
                0x0000000000000000       0x18 build/default/production/_ext/504274921/plib_sercom5_usart.o
 .text.SERCOM5_USART_ReadThresholdSet
                0x0000000000000000       0x10 build/default/production/_ext/504274921/plib_sercom5_usart.o
 .text.SERCOM5_USART_ReadCallbackRegister
                0x0000000000000000        0xc build/default/production/_ext/504274921/plib_sercom5_usart.o
 .text.SERCOM5_USART_TransmitComplete
                0x0000000000000000       0x10 build/default/production/_ext/504274921/plib_sercom5_usart.o
 .text.SERCOM5_USART_WriteCountGet
                0x0000000000000000        0x8 build/default/production/_ext/504274921/plib_sercom5_usart.o
 .text.SERCOM5_USART_Write
                0x0000000000000000      0x104 build/default/production/_ext/504274921/plib_sercom5_usart.o
 .text.SERCOM5_USART_WriteBufferSizeGet
                0x0000000000000000        0xc build/default/production/_ext/504274921/plib_sercom5_usart.o
 .text.SERCOM5_USART_WriteNotificationEnable
                0x0000000000000000       0x14 build/default/production/_ext/504274921/plib_sercom5_usart.o
 .text.SERCOM5_USART_WriteThresholdSet
                0x0000000000000000       0x10 build/default/production/_ext/504274921/plib_sercom5_usart.o
 .text.SERCOM5_USART_WriteCallbackRegister
                0x0000000000000000        0xc build/default/production/_ext/504274921/plib_sercom5_usart.o
 .text          0x0000000000000000        0x0 build/default/production/_ext/829342655/plib_tc2.o
 .data          0x0000000000000000        0x0 build/default/production/_ext/829342655/plib_tc2.o
 .bss           0x0000000000000000        0x0 build/default/production/_ext/829342655/plib_tc2.o
 .text.TC2_TimerStart
                0x0000000000000000       0x1c build/default/production/_ext/829342655/plib_tc2.o
 .text.TC2_TimerStop
                0x0000000000000000       0x1c build/default/production/_ext/829342655/plib_tc2.o
 .text.TC2_TimerFrequencyGet
                0x0000000000000000        0x8 build/default/production/_ext/829342655/plib_tc2.o
 .text.TC2_TimerCommandSet
                0x0000000000000000       0x18 build/default/production/_ext/829342655/plib_tc2.o
 .text.TC2_Timer32bitCounterGet
                0x0000000000000000       0x28 build/default/production/_ext/829342655/plib_tc2.o
 .text.TC2_Timer32bitCounterSet
                0x0000000000000000       0x14 build/default/production/_ext/829342655/plib_tc2.o
 .text.TC2_Timer32bitPeriodSet
                0x0000000000000000       0x14 build/default/production/_ext/829342655/plib_tc2.o
 .text.TC2_Timer32bitPeriodGet
                0x0000000000000000        0xc build/default/production/_ext/829342655/plib_tc2.o
 .text.TC2_TimerCallbackRegister
                0x0000000000000000        0xc build/default/production/_ext/829342655/plib_tc2.o
 .text          0x0000000000000000        0x0 build/default/production/_ext/829342655/plib_tc4.o
 .data          0x0000000000000000        0x0 build/default/production/_ext/829342655/plib_tc4.o
 .bss           0x0000000000000000        0x0 build/default/production/_ext/829342655/plib_tc4.o
 .text.TC4_TimerStart
                0x0000000000000000       0x1c build/default/production/_ext/829342655/plib_tc4.o
 .text.TC4_TimerStop
                0x0000000000000000       0x1c build/default/production/_ext/829342655/plib_tc4.o
 .text.TC4_TimerFrequencyGet
                0x0000000000000000        0x8 build/default/production/_ext/829342655/plib_tc4.o
 .text.TC4_TimerCommandSet
                0x0000000000000000       0x18 build/default/production/_ext/829342655/plib_tc4.o
 .text.TC4_Timer16bitCounterGet
                0x0000000000000000       0x2c build/default/production/_ext/829342655/plib_tc4.o
 .text.TC4_Timer16bitCounterSet
                0x0000000000000000       0x14 build/default/production/_ext/829342655/plib_tc4.o
 .text.TC4_Timer16bitPeriodSet
                0x0000000000000000       0x14 build/default/production/_ext/829342655/plib_tc4.o
 .text.TC4_Timer16bitPeriodGet
                0x0000000000000000        0xc build/default/production/_ext/829342655/plib_tc4.o
 .text.TC4_TimerCallbackRegister
                0x0000000000000000        0xc build/default/production/_ext/829342655/plib_tc4.o
 .text          0x0000000000000000        0x0 build/default/production/_ext/60184501/plib_wdt.o
 .data          0x0000000000000000        0x0 build/default/production/_ext/60184501/plib_wdt.o
 .bss           0x0000000000000000        0x0 build/default/production/_ext/60184501/plib_wdt.o
 .text.WDT_Enable
                0x0000000000000000       0x20 build/default/production/_ext/60184501/plib_wdt.o
 .text.WDT_Disable
                0x0000000000000000       0x20 build/default/production/_ext/60184501/plib_wdt.o
 .text.WDT_EnableWindowMode
                0x0000000000000000       0x34 build/default/production/_ext/60184501/plib_wdt.o
 .text.WDT_DisableWindowMode
                0x0000000000000000       0x34 build/default/production/_ext/60184501/plib_wdt.o
 .text.WDT_IsEnabled
                0x0000000000000000       0x14 build/default/production/_ext/60184501/plib_wdt.o
 .text.WDT_IsAlwaysOn
                0x0000000000000000        0xc build/default/production/_ext/60184501/plib_wdt.o
 .text.WDT_IsWindowModeEnabled
                0x0000000000000000       0x10 build/default/production/_ext/60184501/plib_wdt.o
 .text.WDT_TimeoutPeriodSet
                0x0000000000000000       0x14 build/default/production/_ext/60184501/plib_wdt.o
 .text.WDT_Clear
                0x0000000000000000       0x14 build/default/production/_ext/60184501/plib_wdt.o
 .text.WDT_ClearWithSync
                0x0000000000000000       0x1c build/default/production/_ext/60184501/plib_wdt.o
 .debug_info    0x0000000000000000      0x27f build/default/production/_ext/60184501/plib_wdt.o
 .debug_abbrev  0x0000000000000000       0xed build/default/production/_ext/60184501/plib_wdt.o
 .debug_aranges
                0x0000000000000000       0x68 build/default/production/_ext/60184501/plib_wdt.o
 .debug_ranges  0x0000000000000000       0x58 build/default/production/_ext/60184501/plib_wdt.o
 .debug_line    0x0000000000000000      0x2b9 build/default/production/_ext/60184501/plib_wdt.o
 .debug_str     0x0000000000000000      0x3e6 build/default/production/_ext/60184501/plib_wdt.o
 .comment       0x0000000000000000       0x2c build/default/production/_ext/60184501/plib_wdt.o
 .debug_frame   0x0000000000000000       0xb0 build/default/production/_ext/60184501/plib_wdt.o
 .ARM.attributes
                0x0000000000000000       0x2c build/default/production/_ext/60184501/plib_wdt.o
 .text          0x0000000000000000        0x0 build/default/production/_ext/163028504/xc32_monitor.o
 .data          0x0000000000000000        0x0 build/default/production/_ext/163028504/xc32_monitor.o
 .bss           0x0000000000000000        0x0 build/default/production/_ext/163028504/xc32_monitor.o
 .text.read     0x0000000000000000        0x6 build/default/production/_ext/163028504/xc32_monitor.o
 .text.write    0x0000000000000000        0x6 build/default/production/_ext/163028504/xc32_monitor.o
 .debug_info    0x0000000000000000       0xf5 build/default/production/_ext/163028504/xc32_monitor.o
 .debug_abbrev  0x0000000000000000       0xb2 build/default/production/_ext/163028504/xc32_monitor.o
 .debug_loc     0x0000000000000000       0x4a build/default/production/_ext/163028504/xc32_monitor.o
 .debug_aranges
                0x0000000000000000       0x28 build/default/production/_ext/163028504/xc32_monitor.o
 .debug_ranges  0x0000000000000000       0x18 build/default/production/_ext/163028504/xc32_monitor.o
 .debug_line    0x0000000000000000       0xc2 build/default/production/_ext/163028504/xc32_monitor.o
 .debug_str     0x0000000000000000      0x24b build/default/production/_ext/163028504/xc32_monitor.o
 .comment       0x0000000000000000       0x2c build/default/production/_ext/163028504/xc32_monitor.o
 .debug_frame   0x0000000000000000       0x30 build/default/production/_ext/163028504/xc32_monitor.o
 .ARM.attributes
                0x0000000000000000       0x2c build/default/production/_ext/163028504/xc32_monitor.o
 .text          0x0000000000000000        0x0 build/default/production/_ext/1832805299/sys_console.o
 .data          0x0000000000000000        0x0 build/default/production/_ext/1832805299/sys_console.o
 .bss           0x0000000000000000        0x0 build/default/production/_ext/1832805299/sys_console.o
 .text.SYS_CONSOLE_Status
                0x0000000000000000       0x60 build/default/production/_ext/1832805299/sys_console.o
 .text.SYS_CONSOLE_HandleGet
                0x0000000000000000        0x8 build/default/production/_ext/1832805299/sys_console.o
 .text.SYS_CONSOLE_DeviceGet
                0x0000000000000000       0x1c build/default/production/_ext/1832805299/sys_console.o
 .text.SYS_CONSOLE_Tasks
                0x0000000000000000       0x28 build/default/production/_ext/1832805299/sys_console.o
 .text.SYS_CONSOLE_Read
                0x0000000000000000       0x38 build/default/production/_ext/1832805299/sys_console.o
 .text.SYS_CONSOLE_ReadFreeBufferCountGet
                0x0000000000000000       0x38 build/default/production/_ext/1832805299/sys_console.o
 .text.SYS_CONSOLE_ReadCountGet
                0x0000000000000000       0x38 build/default/production/_ext/1832805299/sys_console.o
 .text.SYS_CONSOLE_Write
                0x0000000000000000       0x38 build/default/production/_ext/1832805299/sys_console.o
 .text.SYS_CONSOLE_WriteFreeBufferCountGet
                0x0000000000000000       0x38 build/default/production/_ext/1832805299/sys_console.o
 .text.SYS_CONSOLE_WriteCountGet
                0x0000000000000000       0x38 build/default/production/_ext/1832805299/sys_console.o
 .text.SYS_CONSOLE_Print
                0x0000000000000000       0x6c build/default/production/_ext/1832805299/sys_console.o
 .text.SYS_CONSOLE_Message
                0x0000000000000000       0x34 build/default/production/_ext/1832805299/sys_console.o
 .text.SYS_CONSOLE_Flush
                0x0000000000000000       0x34 build/default/production/_ext/1832805299/sys_console.o
 .bss.consolePrintBuffer
                0x0000000000000000       0xc8 build/default/production/_ext/1832805299/sys_console.o
 .text          0x0000000000000000        0x0 build/default/production/_ext/1832805299/sys_console_uart.o
 .data          0x0000000000000000        0x0 build/default/production/_ext/1832805299/sys_console_uart.o
 .bss           0x0000000000000000        0x0 build/default/production/_ext/1832805299/sys_console_uart.o
 .text          0x0000000000000000        0x0 build/default/production/_ext/1832805299/sys_console_usb_cdc.o
 .data          0x0000000000000000        0x0 build/default/production/_ext/1832805299/sys_console_usb_cdc.o
 .bss           0x0000000000000000        0x0 build/default/production/_ext/1832805299/sys_console_usb_cdc.o
 .debug_line    0x0000000000000000        0x0 build/default/production/_ext/1832805299/sys_console_usb_cdc.o
 .debug_str     0x0000000000000000      0x20b build/default/production/_ext/1832805299/sys_console_usb_cdc.o
 .comment       0x0000000000000000       0x2c build/default/production/_ext/1832805299/sys_console_usb_cdc.o
 .ARM.attributes
                0x0000000000000000       0x32 build/default/production/_ext/1832805299/sys_console_usb_cdc.o
 .text          0x0000000000000000        0x0 build/default/production/_ext/944882569/sys_debug.o
 .data          0x0000000000000000        0x0 build/default/production/_ext/944882569/sys_debug.o
 .bss           0x0000000000000000        0x0 build/default/production/_ext/944882569/sys_debug.o
 .text.SYS_DEBUG_ConsoleInstanceGet
                0x0000000000000000        0xc build/default/production/_ext/944882569/sys_debug.o
 .text.SYS_DEBUG_Status
                0x0000000000000000        0xc build/default/production/_ext/944882569/sys_debug.o
 .text.SYS_DEBUG_ErrorLevelSet
                0x0000000000000000        0xc build/default/production/_ext/944882569/sys_debug.o
 .text.SYS_DEBUG_ErrorLevelGet
                0x0000000000000000        0xc build/default/production/_ext/944882569/sys_debug.o
 .text.SYS_DEBUG_Redirect
                0x0000000000000000       0x18 build/default/production/_ext/944882569/sys_debug.o
 .text          0x0000000000000000        0x0 build/default/production/_ext/1881668453/sys_int.o
 .data          0x0000000000000000        0x0 build/default/production/_ext/1881668453/sys_int.o
 .bss           0x0000000000000000        0x0 build/default/production/_ext/1881668453/sys_int.o
 .text.SYS_INT_Enable
                0x0000000000000000        0x8 build/default/production/_ext/1881668453/sys_int.o
 .text.SYS_INT_Disable
                0x0000000000000000        0x8 build/default/production/_ext/1881668453/sys_int.o
 .text.SYS_INT_Restore
                0x0000000000000000        0x8 build/default/production/_ext/1881668453/sys_int.o
 .text.SYS_INT_SourceDisable
                0x0000000000000000       0x3c build/default/production/_ext/1881668453/sys_int.o
 .text.SYS_INT_SourceRestore
                0x0000000000000000       0x1c build/default/production/_ext/1881668453/sys_int.o
 .debug_info    0x0000000000000000      0x5b2 build/default/production/_ext/1881668453/sys_int.o
 .debug_abbrev  0x0000000000000000      0x262 build/default/production/_ext/1881668453/sys_int.o
 .debug_loc     0x0000000000000000      0x17d build/default/production/_ext/1881668453/sys_int.o
 .debug_aranges
                0x0000000000000000       0x40 build/default/production/_ext/1881668453/sys_int.o
 .debug_ranges  0x0000000000000000       0x48 build/default/production/_ext/1881668453/sys_int.o
 .debug_line    0x0000000000000000      0x2b9 build/default/production/_ext/1881668453/sys_int.o
 .debug_str     0x0000000000000000      0x624 build/default/production/_ext/1881668453/sys_int.o
 .comment       0x0000000000000000       0x2c build/default/production/_ext/1881668453/sys_int.o
 .debug_frame   0x0000000000000000       0x84 build/default/production/_ext/1881668453/sys_int.o
 .ARM.attributes
                0x0000000000000000       0x2c build/default/production/_ext/1881668453/sys_int.o
 .text          0x0000000000000000        0x0 build/default/production/_ext/1171490990/initialization.o
 .data          0x0000000000000000        0x0 build/default/production/_ext/1171490990/initialization.o
 .bss           0x0000000000000000        0x0 build/default/production/_ext/1171490990/initialization.o
 .text          0x0000000000000000        0x0 build/default/production/_ext/1171490990/interrupts.o
 .data          0x0000000000000000        0x0 build/default/production/_ext/1171490990/interrupts.o
 .bss           0x0000000000000000        0x0 build/default/production/_ext/1171490990/interrupts.o
 .text          0x0000000000000000        0x0 build/default/production/_ext/1171490990/exceptions.o
 .data          0x0000000000000000        0x0 build/default/production/_ext/1171490990/exceptions.o
 .bss           0x0000000000000000        0x0 build/default/production/_ext/1171490990/exceptions.o
 .text          0x0000000000000000        0x0 build/default/production/_ext/1171490990/startup_xc32.o
 .data          0x0000000000000000        0x0 build/default/production/_ext/1171490990/startup_xc32.o
 .bss           0x0000000000000000        0x0 build/default/production/_ext/1171490990/startup_xc32.o
 .text          0x0000000000000000        0x0 build/default/production/_ext/1171490990/libc_syscalls.o
 .data          0x0000000000000000        0x0 build/default/production/_ext/1171490990/libc_syscalls.o
 .bss           0x0000000000000000        0x0 build/default/production/_ext/1171490990/libc_syscalls.o
 .text._exit    0x0000000000000000        0x2 build/default/production/_ext/1171490990/libc_syscalls.o
 .debug_info    0x0000000000000000       0xaa build/default/production/_ext/1171490990/libc_syscalls.o
 .debug_abbrev  0x0000000000000000       0x5d build/default/production/_ext/1171490990/libc_syscalls.o
 .debug_loc     0x0000000000000000       0x15 build/default/production/_ext/1171490990/libc_syscalls.o
 .debug_aranges
                0x0000000000000000       0x20 build/default/production/_ext/1171490990/libc_syscalls.o
 .debug_ranges  0x0000000000000000       0x10 build/default/production/_ext/1171490990/libc_syscalls.o
 .debug_line    0x0000000000000000       0x5b build/default/production/_ext/1171490990/libc_syscalls.o
 .debug_str     0x0000000000000000      0x28f build/default/production/_ext/1171490990/libc_syscalls.o
 .comment       0x0000000000000000       0x2c build/default/production/_ext/1171490990/libc_syscalls.o
 .debug_frame   0x0000000000000000       0x20 build/default/production/_ext/1171490990/libc_syscalls.o
 .ARM.attributes
                0x0000000000000000       0x2c build/default/production/_ext/1171490990/libc_syscalls.o
 .text          0x0000000000000000        0x0 build/default/production/_ext/1171490990/freertos_hooks.o
 .data          0x0000000000000000        0x0 build/default/production/_ext/1171490990/freertos_hooks.o
 .bss           0x0000000000000000        0x0 build/default/production/_ext/1171490990/freertos_hooks.o
 .text.vApplicationIdleHook
                0x0000000000000000        0x2 build/default/production/_ext/1171490990/freertos_hooks.o
 .text.vApplicationTickHook
                0x0000000000000000        0x2 build/default/production/_ext/1171490990/freertos_hooks.o
 .text.vAssertCalled
                0x0000000000000000       0x1a build/default/production/_ext/1171490990/freertos_hooks.o
 .text          0x0000000000000000        0x0 build/default/production/_ext/1171490990/tasks.o
 .data          0x0000000000000000        0x0 build/default/production/_ext/1171490990/tasks.o
 .bss           0x0000000000000000        0x0 build/default/production/_ext/1171490990/tasks.o
 .text          0x0000000000000000        0x0 build/default/production/_ext/1624415188/port.o
 .data          0x0000000000000000        0x0 build/default/production/_ext/1624415188/port.o
 .bss           0x0000000000000000        0x0 build/default/production/_ext/1624415188/port.o
 .text.vPortEndScheduler
                0x0000000000000000        0x2 build/default/production/_ext/1624415188/port.o
 .text.xPortIsInsideInterrupt
                0x0000000000000000        0xa build/default/production/_ext/1624415188/port.o
 .text          0x0000000000000000        0x0 build/default/production/_ext/1624415188/portasm.o
 .data          0x0000000000000000        0x0 build/default/production/_ext/1624415188/portasm.o
 .bss           0x0000000000000000        0x0 build/default/production/_ext/1624415188/portasm.o
 .text.xIsPrivileged
                0x0000000000000000       0x20 build/default/production/_ext/1624415188/portasm.o
 .text.vRaisePrivilege
                0x0000000000000000        0xe build/default/production/_ext/1624415188/portasm.o
 .text.vResetPrivilege
                0x0000000000000000        0xe build/default/production/_ext/1624415188/portasm.o
 .text          0x0000000000000000        0x0 build/default/production/_ext/1665200909/heap_1.o
 .data          0x0000000000000000        0x0 build/default/production/_ext/1665200909/heap_1.o
 .bss           0x0000000000000000        0x0 build/default/production/_ext/1665200909/heap_1.o
 .text.vPortInitialiseBlocks
                0x0000000000000000        0xc build/default/production/_ext/1665200909/heap_1.o
 .text.xPortGetFreeHeapSize
                0x0000000000000000       0x14 build/default/production/_ext/1665200909/heap_1.o
 .text.vPortHeapResetState
                0x0000000000000000        0xc build/default/production/_ext/1665200909/heap_1.o
 .text          0x0000000000000000        0x0 build/default/production/_ext/404212886/croutine.o
 .data          0x0000000000000000        0x0 build/default/production/_ext/404212886/croutine.o
 .bss           0x0000000000000000        0x0 build/default/production/_ext/404212886/croutine.o
 .debug_info    0x0000000000000000       0x79 build/default/production/_ext/404212886/croutine.o
 .debug_abbrev  0x0000000000000000       0x26 build/default/production/_ext/404212886/croutine.o
 .debug_aranges
                0x0000000000000000       0x18 build/default/production/_ext/404212886/croutine.o
 .debug_line    0x0000000000000000       0x1d build/default/production/_ext/404212886/croutine.o
 .debug_str     0x0000000000000000      0x29b build/default/production/_ext/404212886/croutine.o
 .comment       0x0000000000000000       0x2c build/default/production/_ext/404212886/croutine.o
 .ARM.attributes
                0x0000000000000000       0x32 build/default/production/_ext/404212886/croutine.o
 .text          0x0000000000000000        0x0 build/default/production/_ext/404212886/list.o
 .data          0x0000000000000000        0x0 build/default/production/_ext/404212886/list.o
 .bss           0x0000000000000000        0x0 build/default/production/_ext/404212886/list.o
 .text.vListInsertEnd
                0x0000000000000000       0x16 build/default/production/_ext/404212886/list.o
 .text          0x0000000000000000        0x0 build/default/production/_ext/404212886/queue.o
 .data          0x0000000000000000        0x0 build/default/production/_ext/404212886/queue.o
 .bss           0x0000000000000000        0x0 build/default/production/_ext/404212886/queue.o
 .text.xQueueCreateCountingSemaphore
                0x0000000000000000       0x26 build/default/production/_ext/404212886/queue.o
 .text.xQueueGenericSendFromISR
                0x0000000000000000       0x7a build/default/production/_ext/404212886/queue.o
 .text.xQueueGiveFromISR
                0x0000000000000000       0x6a build/default/production/_ext/404212886/queue.o
 .text.xQueuePeek
                0x0000000000000000       0xea build/default/production/_ext/404212886/queue.o
 .text.xQueueReceiveFromISR
                0x0000000000000000       0x72 build/default/production/_ext/404212886/queue.o
 .text.xQueuePeekFromISR
                0x0000000000000000       0x2e build/default/production/_ext/404212886/queue.o
 .text.uxQueueMessagesWaiting
                0x0000000000000000       0x12 build/default/production/_ext/404212886/queue.o
 .text.uxQueueSpacesAvailable
                0x0000000000000000       0x16 build/default/production/_ext/404212886/queue.o
 .text.uxQueueMessagesWaitingFromISR
                0x0000000000000000        0x4 build/default/production/_ext/404212886/queue.o
 .text.vQueueDelete
                0x0000000000000000        0x8 build/default/production/_ext/404212886/queue.o
 .text.uxQueueGetQueueItemSize
                0x0000000000000000        0x4 build/default/production/_ext/404212886/queue.o
 .text.uxQueueGetQueueLength
                0x0000000000000000        0x4 build/default/production/_ext/404212886/queue.o
 .text.xQueueIsQueueEmptyFromISR
                0x0000000000000000        0x8 build/default/production/_ext/404212886/queue.o
 .text.xQueueIsQueueFullFromISR
                0x0000000000000000        0xc build/default/production/_ext/404212886/queue.o
 .text          0x0000000000000000        0x0 build/default/production/_ext/404212886/FreeRTOS_tasks.o
 .data          0x0000000000000000        0x0 build/default/production/_ext/404212886/FreeRTOS_tasks.o
 .bss           0x0000000000000000        0x0 build/default/production/_ext/404212886/FreeRTOS_tasks.o
 .text.vTaskDelete
                0x0000000000000000       0xa4 build/default/production/_ext/404212886/FreeRTOS_tasks.o
 .text.uxTaskPriorityGet
                0x0000000000000000       0x20 build/default/production/_ext/404212886/FreeRTOS_tasks.o
 .text.uxTaskPriorityGetFromISR
                0x0000000000000000       0x20 build/default/production/_ext/404212886/FreeRTOS_tasks.o
 .text.uxTaskBasePriorityGet
                0x0000000000000000       0x20 build/default/production/_ext/404212886/FreeRTOS_tasks.o
 .text.uxTaskBasePriorityGetFromISR
                0x0000000000000000       0x20 build/default/production/_ext/404212886/FreeRTOS_tasks.o
 .text.vTaskPrioritySet
                0x0000000000000000       0xd0 build/default/production/_ext/404212886/FreeRTOS_tasks.o
 .text.vTaskResume
                0x0000000000000000       0xa0 build/default/production/_ext/404212886/FreeRTOS_tasks.o
 .text.vTaskEndScheduler
                0x0000000000000000       0x2c build/default/production/_ext/404212886/FreeRTOS_tasks.o
 .text.xTaskGetTickCountFromISR
                0x0000000000000000        0xc build/default/production/_ext/404212886/FreeRTOS_tasks.o
 .text.uxTaskGetNumberOfTasks
                0x0000000000000000        0xc build/default/production/_ext/404212886/FreeRTOS_tasks.o
 .text.pcTaskGetName
                0x0000000000000000       0x14 build/default/production/_ext/404212886/FreeRTOS_tasks.o
 .text.xTaskDelayUntil
                0x0000000000000000       0x60 build/default/production/_ext/404212886/FreeRTOS_tasks.o
 .text.vTaskDelay
                0x0000000000000000       0x20 build/default/production/_ext/404212886/FreeRTOS_tasks.o
 .text.xTaskCatchUpTicks
                0x0000000000000000       0x24 build/default/production/_ext/404212886/FreeRTOS_tasks.o
 .text.vTaskSuspend
                0x0000000000000000       0x9c build/default/production/_ext/404212886/FreeRTOS_tasks.o
 .text.vTaskPlaceOnUnorderedEventList
                0x0000000000000000       0x40 build/default/production/_ext/404212886/FreeRTOS_tasks.o
 .text.vTaskRemoveFromUnorderedEventList
                0x0000000000000000       0xb4 build/default/production/_ext/404212886/FreeRTOS_tasks.o
 .text.vTaskSetTimeOutState
                0x0000000000000000       0x24 build/default/production/_ext/404212886/FreeRTOS_tasks.o
 .text.xTaskGetCurrentTaskHandle
                0x0000000000000000        0xc build/default/production/_ext/404212886/FreeRTOS_tasks.o
 .text.xTaskGetCurrentTaskHandleForCore
                0x0000000000000000       0x14 build/default/production/_ext/404212886/FreeRTOS_tasks.o
 .text.xTaskGetSchedulerState
                0x0000000000000000       0x20 build/default/production/_ext/404212886/FreeRTOS_tasks.o
 .text.uxTaskResetEventItemValue
                0x0000000000000000       0x18 build/default/production/_ext/404212886/FreeRTOS_tasks.o
 .text.ulTaskGenericNotifyTake
                0x0000000000000000       0xbc build/default/production/_ext/404212886/FreeRTOS_tasks.o
 .text.xTaskGenericNotifyWait
                0x0000000000000000       0xc4 build/default/production/_ext/404212886/FreeRTOS_tasks.o
 .text.xTaskGenericNotify
                0x0000000000000000      0x100 build/default/production/_ext/404212886/FreeRTOS_tasks.o
 .text.xTaskGenericNotifyFromISR
                0x0000000000000000      0x144 build/default/production/_ext/404212886/FreeRTOS_tasks.o
 .text.vTaskGenericNotifyGiveFromISR
                0x0000000000000000       0xe4 build/default/production/_ext/404212886/FreeRTOS_tasks.o
 .text.xTaskGenericNotifyStateClear
                0x0000000000000000       0x38 build/default/production/_ext/404212886/FreeRTOS_tasks.o
 .text.ulTaskGenericNotifyValueClear
                0x0000000000000000       0x30 build/default/production/_ext/404212886/FreeRTOS_tasks.o
 .text.vTaskResetState
                0x0000000000000000       0x64 build/default/production/_ext/404212886/FreeRTOS_tasks.o
 .text          0x0000000000000000        0x0 build/default/production/_ext/404212886/timers.o
 .data          0x0000000000000000        0x0 build/default/production/_ext/404212886/timers.o
 .bss           0x0000000000000000        0x0 build/default/production/_ext/404212886/timers.o
 .text.xTimerCreate
                0x0000000000000000       0x46 build/default/production/_ext/404212886/timers.o
 .text.xTimerGenericCommandFromTask
                0x0000000000000000       0x54 build/default/production/_ext/404212886/timers.o
 .text.xTimerGenericCommandFromISR
                0x0000000000000000       0x3c build/default/production/_ext/404212886/timers.o
 .text.xTimerGetTimerDaemonTaskHandle
                0x0000000000000000        0xc build/default/production/_ext/404212886/timers.o
 .text.xTimerGetPeriod
                0x0000000000000000        0x4 build/default/production/_ext/404212886/timers.o
 .text.vTimerSetReloadMode
                0x0000000000000000       0x2a build/default/production/_ext/404212886/timers.o
 .text.xTimerGetReloadMode
                0x0000000000000000       0x18 build/default/production/_ext/404212886/timers.o
 .text.uxTimerGetReloadMode
                0x0000000000000000        0x8 build/default/production/_ext/404212886/timers.o
 .text.xTimerGetExpiryTime
                0x0000000000000000        0x4 build/default/production/_ext/404212886/timers.o
 .text.pcTimerGetName
                0x0000000000000000        0x4 build/default/production/_ext/404212886/timers.o
 .text.xTimerIsTimerActive
                0x0000000000000000       0x18 build/default/production/_ext/404212886/timers.o
 .text.pvTimerGetTimerID
                0x0000000000000000       0x12 build/default/production/_ext/404212886/timers.o
 .text.vTimerSetTimerID
                0x0000000000000000       0x12 build/default/production/_ext/404212886/timers.o
 .text.xTimerPendFunctionCallFromISR
                0x0000000000000000       0x28 build/default/production/_ext/404212886/timers.o
 .text.xTimerPendFunctionCall
                0x0000000000000000       0x28 build/default/production/_ext/404212886/timers.o
 .text.vTimerResetState
                0x0000000000000000       0x14 build/default/production/_ext/404212886/timers.o
 .text          0x0000000000000000        0x0 build/default/production/_ext/404212886/event_groups.o
 .data          0x0000000000000000        0x0 build/default/production/_ext/404212886/event_groups.o
 .bss           0x0000000000000000        0x0 build/default/production/_ext/404212886/event_groups.o
 .text.xEventGroupCreate
                0x0000000000000000       0x18 build/default/production/_ext/404212886/event_groups.o
 .text.xEventGroupWaitBits
                0x0000000000000000       0xbc build/default/production/_ext/404212886/event_groups.o
 .text.xEventGroupClearBits
                0x0000000000000000       0x1a build/default/production/_ext/404212886/event_groups.o
 .text.xEventGroupGetBitsFromISR
                0x0000000000000000       0x12 build/default/production/_ext/404212886/event_groups.o
 .text.xEventGroupSetBits
                0x0000000000000000       0x64 build/default/production/_ext/404212886/event_groups.o
 .text.xEventGroupSync
                0x0000000000000000       0x86 build/default/production/_ext/404212886/event_groups.o
 .text.vEventGroupDelete
                0x0000000000000000       0x2c build/default/production/_ext/404212886/event_groups.o
 .text.vEventGroupSetBitsCallback
                0x0000000000000000        0x8 build/default/production/_ext/404212886/event_groups.o
 .text.vEventGroupClearBitsCallback
                0x0000000000000000        0x8 build/default/production/_ext/404212886/event_groups.o
 .debug_info    0x0000000000000000      0xaa4 build/default/production/_ext/404212886/event_groups.o
 .debug_abbrev  0x0000000000000000      0x204 build/default/production/_ext/404212886/event_groups.o
 .debug_loc     0x0000000000000000      0xd03 build/default/production/_ext/404212886/event_groups.o
 .debug_aranges
                0x0000000000000000       0x60 build/default/production/_ext/404212886/event_groups.o
 .debug_ranges  0x0000000000000000       0x98 build/default/production/_ext/404212886/event_groups.o
 .debug_line    0x0000000000000000      0x60e build/default/production/_ext/404212886/event_groups.o
 .debug_str     0x0000000000000000      0x6ff build/default/production/_ext/404212886/event_groups.o
 .comment       0x0000000000000000       0x2c build/default/production/_ext/404212886/event_groups.o
 .debug_frame   0x0000000000000000      0x10c build/default/production/_ext/404212886/event_groups.o
 .ARM.attributes
                0x0000000000000000       0x2c build/default/production/_ext/404212886/event_groups.o
 .text          0x0000000000000000        0x0 build/default/production/_ext/404212886/stream_buffer.o
 .data          0x0000000000000000        0x0 build/default/production/_ext/404212886/stream_buffer.o
 .bss           0x0000000000000000        0x0 build/default/production/_ext/404212886/stream_buffer.o
 .text.prvBytesInBuffer
                0x0000000000000000       0x12 build/default/production/_ext/404212886/stream_buffer.o
 .text.prvWriteBytesToBuffer
                0x0000000000000000       0x42 build/default/production/_ext/404212886/stream_buffer.o
 .text.prvWriteMessageToBuffer
                0x0000000000000000       0x4e build/default/production/_ext/404212886/stream_buffer.o
 .text.prvReadBytesFromBuffer
                0x0000000000000000       0x42 build/default/production/_ext/404212886/stream_buffer.o
 .text.prvReadMessageFromBuffer
                0x0000000000000000       0x4c build/default/production/_ext/404212886/stream_buffer.o
 .text.xStreamBufferGenericCreate
                0x0000000000000000       0x4e build/default/production/_ext/404212886/stream_buffer.o
 .text.vStreamBufferDelete
                0x0000000000000000       0x18 build/default/production/_ext/404212886/stream_buffer.o
 .text.xStreamBufferReset
                0x0000000000000000       0x4c build/default/production/_ext/404212886/stream_buffer.o
 .text.xStreamBufferResetFromISR
                0x0000000000000000       0x58 build/default/production/_ext/404212886/stream_buffer.o
 .text.xStreamBufferSetTriggerLevel
                0x0000000000000000       0x16 build/default/production/_ext/404212886/stream_buffer.o
 .text.xStreamBufferSpacesAvailable
                0x0000000000000000       0x1e build/default/production/_ext/404212886/stream_buffer.o
 .text.xStreamBufferBytesAvailable
                0x0000000000000000        0x8 build/default/production/_ext/404212886/stream_buffer.o
 .text.xStreamBufferSend
                0x0000000000000000       0xd0 build/default/production/_ext/404212886/stream_buffer.o
 .text.xStreamBufferSendFromISR
                0x0000000000000000       0x6a build/default/production/_ext/404212886/stream_buffer.o
 .text.xStreamBufferReceive
                0x0000000000000000       0xa8 build/default/production/_ext/404212886/stream_buffer.o
 .text.xStreamBufferNextMessageLengthBytes
                0x0000000000000000       0x30 build/default/production/_ext/404212886/stream_buffer.o
 .text.xStreamBufferReceiveFromISR
                0x0000000000000000       0x5c build/default/production/_ext/404212886/stream_buffer.o
 .text.xStreamBufferIsEmpty
                0x0000000000000000        0xc build/default/production/_ext/404212886/stream_buffer.o
 .text.xStreamBufferIsFull
                0x0000000000000000       0x18 build/default/production/_ext/404212886/stream_buffer.o
 .text.xStreamBufferSendCompletedFromISR
                0x0000000000000000       0x36 build/default/production/_ext/404212886/stream_buffer.o
 .text.xStreamBufferReceiveCompletedFromISR
                0x0000000000000000       0x36 build/default/production/_ext/404212886/stream_buffer.o
 .text.uxStreamBufferGetStreamBufferNotificationIndex
                0x0000000000000000        0x4 build/default/production/_ext/404212886/stream_buffer.o
 .text.vStreamBufferSetStreamBufferNotificationIndex
                0x0000000000000000        0x4 build/default/production/_ext/404212886/stream_buffer.o
 .debug_info    0x0000000000000000     0x174c build/default/production/_ext/404212886/stream_buffer.o
 .debug_abbrev  0x0000000000000000      0x2a4 build/default/production/_ext/404212886/stream_buffer.o
 .debug_loc     0x0000000000000000     0x1b47 build/default/production/_ext/404212886/stream_buffer.o
 .debug_aranges
                0x0000000000000000       0xd0 build/default/production/_ext/404212886/stream_buffer.o
 .debug_ranges  0x0000000000000000       0xe0 build/default/production/_ext/404212886/stream_buffer.o
 .debug_line    0x0000000000000000      0xbaa build/default/production/_ext/404212886/stream_buffer.o
 .debug_str     0x0000000000000000      0xa49 build/default/production/_ext/404212886/stream_buffer.o
 .comment       0x0000000000000000       0x2c build/default/production/_ext/404212886/stream_buffer.o
 .debug_frame   0x0000000000000000      0x28c build/default/production/_ext/404212886/stream_buffer.o
 .ARM.attributes
                0x0000000000000000       0x2c build/default/production/_ext/404212886/stream_buffer.o
 .text          0x0000000000000000        0x0 build/default/production/_ext/1360937237/freertos_daemon.o
 .data          0x0000000000000000        0x0 build/default/production/_ext/1360937237/freertos_daemon.o
 .bss           0x0000000000000000        0x0 build/default/production/_ext/1360937237/freertos_daemon.o
 .text          0x0000000000000000        0x0 build/default/production/_ext/221583569/my_spi_func.o
 .data          0x0000000000000000        0x0 build/default/production/_ext/221583569/my_spi_func.o
 .bss           0x0000000000000000        0x0 build/default/production/_ext/221583569/my_spi_func.o
 .debug_line    0x0000000000000000        0x0 build/default/production/_ext/221583569/my_spi_func.o
 .debug_str     0x0000000000000000      0x1eb build/default/production/_ext/221583569/my_spi_func.o
 .comment       0x0000000000000000       0x2c build/default/production/_ext/221583569/my_spi_func.o
 .ARM.attributes
                0x0000000000000000       0x32 build/default/production/_ext/221583569/my_spi_func.o
 .text          0x0000000000000000        0x0 build/default/production/_ext/1096015630/CRC.o
 .data          0x0000000000000000        0x0 build/default/production/_ext/1096015630/CRC.o
 .bss           0x0000000000000000        0x0 build/default/production/_ext/1096015630/CRC.o
 .text.flipBitsInBytes
                0x0000000000000000       0x44 build/default/production/_ext/1096015630/CRC.o
 .text.tmc_fillCRC8Table
                0x0000000000000000       0xdc build/default/production/_ext/1096015630/CRC.o
 .text.tmc_CRC8
                0x0000000000000000       0x70 build/default/production/_ext/1096015630/CRC.o
 .text.tmc_tableGetPolynomial
                0x0000000000000000       0x20 build/default/production/_ext/1096015630/CRC.o
 .text.tmc_tableIsReflected
                0x0000000000000000       0x20 build/default/production/_ext/1096015630/CRC.o
 .bss.CRCTables
                0x0000000000000000      0x204 build/default/production/_ext/1096015630/CRC.o
 .debug_info    0x0000000000000000      0x377 build/default/production/_ext/1096015630/CRC.o
 .debug_abbrev  0x0000000000000000      0x1c0 build/default/production/_ext/1096015630/CRC.o
 .debug_loc     0x0000000000000000      0x5ea build/default/production/_ext/1096015630/CRC.o
 .debug_aranges
                0x0000000000000000       0x40 build/default/production/_ext/1096015630/CRC.o
 .debug_ranges  0x0000000000000000       0x78 build/default/production/_ext/1096015630/CRC.o
 .debug_line    0x0000000000000000      0x2b8 build/default/production/_ext/1096015630/CRC.o
 .debug_str     0x0000000000000000      0x367 build/default/production/_ext/1096015630/CRC.o
 .comment       0x0000000000000000       0x2c build/default/production/_ext/1096015630/CRC.o
 .debug_frame   0x0000000000000000       0x7c build/default/production/_ext/1096015630/CRC.o
 .ARM.attributes
                0x0000000000000000       0x2c build/default/production/_ext/1096015630/CRC.o
 .text          0x0000000000000000        0x0 build/default/production/_ext/1096015630/Functions.o
 .data          0x0000000000000000        0x0 build/default/production/_ext/1096015630/Functions.o
 .bss           0x0000000000000000        0x0 build/default/production/_ext/1096015630/Functions.o
 .text.tmc_limitInt
                0x0000000000000000       0x10 build/default/production/_ext/1096015630/Functions.o
 .text.tmc_limitS64
                0x0000000000000000       0x26 build/default/production/_ext/1096015630/Functions.o
 .text.tmc_sqrti
                0x0000000000000000      0x138 build/default/production/_ext/1096015630/Functions.o
 .text.tmc_filterPT1
                0x0000000000000000       0x3a build/default/production/_ext/1096015630/Functions.o
 .rodata.sqrttable
                0x0000000000000000      0x100 build/default/production/_ext/1096015630/Functions.o
 .debug_info    0x0000000000000000      0x23f build/default/production/_ext/1096015630/Functions.o
 .debug_abbrev  0x0000000000000000      0x124 build/default/production/_ext/1096015630/Functions.o
 .debug_loc     0x0000000000000000      0x390 build/default/production/_ext/1096015630/Functions.o
 .debug_aranges
                0x0000000000000000       0x38 build/default/production/_ext/1096015630/Functions.o
 .debug_ranges  0x0000000000000000       0x28 build/default/production/_ext/1096015630/Functions.o
 .debug_line    0x0000000000000000      0x2b7 build/default/production/_ext/1096015630/Functions.o
 .debug_str     0x0000000000000000      0x319 build/default/production/_ext/1096015630/Functions.o
 .comment       0x0000000000000000       0x2c build/default/production/_ext/1096015630/Functions.o
 .debug_frame   0x0000000000000000       0x74 build/default/production/_ext/1096015630/Functions.o
 .ARM.attributes
                0x0000000000000000       0x2c build/default/production/_ext/1096015630/Functions.o
 .text          0x0000000000000000        0x0 build/default/production/_ext/1433801640/TMC4671.o
 .data          0x0000000000000000        0x0 build/default/production/_ext/1433801640/TMC4671.o
 .bss           0x0000000000000000        0x0 build/default/production/_ext/1433801640/TMC4671.o
 .text.tmc4671_readInt
                0x0000000000000000       0xb2 build/default/production/_ext/1433801640/TMC4671.o
 .text.tmc4671_writeInt
                0x0000000000000000       0xa6 build/default/production/_ext/1433801640/TMC4671.o
 .text.tmc4671_readRegister16BitValue
                0x0000000000000000       0x1e build/default/production/_ext/1433801640/TMC4671.o
 .text.tmc4671_writeRegister16BitValue
                0x0000000000000000       0x34 build/default/production/_ext/1433801640/TMC4671.o
 .text.tmc4671_switchToMotionMode
                0x0000000000000000       0x1e build/default/production/_ext/1433801640/TMC4671.o
 .text.tmc4671_setTargetTorque_raw
                0x0000000000000000       0x1a build/default/production/_ext/1433801640/TMC4671.o
 .text.tmc4671_getTargetTorque_raw
                0x0000000000000000       0x2e build/default/production/_ext/1433801640/TMC4671.o
 .text.tmc4671_getActualTorque_raw
                0x0000000000000000        0xc build/default/production/_ext/1433801640/TMC4671.o
 .text.tmc4671_getActualRampTorque_raw
                0x0000000000000000        0x4 build/default/production/_ext/1433801640/TMC4671.o
 .text.tmc4671_setTargetTorque_mA
                0x0000000000000000       0x24 build/default/production/_ext/1433801640/TMC4671.o
 .text.tmc4671_getTargetTorque_mA
                0x0000000000000000       0x16 build/default/production/_ext/1433801640/TMC4671.o
 .text.tmc4671_getActualTorque_mA
                0x0000000000000000       0x16 build/default/production/_ext/1433801640/TMC4671.o
 .text.tmc4671_getTargetTorqueFluxSum_mA
                0x0000000000000000       0x54 build/default/production/_ext/1433801640/TMC4671.o
 .text.tmc4671_getActualTorqueFluxSum_mA
                0x0000000000000000       0x1e build/default/production/_ext/1433801640/TMC4671.o
 .text.tmc4671_getActualRampTorque_mA
                0x0000000000000000        0x4 build/default/production/_ext/1433801640/TMC4671.o
 .text.tmc4671_setTargetFlux_raw
                0x0000000000000000        0xe build/default/production/_ext/1433801640/TMC4671.o
 .text.tmc4671_getTargetFlux_raw
                0x0000000000000000       0x2e build/default/production/_ext/1433801640/TMC4671.o
 .text.tmc4671_getActualFlux_raw
                0x0000000000000000        0xc build/default/production/_ext/1433801640/TMC4671.o
 .text.tmc4671_setTargetFlux_mA
                0x0000000000000000       0x18 build/default/production/_ext/1433801640/TMC4671.o
 .text.tmc4671_getTargetFlux_mA
                0x0000000000000000       0x16 build/default/production/_ext/1433801640/TMC4671.o
 .text.tmc4671_getActualFlux_mA
                0x0000000000000000       0x16 build/default/production/_ext/1433801640/TMC4671.o
 .text.tmc4671_setTorqueFluxLimit_mA
                0x0000000000000000       0x18 build/default/production/_ext/1433801640/TMC4671.o
 .text.tmc4671_getTorqueFluxLimit_mA
                0x0000000000000000       0x1c build/default/production/_ext/1433801640/TMC4671.o
 .text.tmc4671_setTargetVelocity
                0x0000000000000000       0x18 build/default/production/_ext/1433801640/TMC4671.o
 .text.tmc4671_getTargetVelocity
                0x0000000000000000        0xa build/default/production/_ext/1433801640/TMC4671.o
 .text.tmc4671_getActualVelocity
                0x0000000000000000        0xa build/default/production/_ext/1433801640/TMC4671.o
 .text.tmc4671_getActualRampVelocity
                0x0000000000000000        0xa build/default/production/_ext/1433801640/TMC4671.o
 .text.tmc4671_setVelocityLimit
                0x0000000000000000        0xc build/default/production/_ext/1433801640/TMC4671.o
 .text.tmc4671_getVelocityLimit
                0x0000000000000000        0xa build/default/production/_ext/1433801640/TMC4671.o
 .text.tmc4671_setVelocityTarget
                0x0000000000000000        0xc build/default/production/_ext/1433801640/TMC4671.o
 .text.tmc4671_getVelocityTarget
                0x0000000000000000        0xa build/default/production/_ext/1433801640/TMC4671.o
 .text.tmc4671_setAbsolutTargetPosition
                0x0000000000000000        0xc build/default/production/_ext/1433801640/TMC4671.o
 .text.tmc4671_setRelativeTargetPosition
                0x0000000000000000       0x20 build/default/production/_ext/1433801640/TMC4671.o
 .text.tmc4671_getTargetPosition
                0x0000000000000000        0xa build/default/production/_ext/1433801640/TMC4671.o
 .text.tmc4671_getErrorPosition
                0x0000000000000000       0x16 build/default/production/_ext/1433801640/TMC4671.o
 .text.tmc4671_setActualPosition
                0x0000000000000000        0xc build/default/production/_ext/1433801640/TMC4671.o
 .text.tmc4671_getActualPosition
                0x0000000000000000        0xa build/default/production/_ext/1433801640/TMC4671.o
 .text.tmc4671_getActualRampPosition
                0x0000000000000000        0xa build/default/production/_ext/1433801640/TMC4671.o
 .text.tmc4671_setModeMotion
                0x0000000000000000        0xc build/default/production/_ext/1433801640/TMC4671.o
 .text.tmc4671_getModeMotion
                0x0000000000000000        0xa build/default/production/_ext/1433801640/TMC4671.o
 .text.tmc4671_doEncoderInitializationMode0
                0x0000000000000000       0xde build/default/production/_ext/1433801640/TMC4671.o
 .text.tmc4671_getS16CircleDifference
                0x0000000000000000        0x6 build/default/production/_ext/1433801640/TMC4671.o
 .text.tmc4671_doEncoderInitializationMode2
                0x0000000000000000       0xf4 build/default/production/_ext/1433801640/TMC4671.o
 .text.tmc4671_checkEncderInitialization
                0x0000000000000000       0x64 build/default/production/_ext/1433801640/TMC4671.o
 .text.tmc4671_periodicJob
                0x0000000000000000       0x34 build/default/production/_ext/1433801640/TMC4671.o
 .text.tmc4671_startEncoderInitialization
                0x0000000000000000       0x20 build/default/production/_ext/1433801640/TMC4671.o
 .text.tmc4671_updatePhiSelectionAndInitialize
                0x0000000000000000       0x2c build/default/production/_ext/1433801640/TMC4671.o
 .text.tmc4671_disablePWM
                0x0000000000000000        0xc build/default/production/_ext/1433801640/TMC4671.o
 .text.tmc4671_getMotorType
                0x0000000000000000        0xe build/default/production/_ext/1433801640/TMC4671.o
 .text.tmc4671_setMotorType
                0x0000000000000000       0x24 build/default/production/_ext/1433801640/TMC4671.o
 .text.tmc4671_getPolePairs
                0x0000000000000000        0xc build/default/production/_ext/1433801640/TMC4671.o
 .text.tmc4671_setPolePairs
                0x0000000000000000       0x1c build/default/production/_ext/1433801640/TMC4671.o
 .text.tmc4671_getAdcI0Offset
                0x0000000000000000        0xc build/default/production/_ext/1433801640/TMC4671.o
 .text.tmc4671_setAdcI0Offset
                0x0000000000000000       0x1c build/default/production/_ext/1433801640/TMC4671.o
 .text.tmc4671_getAdcI1Offset
                0x0000000000000000        0xc build/default/production/_ext/1433801640/TMC4671.o
 .text.tmc4671_setAdcI1Offset
                0x0000000000000000       0x1c build/default/production/_ext/1433801640/TMC4671.o
 .text.tmc4671_setTorqueFluxPI
                0x0000000000000000       0x1e build/default/production/_ext/1433801640/TMC4671.o
 .text.tmc4671_setTorquePI
                0x0000000000000000        0xe build/default/production/_ext/1433801640/TMC4671.o
 .text.tmc4671_setFluxPI
                0x0000000000000000        0xe build/default/production/_ext/1433801640/TMC4671.o
 .text.tmc4671_setVelocityPI
                0x0000000000000000        0xe build/default/production/_ext/1433801640/TMC4671.o
 .text.tmc4671_setPositionPI
                0x0000000000000000        0xe build/default/production/_ext/1433801640/TMC4671.o
 .text.tmc4671_readFieldWithDependency
                0x0000000000000000       0x40 build/default/production/_ext/1433801640/TMC4671.o
 .bss.lastSystick.9945
                0x0000000000000000        0x4 build/default/production/_ext/1433801640/TMC4671.o
 .debug_info    0x0000000000000000     0x3d35 build/default/production/_ext/1433801640/TMC4671.o
 .debug_abbrev  0x0000000000000000      0x4c4 build/default/production/_ext/1433801640/TMC4671.o
 .debug_loc     0x0000000000000000     0x2824 build/default/production/_ext/1433801640/TMC4671.o
 .debug_aranges
                0x0000000000000000      0x208 build/default/production/_ext/1433801640/TMC4671.o
 .debug_ranges  0x0000000000000000      0x278 build/default/production/_ext/1433801640/TMC4671.o
 .debug_line    0x0000000000000000      0xde7 build/default/production/_ext/1433801640/TMC4671.o
 .debug_str     0x0000000000000000     0x1928 build/default/production/_ext/1433801640/TMC4671.o
 .comment       0x0000000000000000       0x2c build/default/production/_ext/1433801640/TMC4671.o
 .debug_frame   0x0000000000000000      0x650 build/default/production/_ext/1433801640/TMC4671.o
 .ARM.attributes
                0x0000000000000000       0x2c build/default/production/_ext/1433801640/TMC4671.o
 .text          0x0000000000000000        0x0 build/default/production/_ext/33404887/LinearRamp.o
 .data          0x0000000000000000        0x0 build/default/production/_ext/33404887/LinearRamp.o
 .bss           0x0000000000000000        0x0 build/default/production/_ext/33404887/LinearRamp.o
 .text.tmc_linearRamp_init
                0x0000000000000000       0x1c build/default/production/_ext/33404887/LinearRamp.o
 .text.tmc_linearRamp_computeRampVelocity
                0x0000000000000000       0x90 build/default/production/_ext/33404887/LinearRamp.o
 .text.tmc_linearRamp_computeRampPosition
                0x0000000000000000      0x198 build/default/production/_ext/33404887/LinearRamp.o
 .debug_info    0x0000000000000000      0x366 build/default/production/_ext/33404887/LinearRamp.o
 .debug_abbrev  0x0000000000000000      0x14d build/default/production/_ext/33404887/LinearRamp.o
 .debug_loc     0x0000000000000000      0x39d build/default/production/_ext/33404887/LinearRamp.o
 .debug_aranges
                0x0000000000000000       0x30 build/default/production/_ext/33404887/LinearRamp.o
 .debug_ranges  0x0000000000000000       0x38 build/default/production/_ext/33404887/LinearRamp.o
 .debug_line    0x0000000000000000      0x341 build/default/production/_ext/33404887/LinearRamp.o
 .debug_str     0x0000000000000000      0x453 build/default/production/_ext/33404887/LinearRamp.o
 .comment       0x0000000000000000       0x2c build/default/production/_ext/33404887/LinearRamp.o
 .debug_frame   0x0000000000000000       0x6c build/default/production/_ext/33404887/LinearRamp.o
 .ARM.attributes
                0x0000000000000000       0x2c build/default/production/_ext/33404887/LinearRamp.o
 .text          0x0000000000000000        0x0 build/default/production/_ext/33404887/LinearRamp1.o
 .data          0x0000000000000000        0x0 build/default/production/_ext/33404887/LinearRamp1.o
 .bss           0x0000000000000000        0x0 build/default/production/_ext/33404887/LinearRamp1.o
 .text.tmc_ramp_linear_init
                0x0000000000000000       0x2a build/default/production/_ext/33404887/LinearRamp1.o
 .text.tmc_ramp_linear_set_enabled
                0x0000000000000000        0x4 build/default/production/_ext/33404887/LinearRamp1.o
 .text.tmc_ramp_linear_set_maxVelocity
                0x0000000000000000        0x4 build/default/production/_ext/33404887/LinearRamp1.o
 .text.tmc_ramp_linear_set_targetPosition
                0x0000000000000000        0x4 build/default/production/_ext/33404887/LinearRamp1.o
 .text.tmc_ramp_linear_set_rampPosition
                0x0000000000000000        0x4 build/default/production/_ext/33404887/LinearRamp1.o
 .text.tmc_ramp_linear_set_targetVelocity
                0x0000000000000000        0x4 build/default/production/_ext/33404887/LinearRamp1.o
 .text.tmc_ramp_linear_set_rampVelocity
                0x0000000000000000        0x4 build/default/production/_ext/33404887/LinearRamp1.o
 .text.tmc_ramp_linear_set_acceleration
                0x0000000000000000        0x4 build/default/production/_ext/33404887/LinearRamp1.o
 .text.tmc_ramp_linear_set_mode
                0x0000000000000000        0x6 build/default/production/_ext/33404887/LinearRamp1.o
 .text.tmc_ramp_linear_set_precision
                0x0000000000000000        0x4 build/default/production/_ext/33404887/LinearRamp1.o
 .text.tmc_ramp_linear_set_homingDistance
                0x0000000000000000        0x4 build/default/production/_ext/33404887/LinearRamp1.o
 .text.tmc_ramp_linear_set_stopVelocity
                0x0000000000000000        0x4 build/default/production/_ext/33404887/LinearRamp1.o
 .text.tmc_ramp_linear_get_enabled
                0x0000000000000000        0x4 build/default/production/_ext/33404887/LinearRamp1.o
 .text.tmc_ramp_linear_get_maxVelocity
                0x0000000000000000        0x4 build/default/production/_ext/33404887/LinearRamp1.o
 .text.tmc_ramp_linear_get_targetPosition
                0x0000000000000000        0x4 build/default/production/_ext/33404887/LinearRamp1.o
 .text.tmc_ramp_linear_get_rampPosition
                0x0000000000000000        0x4 build/default/production/_ext/33404887/LinearRamp1.o
 .text.tmc_ramp_linear_get_targetVelocity
                0x0000000000000000        0x4 build/default/production/_ext/33404887/LinearRamp1.o
 .text.tmc_ramp_linear_get_rampVelocity
                0x0000000000000000        0x4 build/default/production/_ext/33404887/LinearRamp1.o
 .text.tmc_ramp_linear_get_acceleration
                0x0000000000000000        0x4 build/default/production/_ext/33404887/LinearRamp1.o
 .text.tmc_ramp_linear_get_state
                0x0000000000000000        0x6 build/default/production/_ext/33404887/LinearRamp1.o
 .text.tmc_ramp_linear_get_mode
                0x0000000000000000        0x6 build/default/production/_ext/33404887/LinearRamp1.o
 .text.tmc_ramp_linear_get_precision
                0x0000000000000000        0x4 build/default/production/_ext/33404887/LinearRamp1.o
 .text.tmc_ramp_linear_get_acceleration_limit
                0x0000000000000000       0x12 build/default/production/_ext/33404887/LinearRamp1.o
 .text.tmc_ramp_linear_get_velocity_limit
                0x0000000000000000        0x4 build/default/production/_ext/33404887/LinearRamp1.o
 .text.tmc_ramp_linear_get_homingDistance
                0x0000000000000000        0x4 build/default/production/_ext/33404887/LinearRamp1.o
 .text.tmc_ramp_linear_get_stopVelocity
                0x0000000000000000        0x4 build/default/production/_ext/33404887/LinearRamp1.o
 .text.tmc_ramp_linear_compute_velocity
                0x0000000000000000       0xcc build/default/production/_ext/33404887/LinearRamp1.o
 .text.tmc_ramp_linear_compute_position
                0x0000000000000000       0xee build/default/production/_ext/33404887/LinearRamp1.o
 .text.tmc_ramp_linear_compute
                0x0000000000000000       0x10 build/default/production/_ext/33404887/LinearRamp1.o
 .debug_info    0x0000000000000000      0x851 build/default/production/_ext/33404887/LinearRamp1.o
 .debug_abbrev  0x0000000000000000      0x1b5 build/default/production/_ext/33404887/LinearRamp1.o
 .debug_loc     0x0000000000000000      0x431 build/default/production/_ext/33404887/LinearRamp1.o
 .debug_aranges
                0x0000000000000000      0x100 build/default/production/_ext/33404887/LinearRamp1.o
 .debug_ranges  0x0000000000000000       0xf0 build/default/production/_ext/33404887/LinearRamp1.o
 .debug_line    0x0000000000000000      0x624 build/default/production/_ext/33404887/LinearRamp1.o
 .debug_str     0x0000000000000000      0x7fb build/default/production/_ext/33404887/LinearRamp1.o
 .comment       0x0000000000000000       0x2c build/default/production/_ext/33404887/LinearRamp1.o
 .debug_frame   0x0000000000000000      0x210 build/default/production/_ext/33404887/LinearRamp1.o
 .ARM.attributes
                0x0000000000000000       0x2c build/default/production/_ext/33404887/LinearRamp1.o
 .text          0x0000000000000000        0x0 build/default/production/_ext/33404887/Ramp.o
 .data          0x0000000000000000        0x0 build/default/production/_ext/33404887/Ramp.o
 .bss           0x0000000000000000        0x0 build/default/production/_ext/33404887/Ramp.o
 .text.tmc_ramp_init
                0x0000000000000000        0x8 build/default/production/_ext/33404887/Ramp.o
 .text.tmc_ramp_compute
                0x0000000000000000       0x22 build/default/production/_ext/33404887/Ramp.o
 .text.tmc_ramp_get_rampVelocity
                0x0000000000000000       0x14 build/default/production/_ext/33404887/Ramp.o
 .text.tmc_ramp_get_rampPosition
                0x0000000000000000       0x14 build/default/production/_ext/33404887/Ramp.o
 .text.tmc_ramp_get_enabled
                0x0000000000000000       0x14 build/default/production/_ext/33404887/Ramp.o
 .text.tmc_ramp_set_enabled
                0x0000000000000000        0xa build/default/production/_ext/33404887/Ramp.o
 .text.tmc_ramp_toggle_enabled
                0x0000000000000000       0x16 build/default/production/_ext/33404887/Ramp.o
 .debug_info    0x0000000000000000      0x54a build/default/production/_ext/33404887/Ramp.o
 .debug_abbrev  0x0000000000000000      0x146 build/default/production/_ext/33404887/Ramp.o
 .debug_loc     0x0000000000000000      0x52e build/default/production/_ext/33404887/Ramp.o
 .debug_aranges
                0x0000000000000000       0x50 build/default/production/_ext/33404887/Ramp.o
 .debug_ranges  0x0000000000000000       0x40 build/default/production/_ext/33404887/Ramp.o
 .debug_line    0x0000000000000000      0x1df build/default/production/_ext/33404887/Ramp.o
 .debug_str     0x0000000000000000      0x5b2 build/default/production/_ext/33404887/Ramp.o
 .comment       0x0000000000000000       0x2c build/default/production/_ext/33404887/Ramp.o
 .debug_frame   0x0000000000000000       0xc0 build/default/production/_ext/33404887/Ramp.o
 .ARM.attributes
                0x0000000000000000       0x2c build/default/production/_ext/33404887/Ramp.o
 .text          0x0000000000000000        0x0 build/default/production/_ext/2089947380/Step_Counter.o
 .data          0x0000000000000000        0x0 build/default/production/_ext/2089947380/Step_Counter.o
 .bss           0x0000000000000000        0x0 build/default/production/_ext/2089947380/Step_Counter.o
 .text.index_Interrupt_Callback
                0x0000000000000000       0x24 build/default/production/_ext/2089947380/Step_Counter.o
 .text.us_per_sec_to_rps
                0x0000000000000000       0x1c build/default/production/_ext/2089947380/Step_Counter.o
 .text.rps_to_us_per_sec
                0x0000000000000000       0x1c build/default/production/_ext/2089947380/Step_Counter.o
 .text.read_TMC2209_mscnt
                0x0000000000000000        0xe build/default/production/_ext/2089947380/Step_Counter.o
 .text.update_TMC2209_Step_Tracking
                0x0000000000000000       0xcc build/default/production/_ext/2089947380/Step_Counter.o
 .text.check_tmc2209_move_done
                0x0000000000000000        0x2 build/default/production/_ext/2089947380/Step_Counter.o
 .text.tmc2209_set_velocity
                0x0000000000000000       0x2a build/default/production/_ext/2089947380/Step_Counter.o
 .rodata.update_TMC2209_Step_Tracking.str1.4
                0x0000000000000000       0x34 build/default/production/_ext/2089947380/Step_Counter.o
 .debug_info    0x0000000000000000     0x1b75 build/default/production/_ext/2089947380/Step_Counter.o
 .debug_abbrev  0x0000000000000000      0x352 build/default/production/_ext/2089947380/Step_Counter.o
 .debug_loc     0x0000000000000000      0x342 build/default/production/_ext/2089947380/Step_Counter.o
 .debug_aranges
                0x0000000000000000       0x50 build/default/production/_ext/2089947380/Step_Counter.o
 .debug_ranges  0x0000000000000000       0x58 build/default/production/_ext/2089947380/Step_Counter.o
 .debug_line    0x0000000000000000      0x3a8 build/default/production/_ext/2089947380/Step_Counter.o
 .debug_str     0x0000000000000000     0x136a build/default/production/_ext/2089947380/Step_Counter.o
 .comment       0x0000000000000000       0x2c build/default/production/_ext/2089947380/Step_Counter.o
 .debug_frame   0x0000000000000000       0xb0 build/default/production/_ext/2089947380/Step_Counter.o
 .ARM.attributes
                0x0000000000000000       0x2c build/default/production/_ext/2089947380/Step_Counter.o
 .text          0x0000000000000000        0x0 build/default/production/_ext/2089947380/TMC2209.o
 .data          0x0000000000000000        0x0 build/default/production/_ext/2089947380/TMC2209.o
 .bss           0x0000000000000000        0x0 build/default/production/_ext/2089947380/TMC2209.o
 .text.CRC8     0x0000000000000000       0x4c build/default/production/_ext/2089947380/TMC2209.o
 .text.tmc2209_setDirtyBit
                0x0000000000000000       0x2c build/default/production/_ext/2089947380/TMC2209.o
 .text.tmc2209_getDirtyBit
                0x0000000000000000       0x28 build/default/production/_ext/2089947380/TMC2209.o
 .text.tmc2209_cache
                0x0000000000000000       0x58 build/default/production/_ext/2089947380/TMC2209.o
 .text.tmc2209_UART_write
                0x0000000000000000       0x22 build/default/production/_ext/2089947380/TMC2209.o
 .text.tmc2209_UART_read
                0x0000000000000000       0x34 build/default/production/_ext/2089947380/TMC2209.o
 .text.readRegisterUART
                0x0000000000000000      0x128 build/default/production/_ext/2089947380/TMC2209.o
 .text.tmc2209_readRegister
                0x0000000000000000        0x8 build/default/production/_ext/2089947380/TMC2209.o
 .text.writeRegisterUART
                0x0000000000000000       0x6a build/default/production/_ext/2089947380/TMC2209.o
 .text.tmc2209_writeRegister
                0x0000000000000000        0x8 build/default/production/_ext/2089947380/TMC2209.o
 .bss.tmc2209_dirtyBits
                0x0000000000000000       0x10 build/default/production/_ext/2089947380/TMC2209.o
 .bss.tmc2209_read_flag
                0x0000000000000000        0x1 build/default/production/_ext/2089947380/TMC2209.o
 .rodata.readRegisterUART.str1.4
                0x0000000000000000       0xa0 build/default/production/_ext/2089947380/TMC2209.o
 .rodata.tmc2209_UART_read.str1.4
                0x0000000000000000       0x20 build/default/production/_ext/2089947380/TMC2209.o
 .rodata.tmc2209_registerAccess
                0x0000000000000000       0x80 build/default/production/_ext/2089947380/TMC2209.o
 .rodata.tmcCRCTable_Poly7Reflected
                0x0000000000000000      0x100 build/default/production/_ext/2089947380/TMC2209.o
 .debug_info    0x0000000000000000      0xb43 build/default/production/_ext/2089947380/TMC2209.o
 .debug_abbrev  0x0000000000000000      0x24d build/default/production/_ext/2089947380/TMC2209.o
 .debug_loc     0x0000000000000000      0x8bf build/default/production/_ext/2089947380/TMC2209.o
 .debug_aranges
                0x0000000000000000       0x68 build/default/production/_ext/2089947380/TMC2209.o
 .debug_ranges  0x0000000000000000       0x58 build/default/production/_ext/2089947380/TMC2209.o
 .debug_line    0x0000000000000000      0x52e build/default/production/_ext/2089947380/TMC2209.o
 .debug_str     0x0000000000000000      0x567 build/default/production/_ext/2089947380/TMC2209.o
 .comment       0x0000000000000000       0x2c build/default/production/_ext/2089947380/TMC2209.o
 .debug_frame   0x0000000000000000      0x11c build/default/production/_ext/2089947380/TMC2209.o
 .ARM.attributes
                0x0000000000000000       0x2c build/default/production/_ext/2089947380/TMC2209.o
 COMMON         0x0000000000000000      0x200 build/default/production/_ext/2089947380/TMC2209.o
 .text          0x0000000000000000        0x0 build/default/production/_ext/2089947380/TMC2209_motion.o
 .data          0x0000000000000000        0x0 build/default/production/_ext/2089947380/TMC2209_motion.o
 .bss           0x0000000000000000        0x0 build/default/production/_ext/2089947380/TMC2209_motion.o
 .text.config_IOXP
                0x0000000000000000       0x14 build/default/production/_ext/2089947380/TMC2209_motion.o
 .debug_info    0x0000000000000000      0x141 build/default/production/_ext/2089947380/TMC2209_motion.o
 .debug_abbrev  0x0000000000000000       0x9c build/default/production/_ext/2089947380/TMC2209_motion.o
 .debug_loc     0x0000000000000000       0x20 build/default/production/_ext/2089947380/TMC2209_motion.o
 .debug_aranges
                0x0000000000000000       0x20 build/default/production/_ext/2089947380/TMC2209_motion.o
 .debug_ranges  0x0000000000000000       0x10 build/default/production/_ext/2089947380/TMC2209_motion.o
 .debug_line    0x0000000000000000       0x90 build/default/production/_ext/2089947380/TMC2209_motion.o
 .debug_str     0x0000000000000000      0x377 build/default/production/_ext/2089947380/TMC2209_motion.o
 .comment       0x0000000000000000       0x2c build/default/production/_ext/2089947380/TMC2209_motion.o
 .debug_frame   0x0000000000000000       0x28 build/default/production/_ext/2089947380/TMC2209_motion.o
 .ARM.attributes
                0x0000000000000000       0x2c build/default/production/_ext/2089947380/TMC2209_motion.o
 .text          0x0000000000000000        0x0 build/default/production/_ext/2089947380/TMC2209_Simple_Rotation.o
 .data          0x0000000000000000        0x0 build/default/production/_ext/2089947380/TMC2209_Simple_Rotation.o
 .bss           0x0000000000000000        0x0 build/default/production/_ext/2089947380/TMC2209_Simple_Rotation.o
 .text.init_tmc2209_motor
                0x0000000000000000       0x58 build/default/production/_ext/2089947380/TMC2209_Simple_Rotation.o
 .text.move_guide_motor
                0x0000000000000000       0x74 build/default/production/_ext/2089947380/TMC2209_Simple_Rotation.o
 .text.read_Init_Registers
                0x0000000000000000       0x4c build/default/production/_ext/2089947380/TMC2209_Simple_Rotation.o
 .rodata.init_tmc2209_motor.str1.4
                0x0000000000000000       0x24 build/default/production/_ext/2089947380/TMC2209_Simple_Rotation.o
 .rodata.move_guide_motor.str1.4
                0x0000000000000000       0x30 build/default/production/_ext/2089947380/TMC2209_Simple_Rotation.o
 .rodata.read_Init_Registers.str1.4
                0x0000000000000000       0x50 build/default/production/_ext/2089947380/TMC2209_Simple_Rotation.o
 .debug_info    0x0000000000000000     0x1b2d build/default/production/_ext/2089947380/TMC2209_Simple_Rotation.o
 .debug_abbrev  0x0000000000000000      0x294 build/default/production/_ext/2089947380/TMC2209_Simple_Rotation.o
 .debug_loc     0x0000000000000000      0x1b7 build/default/production/_ext/2089947380/TMC2209_Simple_Rotation.o
 .debug_aranges
                0x0000000000000000       0x30 build/default/production/_ext/2089947380/TMC2209_Simple_Rotation.o
 .debug_ranges  0x0000000000000000       0x20 build/default/production/_ext/2089947380/TMC2209_Simple_Rotation.o
 .debug_line    0x0000000000000000      0x28b build/default/production/_ext/2089947380/TMC2209_Simple_Rotation.o
 .debug_str     0x0000000000000000     0x1160 build/default/production/_ext/2089947380/TMC2209_Simple_Rotation.o
 .comment       0x0000000000000000       0x2c build/default/production/_ext/2089947380/TMC2209_Simple_Rotation.o
 .debug_frame   0x0000000000000000       0x68 build/default/production/_ext/2089947380/TMC2209_Simple_Rotation.o
 .ARM.attributes
                0x0000000000000000       0x2c build/default/production/_ext/2089947380/TMC2209_Simple_Rotation.o
 .text          0x0000000000000000        0x0 build/default/production/_ext/1360937237/main.o
 .data          0x0000000000000000        0x0 build/default/production/_ext/1360937237/main.o
 .bss           0x0000000000000000        0x0 build/default/production/_ext/1360937237/main.o
 .text          0x0000000000000000        0x0 build/default/production/_ext/1360937237/Global_Vars.o
 .data          0x0000000000000000        0x0 build/default/production/_ext/1360937237/Global_Vars.o
 .bss           0x0000000000000000        0x0 build/default/production/_ext/1360937237/Global_Vars.o
 .debug_info    0x0000000000000000     0x11a3 build/default/production/_ext/1360937237/Global_Vars.o
 .debug_abbrev  0x0000000000000000      0x174 build/default/production/_ext/1360937237/Global_Vars.o
 .debug_aranges
                0x0000000000000000       0x18 build/default/production/_ext/1360937237/Global_Vars.o
 .debug_line    0x0000000000000000       0x7c build/default/production/_ext/1360937237/Global_Vars.o
 .debug_str     0x0000000000000000      0xe52 build/default/production/_ext/1360937237/Global_Vars.o
 .comment       0x0000000000000000       0x2c build/default/production/_ext/1360937237/Global_Vars.o
 .ARM.attributes
                0x0000000000000000       0x32 build/default/production/_ext/1360937237/Global_Vars.o
 .text          0x0000000000000000        0x0 build/default/production/_ext/1360937237/health_task.o
 .data          0x0000000000000000        0x0 build/default/production/_ext/1360937237/health_task.o
 .bss           0x0000000000000000        0x0 build/default/production/_ext/1360937237/health_task.o
 .text          0x0000000000000000        0x0 build/default/production/_ext/1360937237/tmc4671_motion.o
 .data          0x0000000000000000        0x0 build/default/production/_ext/1360937237/tmc4671_motion.o
 .bss           0x0000000000000000        0x0 build/default/production/_ext/1360937237/tmc4671_motion.o
 .text          0x0000000000000000        0x0 build/default/production/_ext/1360937237/tmc2209_motion.o
 .data          0x0000000000000000        0x0 build/default/production/_ext/1360937237/tmc2209_motion.o
 .bss           0x0000000000000000        0x0 build/default/production/_ext/1360937237/tmc2209_motion.o
 .text          0x0000000000000000        0x0 build/default/production/_ext/1360937237/can_task.o
 .data          0x0000000000000000        0x0 build/default/production/_ext/1360937237/can_task.o
 .bss           0x0000000000000000        0x0 build/default/production/_ext/1360937237/can_task.o
 .text          0x0000000000000000        0x0 build/default/production/_ext/1360937237/cmd_parser.o
 .data          0x0000000000000000        0x0 build/default/production/_ext/1360937237/cmd_parser.o
 .bss           0x0000000000000000        0x0 build/default/production/_ext/1360937237/cmd_parser.o
 .text          0x0000000000000000        0x0 build/default/production/_ext/1360937237/debug_logger.o
 .data          0x0000000000000000        0x0 build/default/production/_ext/1360937237/debug_logger.o
 .bss           0x0000000000000000        0x0 build/default/production/_ext/1360937237/debug_logger.o
 .text          0x0000000000000000        0x0 d:/mplab x ide/xcompilers/bin/bin/../../lib/gcc/pic32c/8.3.1/../../../../pic32c/lib/thumb/v6-m/nofp\libpic32c.a(data_init.o)
 .data          0x0000000000000000        0x0 d:/mplab x ide/xcompilers/bin/bin/../../lib/gcc/pic32c/8.3.1/../../../../pic32c/lib/thumb/v6-m/nofp\libpic32c.a(data_init.o)
 .xc_stack_usage
                0x0000000000000000       0x68 d:/mplab x ide/xcompilers/bin/bin/../../lib/gcc/pic32c/8.3.1/../../../../pic32c/lib/thumb/v6-m/nofp\libpic32c.a(data_init.o)
 .xc_stack_usage.hdr
                0x0000000000000000        0xe d:/mplab x ide/xcompilers/bin/bin/../../lib/gcc/pic32c/8.3.1/../../../../pic32c/lib/thumb/v6-m/nofp\libpic32c.a(data_init.o)
 .text          0x0000000000000000        0x0 d:/mplab x ide/xcompilers/bin/bin/../../lib/gcc/pic32c/8.3.1/../../../../pic32c/lib/thumb/v6-m/nofp\libc-size-musl.a(memcpy.o)
 .data          0x0000000000000000        0x0 d:/mplab x ide/xcompilers/bin/bin/../../lib/gcc/pic32c/8.3.1/../../../../pic32c/lib/thumb/v6-m/nofp\libc-size-musl.a(memcpy.o)
 .bss           0x0000000000000000        0x0 d:/mplab x ide/xcompilers/bin/bin/../../lib/gcc/pic32c/8.3.1/../../../../pic32c/lib/thumb/v6-m/nofp\libc-size-musl.a(memcpy.o)
 .xc_stack_usage
                0x0000000000000000       0x14 d:/mplab x ide/xcompilers/bin/bin/../../lib/gcc/pic32c/8.3.1/../../../../pic32c/lib/thumb/v6-m/nofp\libc-size-musl.a(memcpy.o)
 .xc_stack_usage.hdr
                0x0000000000000000        0xe d:/mplab x ide/xcompilers/bin/bin/../../lib/gcc/pic32c/8.3.1/../../../../pic32c/lib/thumb/v6-m/nofp\libc-size-musl.a(memcpy.o)
 .text          0x0000000000000000        0x0 d:/mplab x ide/xcompilers/bin/bin/../../lib/gcc/pic32c/8.3.1/../../../../pic32c/lib/thumb/v6-m/nofp\libc-size-musl.a(memset.o)
 .data          0x0000000000000000        0x0 d:/mplab x ide/xcompilers/bin/bin/../../lib/gcc/pic32c/8.3.1/../../../../pic32c/lib/thumb/v6-m/nofp\libc-size-musl.a(memset.o)
 .bss           0x0000000000000000        0x0 d:/mplab x ide/xcompilers/bin/bin/../../lib/gcc/pic32c/8.3.1/../../../../pic32c/lib/thumb/v6-m/nofp\libc-size-musl.a(memset.o)
 .xc_stack_usage
                0x0000000000000000       0x14 d:/mplab x ide/xcompilers/bin/bin/../../lib/gcc/pic32c/8.3.1/../../../../pic32c/lib/thumb/v6-m/nofp\libc-size-musl.a(memset.o)
 .xc_stack_usage.hdr
                0x0000000000000000        0xe d:/mplab x ide/xcompilers/bin/bin/../../lib/gcc/pic32c/8.3.1/../../../../pic32c/lib/thumb/v6-m/nofp\libc-size-musl.a(memset.o)
 .text          0x0000000000000000        0x0 d:/mplab x ide/xcompilers/bin/bin/../../lib/gcc/pic32c/8.3.1/../../../../pic32c/lib/thumb/v6-m/nofp\libc-size-musl.a(strlen.o)
 .data          0x0000000000000000        0x0 d:/mplab x ide/xcompilers/bin/bin/../../lib/gcc/pic32c/8.3.1/../../../../pic32c/lib/thumb/v6-m/nofp\libc-size-musl.a(strlen.o)
 .bss           0x0000000000000000        0x0 d:/mplab x ide/xcompilers/bin/bin/../../lib/gcc/pic32c/8.3.1/../../../../pic32c/lib/thumb/v6-m/nofp\libc-size-musl.a(strlen.o)
 .xc_stack_usage
                0x0000000000000000       0x14 d:/mplab x ide/xcompilers/bin/bin/../../lib/gcc/pic32c/8.3.1/../../../../pic32c/lib/thumb/v6-m/nofp\libc-size-musl.a(strlen.o)
 .text.strlen   0x0000000000000000       0x18 d:/mplab x ide/xcompilers/bin/bin/../../lib/gcc/pic32c/8.3.1/../../../../pic32c/lib/thumb/v6-m/nofp\libc-size-musl.a(strlen.o)
 .xc_stack_usage.hdr
                0x0000000000000000        0xe d:/mplab x ide/xcompilers/bin/bin/../../lib/gcc/pic32c/8.3.1/../../../../pic32c/lib/thumb/v6-m/nofp\libc-size-musl.a(strlen.o)
 .debug_info    0x0000000000000000       0xa4 d:/mplab x ide/xcompilers/bin/bin/../../lib/gcc/pic32c/8.3.1/../../../../pic32c/lib/thumb/v6-m/nofp\libc-size-musl.a(strlen.o)
 .debug_abbrev  0x0000000000000000       0x91 d:/mplab x ide/xcompilers/bin/bin/../../lib/gcc/pic32c/8.3.1/../../../../pic32c/lib/thumb/v6-m/nofp\libc-size-musl.a(strlen.o)
 .debug_loc     0x0000000000000000       0x81 d:/mplab x ide/xcompilers/bin/bin/../../lib/gcc/pic32c/8.3.1/../../../../pic32c/lib/thumb/v6-m/nofp\libc-size-musl.a(strlen.o)
 .debug_aranges
                0x0000000000000000       0x20 d:/mplab x ide/xcompilers/bin/bin/../../lib/gcc/pic32c/8.3.1/../../../../pic32c/lib/thumb/v6-m/nofp\libc-size-musl.a(strlen.o)
 .debug_ranges  0x0000000000000000       0x10 d:/mplab x ide/xcompilers/bin/bin/../../lib/gcc/pic32c/8.3.1/../../../../pic32c/lib/thumb/v6-m/nofp\libc-size-musl.a(strlen.o)
 .debug_line    0x0000000000000000       0xee d:/mplab x ide/xcompilers/bin/bin/../../lib/gcc/pic32c/8.3.1/../../../../pic32c/lib/thumb/v6-m/nofp\libc-size-musl.a(strlen.o)
 .debug_str     0x0000000000000000      0x217 d:/mplab x ide/xcompilers/bin/bin/../../lib/gcc/pic32c/8.3.1/../../../../pic32c/lib/thumb/v6-m/nofp\libc-size-musl.a(strlen.o)
 .comment       0x0000000000000000       0x2c d:/mplab x ide/xcompilers/bin/bin/../../lib/gcc/pic32c/8.3.1/../../../../pic32c/lib/thumb/v6-m/nofp\libc-size-musl.a(strlen.o)
 .note.GNU-stack
                0x0000000000000000        0x0 d:/mplab x ide/xcompilers/bin/bin/../../lib/gcc/pic32c/8.3.1/../../../../pic32c/lib/thumb/v6-m/nofp\libc-size-musl.a(strlen.o)
 .debug_frame   0x0000000000000000       0x20 d:/mplab x ide/xcompilers/bin/bin/../../lib/gcc/pic32c/8.3.1/../../../../pic32c/lib/thumb/v6-m/nofp\libc-size-musl.a(strlen.o)
 .ARM.attributes
                0x0000000000000000       0x2e d:/mplab x ide/xcompilers/bin/bin/../../lib/gcc/pic32c/8.3.1/../../../../pic32c/lib/thumb/v6-m/nofp\libc-size-musl.a(strlen.o)
 .ARM.attributes
                0x0000000000000000       0x1c d:/mplab x ide/xcompilers/bin/bin/../../lib/gcc/pic32c/8.3.1/../../../../pic32c/lib/thumb/v6-m/nofp\libm-fast-emfloat.a(__aeabi_fmul.o)
 .text.__aeabi_fmul
                0x0000000000000000       0xb6 d:/mplab x ide/xcompilers/bin/bin/../../lib/gcc/pic32c/8.3.1/../../../../pic32c/lib/thumb/v6-m/nofp\libm-fast-emfloat.a(__aeabi_fmul.o)
 .xc_stack_usage.hdr
                0x0000000000000000        0xe d:/mplab x ide/xcompilers/bin/bin/../../lib/gcc/pic32c/8.3.1/../../../../pic32c/lib/thumb/v6-m/nofp\libm-fast-emfloat.a(__aeabi_fmul.o)
 .xc_stack_usage
                0x0000000000000000       0x1a d:/mplab x ide/xcompilers/bin/bin/../../lib/gcc/pic32c/8.3.1/../../../../pic32c/lib/thumb/v6-m/nofp\libm-fast-emfloat.a(__aeabi_fmul.o)
 .ARM.attributes
                0x0000000000000000       0x1c d:/mplab x ide/xcompilers/bin/bin/../../lib/gcc/pic32c/8.3.1/../../../../pic32c/lib/thumb/v6-m/nofp\libm-fast-emfloat.a(__aeabi_fdiv.o)
 .text.__aeabi_fdiv
                0x0000000000000000       0x94 d:/mplab x ide/xcompilers/bin/bin/../../lib/gcc/pic32c/8.3.1/../../../../pic32c/lib/thumb/v6-m/nofp\libm-fast-emfloat.a(__aeabi_fdiv.o)
 .xc_stack_usage.hdr
                0x0000000000000000        0xe d:/mplab x ide/xcompilers/bin/bin/../../lib/gcc/pic32c/8.3.1/../../../../pic32c/lib/thumb/v6-m/nofp\libm-fast-emfloat.a(__aeabi_fdiv.o)
 .xc_stack_usage
                0x0000000000000000       0x1a d:/mplab x ide/xcompilers/bin/bin/../../lib/gcc/pic32c/8.3.1/../../../../pic32c/lib/thumb/v6-m/nofp\libm-fast-emfloat.a(__aeabi_fdiv.o)
 .ARM.attributes
                0x0000000000000000       0x1c d:/mplab x ide/xcompilers/bin/bin/../../lib/gcc/pic32c/8.3.1/../../../../pic32c/lib/thumb/v6-m/nofp\libm-fast-emfloat.a(__aeabi_fcmplt.o)
 .text.__aeabi_fcmplt
                0x0000000000000000       0x2e d:/mplab x ide/xcompilers/bin/bin/../../lib/gcc/pic32c/8.3.1/../../../../pic32c/lib/thumb/v6-m/nofp\libm-fast-emfloat.a(__aeabi_fcmplt.o)
 .xc_stack_usage.hdr
                0x0000000000000000        0xe d:/mplab x ide/xcompilers/bin/bin/../../lib/gcc/pic32c/8.3.1/../../../../pic32c/lib/thumb/v6-m/nofp\libm-fast-emfloat.a(__aeabi_fcmplt.o)
 .xc_stack_usage
                0x0000000000000000       0x1c d:/mplab x ide/xcompilers/bin/bin/../../lib/gcc/pic32c/8.3.1/../../../../pic32c/lib/thumb/v6-m/nofp\libm-fast-emfloat.a(__aeabi_fcmplt.o)
 .ARM.attributes
                0x0000000000000000       0x1c d:/mplab x ide/xcompilers/bin/bin/../../lib/gcc/pic32c/8.3.1/../../../../pic32c/lib/thumb/v6-m/nofp\libm-fast-emfloat.a(__aeabi_f2iz.o)
 .text.__aeabi_f2iz
                0x0000000000000000       0x3e d:/mplab x ide/xcompilers/bin/bin/../../lib/gcc/pic32c/8.3.1/../../../../pic32c/lib/thumb/v6-m/nofp\libm-fast-emfloat.a(__aeabi_f2iz.o)
 .xc_stack_usage.hdr
                0x0000000000000000        0xe d:/mplab x ide/xcompilers/bin/bin/../../lib/gcc/pic32c/8.3.1/../../../../pic32c/lib/thumb/v6-m/nofp\libm-fast-emfloat.a(__aeabi_f2iz.o)
 .xc_stack_usage
                0x0000000000000000       0x1a d:/mplab x ide/xcompilers/bin/bin/../../lib/gcc/pic32c/8.3.1/../../../../pic32c/lib/thumb/v6-m/nofp\libm-fast-emfloat.a(__aeabi_f2iz.o)
 .ARM.attributes
                0x0000000000000000       0x1c d:/mplab x ide/xcompilers/bin/bin/../../lib/gcc/pic32c/8.3.1/../../../../pic32c/lib/thumb/v6-m/nofp\libm-fast-emfloat.a(__aeabi_f2uiz.o)
 .text.__aeabi_f2uiz
                0x0000000000000000       0x24 d:/mplab x ide/xcompilers/bin/bin/../../lib/gcc/pic32c/8.3.1/../../../../pic32c/lib/thumb/v6-m/nofp\libm-fast-emfloat.a(__aeabi_f2uiz.o)
 .xc_stack_usage.hdr
                0x0000000000000000        0xe d:/mplab x ide/xcompilers/bin/bin/../../lib/gcc/pic32c/8.3.1/../../../../pic32c/lib/thumb/v6-m/nofp\libm-fast-emfloat.a(__aeabi_f2uiz.o)
 .xc_stack_usage
                0x0000000000000000       0x1b d:/mplab x ide/xcompilers/bin/bin/../../lib/gcc/pic32c/8.3.1/../../../../pic32c/lib/thumb/v6-m/nofp\libm-fast-emfloat.a(__aeabi_f2uiz.o)
 .ARM.attributes
                0x0000000000000000       0x1c d:/mplab x ide/xcompilers/bin/bin/../../lib/gcc/pic32c/8.3.1/../../../../pic32c/lib/thumb/v6-m/nofp\libm-fast-emfloat.a(__aeabi_i2f.o)
 .text.__aeabi_i2f
                0x0000000000000000       0x26 d:/mplab x ide/xcompilers/bin/bin/../../lib/gcc/pic32c/8.3.1/../../../../pic32c/lib/thumb/v6-m/nofp\libm-fast-emfloat.a(__aeabi_i2f.o)
 .xc_stack_usage.hdr
                0x0000000000000000        0xe d:/mplab x ide/xcompilers/bin/bin/../../lib/gcc/pic32c/8.3.1/../../../../pic32c/lib/thumb/v6-m/nofp\libm-fast-emfloat.a(__aeabi_i2f.o)
 .xc_stack_usage
                0x0000000000000000       0x19 d:/mplab x ide/xcompilers/bin/bin/../../lib/gcc/pic32c/8.3.1/../../../../pic32c/lib/thumb/v6-m/nofp\libm-fast-emfloat.a(__aeabi_i2f.o)
 .ARM.attributes
                0x0000000000000000       0x1c d:/mplab x ide/xcompilers/bin/bin/../../lib/gcc/pic32c/8.3.1/../../../../pic32c/lib/thumb/v6-m/nofp\libm-fast-emfloat.a(__aeabi_ui2f.o)
 .text.__aeabi_ui2f
                0x0000000000000000       0x1e d:/mplab x ide/xcompilers/bin/bin/../../lib/gcc/pic32c/8.3.1/../../../../pic32c/lib/thumb/v6-m/nofp\libm-fast-emfloat.a(__aeabi_ui2f.o)
 .xc_stack_usage.hdr
                0x0000000000000000        0xe d:/mplab x ide/xcompilers/bin/bin/../../lib/gcc/pic32c/8.3.1/../../../../pic32c/lib/thumb/v6-m/nofp\libm-fast-emfloat.a(__aeabi_ui2f.o)
 .xc_stack_usage
                0x0000000000000000       0x1a d:/mplab x ide/xcompilers/bin/bin/../../lib/gcc/pic32c/8.3.1/../../../../pic32c/lib/thumb/v6-m/nofp\libm-fast-emfloat.a(__aeabi_ui2f.o)
 .text          0x0000000000000000        0x0 d:/mplab x ide/xcompilers/bin/bin/../../lib/gcc/pic32c/8.3.1/../../../../pic32c/lib/thumb/v6-m/nofp\libc-musl.a(__libc_start_main.o)
 .data          0x0000000000000000        0x0 d:/mplab x ide/xcompilers/bin/bin/../../lib/gcc/pic32c/8.3.1/../../../../pic32c/lib/thumb/v6-m/nofp\libc-musl.a(__libc_start_main.o)
 .bss           0x0000000000000000        0x0 d:/mplab x ide/xcompilers/bin/bin/../../lib/gcc/pic32c/8.3.1/../../../../pic32c/lib/thumb/v6-m/nofp\libc-musl.a(__libc_start_main.o)
 .xc_stack_usage
                0x0000000000000000       0x34 d:/mplab x ide/xcompilers/bin/bin/../../lib/gcc/pic32c/8.3.1/../../../../pic32c/lib/thumb/v6-m/nofp\libc-musl.a(__libc_start_main.o)
 .xc_stack_usage.hdr
                0x0000000000000000        0xe d:/mplab x ide/xcompilers/bin/bin/../../lib/gcc/pic32c/8.3.1/../../../../pic32c/lib/thumb/v6-m/nofp\libc-musl.a(__libc_start_main.o)
 .text          0x0000000000000000        0x0 d:/mplab x ide/xcompilers/bin/bin/../../lib/gcc/pic32c/8.3.1/../../../../pic32c/lib/thumb/v6-m/nofp\libc-musl.a(libc.o)
 .data          0x0000000000000000        0x0 d:/mplab x ide/xcompilers/bin/bin/../../lib/gcc/pic32c/8.3.1/../../../../pic32c/lib/thumb/v6-m/nofp\libc-musl.a(libc.o)
 .xc_stack_usage.hdr
                0x0000000000000000        0xe d:/mplab x ide/xcompilers/bin/bin/../../lib/gcc/pic32c/8.3.1/../../../../pic32c/lib/thumb/v6-m/nofp\libc-musl.a(libc.o)
 .text          0x0000000000000000        0x0 d:/mplab x ide/xcompilers/bin/bin/../../lib/gcc/pic32c/8.3.1/../../../../pic32c/lib/thumb/v6-m/nofp\libc-musl.a(vsnprintf.o)
 .data          0x0000000000000000        0x0 d:/mplab x ide/xcompilers/bin/bin/../../lib/gcc/pic32c/8.3.1/../../../../pic32c/lib/thumb/v6-m/nofp\libc-musl.a(vsnprintf.o)
 .bss           0x0000000000000000        0x0 d:/mplab x ide/xcompilers/bin/bin/../../lib/gcc/pic32c/8.3.1/../../../../pic32c/lib/thumb/v6-m/nofp\libc-musl.a(vsnprintf.o)
 .xc_stack_usage
                0x0000000000000000       0x17 d:/mplab x ide/xcompilers/bin/bin/../../lib/gcc/pic32c/8.3.1/../../../../pic32c/lib/thumb/v6-m/nofp\libc-musl.a(vsnprintf.o)
 .text.vsnprintf
                0x0000000000000000       0x64 d:/mplab x ide/xcompilers/bin/bin/../../lib/gcc/pic32c/8.3.1/../../../../pic32c/lib/thumb/v6-m/nofp\libc-musl.a(vsnprintf.o)
 .xc_stack_usage.hdr
                0x0000000000000000        0xe d:/mplab x ide/xcompilers/bin/bin/../../lib/gcc/pic32c/8.3.1/../../../../pic32c/lib/thumb/v6-m/nofp\libc-musl.a(vsnprintf.o)
 .debug_info    0x0000000000000000      0x43a d:/mplab x ide/xcompilers/bin/bin/../../lib/gcc/pic32c/8.3.1/../../../../pic32c/lib/thumb/v6-m/nofp\libc-musl.a(vsnprintf.o)
 .debug_abbrev  0x0000000000000000      0x195 d:/mplab x ide/xcompilers/bin/bin/../../lib/gcc/pic32c/8.3.1/../../../../pic32c/lib/thumb/v6-m/nofp\libc-musl.a(vsnprintf.o)
 .debug_loc     0x0000000000000000      0x10c d:/mplab x ide/xcompilers/bin/bin/../../lib/gcc/pic32c/8.3.1/../../../../pic32c/lib/thumb/v6-m/nofp\libc-musl.a(vsnprintf.o)
 .debug_aranges
                0x0000000000000000       0x20 d:/mplab x ide/xcompilers/bin/bin/../../lib/gcc/pic32c/8.3.1/../../../../pic32c/lib/thumb/v6-m/nofp\libc-musl.a(vsnprintf.o)
 .debug_ranges  0x0000000000000000       0x10 d:/mplab x ide/xcompilers/bin/bin/../../lib/gcc/pic32c/8.3.1/../../../../pic32c/lib/thumb/v6-m/nofp\libc-musl.a(vsnprintf.o)
 .debug_line    0x0000000000000000      0x23a d:/mplab x ide/xcompilers/bin/bin/../../lib/gcc/pic32c/8.3.1/../../../../pic32c/lib/thumb/v6-m/nofp\libc-musl.a(vsnprintf.o)
 .debug_str     0x0000000000000000      0x381 d:/mplab x ide/xcompilers/bin/bin/../../lib/gcc/pic32c/8.3.1/../../../../pic32c/lib/thumb/v6-m/nofp\libc-musl.a(vsnprintf.o)
 .comment       0x0000000000000000       0x2c d:/mplab x ide/xcompilers/bin/bin/../../lib/gcc/pic32c/8.3.1/../../../../pic32c/lib/thumb/v6-m/nofp\libc-musl.a(vsnprintf.o)
 .note.GNU-stack
                0x0000000000000000        0x0 d:/mplab x ide/xcompilers/bin/bin/../../lib/gcc/pic32c/8.3.1/../../../../pic32c/lib/thumb/v6-m/nofp\libc-musl.a(vsnprintf.o)
 .debug_frame   0x0000000000000000       0x34 d:/mplab x ide/xcompilers/bin/bin/../../lib/gcc/pic32c/8.3.1/../../../../pic32c/lib/thumb/v6-m/nofp\libc-musl.a(vsnprintf.o)
 .ARM.attributes
                0x0000000000000000       0x2e d:/mplab x ide/xcompilers/bin/bin/../../lib/gcc/pic32c/8.3.1/../../../../pic32c/lib/thumb/v6-m/nofp\libc-musl.a(vsnprintf.o)
 .text          0x0000000000000000        0x0 d:/mplab x ide/xcompilers/bin/bin/../../lib/gcc/pic32c/8.3.1/../../../../pic32c/lib/thumb/v6-m/nofp\libc-musl.a(printf.o)
 .data          0x0000000000000000        0x0 d:/mplab x ide/xcompilers/bin/bin/../../lib/gcc/pic32c/8.3.1/../../../../pic32c/lib/thumb/v6-m/nofp\libc-musl.a(printf.o)
 .bss           0x0000000000000000        0x0 d:/mplab x ide/xcompilers/bin/bin/../../lib/gcc/pic32c/8.3.1/../../../../pic32c/lib/thumb/v6-m/nofp\libc-musl.a(printf.o)
 .xc_stack_usage
                0x0000000000000000       0x14 d:/mplab x ide/xcompilers/bin/bin/../../lib/gcc/pic32c/8.3.1/../../../../pic32c/lib/thumb/v6-m/nofp\libc-musl.a(printf.o)
 .text.printf   0x0000000000000000       0x20 d:/mplab x ide/xcompilers/bin/bin/../../lib/gcc/pic32c/8.3.1/../../../../pic32c/lib/thumb/v6-m/nofp\libc-musl.a(printf.o)
 .xc_stack_usage.hdr
                0x0000000000000000        0xe d:/mplab x ide/xcompilers/bin/bin/../../lib/gcc/pic32c/8.3.1/../../../../pic32c/lib/thumb/v6-m/nofp\libc-musl.a(printf.o)
 .debug_info    0x0000000000000000      0x129 d:/mplab x ide/xcompilers/bin/bin/../../lib/gcc/pic32c/8.3.1/../../../../pic32c/lib/thumb/v6-m/nofp\libc-musl.a(printf.o)
 .debug_abbrev  0x0000000000000000      0x11d d:/mplab x ide/xcompilers/bin/bin/../../lib/gcc/pic32c/8.3.1/../../../../pic32c/lib/thumb/v6-m/nofp\libc-musl.a(printf.o)
 .debug_loc     0x0000000000000000       0x41 d:/mplab x ide/xcompilers/bin/bin/../../lib/gcc/pic32c/8.3.1/../../../../pic32c/lib/thumb/v6-m/nofp\libc-musl.a(printf.o)
 .debug_aranges
                0x0000000000000000       0x20 d:/mplab x ide/xcompilers/bin/bin/../../lib/gcc/pic32c/8.3.1/../../../../pic32c/lib/thumb/v6-m/nofp\libc-musl.a(printf.o)
 .debug_ranges  0x0000000000000000       0x10 d:/mplab x ide/xcompilers/bin/bin/../../lib/gcc/pic32c/8.3.1/../../../../pic32c/lib/thumb/v6-m/nofp\libc-musl.a(printf.o)
 .debug_line    0x0000000000000000      0x15e d:/mplab x ide/xcompilers/bin/bin/../../lib/gcc/pic32c/8.3.1/../../../../pic32c/lib/thumb/v6-m/nofp\libc-musl.a(printf.o)
 .debug_str     0x0000000000000000      0x23d d:/mplab x ide/xcompilers/bin/bin/../../lib/gcc/pic32c/8.3.1/../../../../pic32c/lib/thumb/v6-m/nofp\libc-musl.a(printf.o)
 .comment       0x0000000000000000       0x2c d:/mplab x ide/xcompilers/bin/bin/../../lib/gcc/pic32c/8.3.1/../../../../pic32c/lib/thumb/v6-m/nofp\libc-musl.a(printf.o)
 .note.GNU-stack
                0x0000000000000000        0x0 d:/mplab x ide/xcompilers/bin/bin/../../lib/gcc/pic32c/8.3.1/../../../../pic32c/lib/thumb/v6-m/nofp\libc-musl.a(printf.o)
 .debug_frame   0x0000000000000000       0x30 d:/mplab x ide/xcompilers/bin/bin/../../lib/gcc/pic32c/8.3.1/../../../../pic32c/lib/thumb/v6-m/nofp\libc-musl.a(printf.o)
 .ARM.attributes
                0x0000000000000000       0x2e d:/mplab x ide/xcompilers/bin/bin/../../lib/gcc/pic32c/8.3.1/../../../../pic32c/lib/thumb/v6-m/nofp\libc-musl.a(printf.o)
 .text          0x0000000000000000        0x0 d:/mplab x ide/xcompilers/bin/bin/../../lib/gcc/pic32c/8.3.1/../../../../pic32c/lib/thumb/v6-m/nofp\libc-musl.a(puts.o)
 .data          0x0000000000000000        0x0 d:/mplab x ide/xcompilers/bin/bin/../../lib/gcc/pic32c/8.3.1/../../../../pic32c/lib/thumb/v6-m/nofp\libc-musl.a(puts.o)
 .bss           0x0000000000000000        0x0 d:/mplab x ide/xcompilers/bin/bin/../../lib/gcc/pic32c/8.3.1/../../../../pic32c/lib/thumb/v6-m/nofp\libc-musl.a(puts.o)
 .xc_stack_usage
                0x0000000000000000       0x12 d:/mplab x ide/xcompilers/bin/bin/../../lib/gcc/pic32c/8.3.1/../../../../pic32c/lib/thumb/v6-m/nofp\libc-musl.a(puts.o)
 .text.puts     0x0000000000000000       0x28 d:/mplab x ide/xcompilers/bin/bin/../../lib/gcc/pic32c/8.3.1/../../../../pic32c/lib/thumb/v6-m/nofp\libc-musl.a(puts.o)
 .xc_stack_usage.hdr
                0x0000000000000000        0xe d:/mplab x ide/xcompilers/bin/bin/../../lib/gcc/pic32c/8.3.1/../../../../pic32c/lib/thumb/v6-m/nofp\libc-musl.a(puts.o)
 .debug_info    0x0000000000000000      0x3ac d:/mplab x ide/xcompilers/bin/bin/../../lib/gcc/pic32c/8.3.1/../../../../pic32c/lib/thumb/v6-m/nofp\libc-musl.a(puts.o)
 .debug_abbrev  0x0000000000000000      0x159 d:/mplab x ide/xcompilers/bin/bin/../../lib/gcc/pic32c/8.3.1/../../../../pic32c/lib/thumb/v6-m/nofp\libc-musl.a(puts.o)
 .debug_loc     0x0000000000000000       0x6a d:/mplab x ide/xcompilers/bin/bin/../../lib/gcc/pic32c/8.3.1/../../../../pic32c/lib/thumb/v6-m/nofp\libc-musl.a(puts.o)
 .debug_aranges
                0x0000000000000000       0x20 d:/mplab x ide/xcompilers/bin/bin/../../lib/gcc/pic32c/8.3.1/../../../../pic32c/lib/thumb/v6-m/nofp\libc-musl.a(puts.o)
 .debug_ranges  0x0000000000000000       0x10 d:/mplab x ide/xcompilers/bin/bin/../../lib/gcc/pic32c/8.3.1/../../../../pic32c/lib/thumb/v6-m/nofp\libc-musl.a(puts.o)
 .debug_line    0x0000000000000000      0x1c6 d:/mplab x ide/xcompilers/bin/bin/../../lib/gcc/pic32c/8.3.1/../../../../pic32c/lib/thumb/v6-m/nofp\libc-musl.a(puts.o)
 .debug_str     0x0000000000000000      0x344 d:/mplab x ide/xcompilers/bin/bin/../../lib/gcc/pic32c/8.3.1/../../../../pic32c/lib/thumb/v6-m/nofp\libc-musl.a(puts.o)
 .comment       0x0000000000000000       0x2c d:/mplab x ide/xcompilers/bin/bin/../../lib/gcc/pic32c/8.3.1/../../../../pic32c/lib/thumb/v6-m/nofp\libc-musl.a(puts.o)
 .note.GNU-stack
                0x0000000000000000        0x0 d:/mplab x ide/xcompilers/bin/bin/../../lib/gcc/pic32c/8.3.1/../../../../pic32c/lib/thumb/v6-m/nofp\libc-musl.a(puts.o)
 .debug_frame   0x0000000000000000       0x28 d:/mplab x ide/xcompilers/bin/bin/../../lib/gcc/pic32c/8.3.1/../../../../pic32c/lib/thumb/v6-m/nofp\libc-musl.a(puts.o)
 .ARM.attributes
                0x0000000000000000       0x2e d:/mplab x ide/xcompilers/bin/bin/../../lib/gcc/pic32c/8.3.1/../../../../pic32c/lib/thumb/v6-m/nofp\libc-musl.a(puts.o)
 .text          0x0000000000000000        0x0 d:/mplab x ide/xcompilers/bin/bin/../../lib/gcc/pic32c/8.3.1/../../../../pic32c/lib/thumb/v6-m/nofp\libc-musl.a(__environ.o)
 .data          0x0000000000000000        0x0 d:/mplab x ide/xcompilers/bin/bin/../../lib/gcc/pic32c/8.3.1/../../../../pic32c/lib/thumb/v6-m/nofp\libc-musl.a(__environ.o)
 .xc_stack_usage.hdr
                0x0000000000000000        0xe d:/mplab x ide/xcompilers/bin/bin/../../lib/gcc/pic32c/8.3.1/../../../../pic32c/lib/thumb/v6-m/nofp\libc-musl.a(__environ.o)
 .text          0x0000000000000000        0x0 d:/mplab x ide/xcompilers/bin/bin/../../lib/gcc/pic32c/8.3.1/../../../../pic32c/lib/thumb/v6-m/nofp\libc-musl.a(__errno_location.o)
 .data          0x0000000000000000        0x0 d:/mplab x ide/xcompilers/bin/bin/../../lib/gcc/pic32c/8.3.1/../../../../pic32c/lib/thumb/v6-m/nofp\libc-musl.a(__errno_location.o)
 .bss           0x0000000000000000        0x4 d:/mplab x ide/xcompilers/bin/bin/../../lib/gcc/pic32c/8.3.1/../../../../pic32c/lib/thumb/v6-m/nofp\libc-musl.a(__errno_location.o)
 .xc_stack_usage.hdr
                0x0000000000000000        0xe d:/mplab x ide/xcompilers/bin/bin/../../lib/gcc/pic32c/8.3.1/../../../../pic32c/lib/thumb/v6-m/nofp\libc-musl.a(__errno_location.o)
 .debug_info    0x0000000000000000       0x5b d:/mplab x ide/xcompilers/bin/bin/../../lib/gcc/pic32c/8.3.1/../../../../pic32c/lib/thumb/v6-m/nofp\libc-musl.a(__errno_location.o)
 .debug_abbrev  0x0000000000000000       0x39 d:/mplab x ide/xcompilers/bin/bin/../../lib/gcc/pic32c/8.3.1/../../../../pic32c/lib/thumb/v6-m/nofp\libc-musl.a(__errno_location.o)
 .debug_aranges
                0x0000000000000000       0x18 d:/mplab x ide/xcompilers/bin/bin/../../lib/gcc/pic32c/8.3.1/../../../../pic32c/lib/thumb/v6-m/nofp\libc-musl.a(__errno_location.o)
 .debug_line    0x0000000000000000       0x9a d:/mplab x ide/xcompilers/bin/bin/../../lib/gcc/pic32c/8.3.1/../../../../pic32c/lib/thumb/v6-m/nofp\libc-musl.a(__errno_location.o)
 .debug_str     0x0000000000000000      0x229 d:/mplab x ide/xcompilers/bin/bin/../../lib/gcc/pic32c/8.3.1/../../../../pic32c/lib/thumb/v6-m/nofp\libc-musl.a(__errno_location.o)
 .comment       0x0000000000000000       0x2c d:/mplab x ide/xcompilers/bin/bin/../../lib/gcc/pic32c/8.3.1/../../../../pic32c/lib/thumb/v6-m/nofp\libc-musl.a(__errno_location.o)
 .note.GNU-stack
                0x0000000000000000        0x0 d:/mplab x ide/xcompilers/bin/bin/../../lib/gcc/pic32c/8.3.1/../../../../pic32c/lib/thumb/v6-m/nofp\libc-musl.a(__errno_location.o)
 .ARM.attributes
                0x0000000000000000       0x2e d:/mplab x ide/xcompilers/bin/bin/../../lib/gcc/pic32c/8.3.1/../../../../pic32c/lib/thumb/v6-m/nofp\libc-musl.a(__errno_location.o)
 .text          0x0000000000000000        0x0 d:/mplab x ide/xcompilers/bin/bin/../../lib/gcc/pic32c/8.3.1/../../../../pic32c/lib/thumb/v6-m/nofp\libc-musl.a(fputs.o)
 .data          0x0000000000000000        0x0 d:/mplab x ide/xcompilers/bin/bin/../../lib/gcc/pic32c/8.3.1/../../../../pic32c/lib/thumb/v6-m/nofp\libc-musl.a(fputs.o)
 .bss           0x0000000000000000        0x0 d:/mplab x ide/xcompilers/bin/bin/../../lib/gcc/pic32c/8.3.1/../../../../pic32c/lib/thumb/v6-m/nofp\libc-musl.a(fputs.o)
 .xc_stack_usage
                0x0000000000000000       0x13 d:/mplab x ide/xcompilers/bin/bin/../../lib/gcc/pic32c/8.3.1/../../../../pic32c/lib/thumb/v6-m/nofp\libc-musl.a(fputs.o)
 .text.fputs    0x0000000000000000       0x22 d:/mplab x ide/xcompilers/bin/bin/../../lib/gcc/pic32c/8.3.1/../../../../pic32c/lib/thumb/v6-m/nofp\libc-musl.a(fputs.o)
 .xc_stack_usage.hdr
                0x0000000000000000        0xe d:/mplab x ide/xcompilers/bin/bin/../../lib/gcc/pic32c/8.3.1/../../../../pic32c/lib/thumb/v6-m/nofp\libc-musl.a(fputs.o)
 .debug_info    0x0000000000000000      0x3b6 d:/mplab x ide/xcompilers/bin/bin/../../lib/gcc/pic32c/8.3.1/../../../../pic32c/lib/thumb/v6-m/nofp\libc-musl.a(fputs.o)
 .debug_abbrev  0x0000000000000000      0x146 d:/mplab x ide/xcompilers/bin/bin/../../lib/gcc/pic32c/8.3.1/../../../../pic32c/lib/thumb/v6-m/nofp\libc-musl.a(fputs.o)
 .debug_loc     0x0000000000000000       0xb3 d:/mplab x ide/xcompilers/bin/bin/../../lib/gcc/pic32c/8.3.1/../../../../pic32c/lib/thumb/v6-m/nofp\libc-musl.a(fputs.o)
 .debug_aranges
                0x0000000000000000       0x20 d:/mplab x ide/xcompilers/bin/bin/../../lib/gcc/pic32c/8.3.1/../../../../pic32c/lib/thumb/v6-m/nofp\libc-musl.a(fputs.o)
 .debug_ranges  0x0000000000000000       0x10 d:/mplab x ide/xcompilers/bin/bin/../../lib/gcc/pic32c/8.3.1/../../../../pic32c/lib/thumb/v6-m/nofp\libc-musl.a(fputs.o)
 .debug_line    0x0000000000000000      0x236 d:/mplab x ide/xcompilers/bin/bin/../../lib/gcc/pic32c/8.3.1/../../../../pic32c/lib/thumb/v6-m/nofp\libc-musl.a(fputs.o)
 .debug_str     0x0000000000000000      0x338 d:/mplab x ide/xcompilers/bin/bin/../../lib/gcc/pic32c/8.3.1/../../../../pic32c/lib/thumb/v6-m/nofp\libc-musl.a(fputs.o)
 .comment       0x0000000000000000       0x2c d:/mplab x ide/xcompilers/bin/bin/../../lib/gcc/pic32c/8.3.1/../../../../pic32c/lib/thumb/v6-m/nofp\libc-musl.a(fputs.o)
 .note.GNU-stack
                0x0000000000000000        0x0 d:/mplab x ide/xcompilers/bin/bin/../../lib/gcc/pic32c/8.3.1/../../../../pic32c/lib/thumb/v6-m/nofp\libc-musl.a(fputs.o)
 .debug_frame   0x0000000000000000       0x2c d:/mplab x ide/xcompilers/bin/bin/../../lib/gcc/pic32c/8.3.1/../../../../pic32c/lib/thumb/v6-m/nofp\libc-musl.a(fputs.o)
 .ARM.attributes
                0x0000000000000000       0x2e d:/mplab x ide/xcompilers/bin/bin/../../lib/gcc/pic32c/8.3.1/../../../../pic32c/lib/thumb/v6-m/nofp\libc-musl.a(fputs.o)
 .text          0x0000000000000000        0x0 d:/mplab x ide/xcompilers/bin/bin/../../lib/gcc/pic32c/8.3.1/../../../../pic32c/lib/thumb/v6-m/nofp\libc-musl.a(fwrite.o)
 .data          0x0000000000000000        0x0 d:/mplab x ide/xcompilers/bin/bin/../../lib/gcc/pic32c/8.3.1/../../../../pic32c/lib/thumb/v6-m/nofp\libc-musl.a(fwrite.o)
 .bss           0x0000000000000000        0x0 d:/mplab x ide/xcompilers/bin/bin/../../lib/gcc/pic32c/8.3.1/../../../../pic32c/lib/thumb/v6-m/nofp\libc-musl.a(fwrite.o)
 .xc_stack_usage
                0x0000000000000000       0x2e d:/mplab x ide/xcompilers/bin/bin/../../lib/gcc/pic32c/8.3.1/../../../../pic32c/lib/thumb/v6-m/nofp\libc-musl.a(fwrite.o)
 .text.__fwrite_min
                0x0000000000000000        0xa d:/mplab x ide/xcompilers/bin/bin/../../lib/gcc/pic32c/8.3.1/../../../../pic32c/lib/thumb/v6-m/nofp\libc-musl.a(fwrite.o)
 .text.fwrite   0x0000000000000000       0x2e d:/mplab x ide/xcompilers/bin/bin/../../lib/gcc/pic32c/8.3.1/../../../../pic32c/lib/thumb/v6-m/nofp\libc-musl.a(fwrite.o)
 .xc_stack_usage.hdr
                0x0000000000000000        0xe d:/mplab x ide/xcompilers/bin/bin/../../lib/gcc/pic32c/8.3.1/../../../../pic32c/lib/thumb/v6-m/nofp\libc-musl.a(fwrite.o)
 .debug_info    0x0000000000000000      0x257 d:/mplab x ide/xcompilers/bin/bin/../../lib/gcc/pic32c/8.3.1/../../../../pic32c/lib/thumb/v6-m/nofp\libc-musl.a(fwrite.o)
 .debug_abbrev  0x0000000000000000      0x13c d:/mplab x ide/xcompilers/bin/bin/../../lib/gcc/pic32c/8.3.1/../../../../pic32c/lib/thumb/v6-m/nofp\libc-musl.a(fwrite.o)
 .debug_loc     0x0000000000000000      0x1c5 d:/mplab x ide/xcompilers/bin/bin/../../lib/gcc/pic32c/8.3.1/../../../../pic32c/lib/thumb/v6-m/nofp\libc-musl.a(fwrite.o)
 .debug_aranges
                0x0000000000000000       0x28 d:/mplab x ide/xcompilers/bin/bin/../../lib/gcc/pic32c/8.3.1/../../../../pic32c/lib/thumb/v6-m/nofp\libc-musl.a(fwrite.o)
 .debug_ranges  0x0000000000000000       0x18 d:/mplab x ide/xcompilers/bin/bin/../../lib/gcc/pic32c/8.3.1/../../../../pic32c/lib/thumb/v6-m/nofp\libc-musl.a(fwrite.o)
 .debug_line    0x0000000000000000      0x1f5 d:/mplab x ide/xcompilers/bin/bin/../../lib/gcc/pic32c/8.3.1/../../../../pic32c/lib/thumb/v6-m/nofp\libc-musl.a(fwrite.o)
 .debug_str     0x0000000000000000      0x2d3 d:/mplab x ide/xcompilers/bin/bin/../../lib/gcc/pic32c/8.3.1/../../../../pic32c/lib/thumb/v6-m/nofp\libc-musl.a(fwrite.o)
 .comment       0x0000000000000000       0x2c d:/mplab x ide/xcompilers/bin/bin/../../lib/gcc/pic32c/8.3.1/../../../../pic32c/lib/thumb/v6-m/nofp\libc-musl.a(fwrite.o)
 .note.GNU-stack
                0x0000000000000000        0x0 d:/mplab x ide/xcompilers/bin/bin/../../lib/gcc/pic32c/8.3.1/../../../../pic32c/lib/thumb/v6-m/nofp\libc-musl.a(fwrite.o)
 .debug_frame   0x0000000000000000       0x44 d:/mplab x ide/xcompilers/bin/bin/../../lib/gcc/pic32c/8.3.1/../../../../pic32c/lib/thumb/v6-m/nofp\libc-musl.a(fwrite.o)
 .ARM.attributes
                0x0000000000000000       0x2e d:/mplab x ide/xcompilers/bin/bin/../../lib/gcc/pic32c/8.3.1/../../../../pic32c/lib/thumb/v6-m/nofp\libc-musl.a(fwrite.o)
 .text          0x0000000000000000        0x0 d:/mplab x ide/xcompilers/bin/bin/../../lib/gcc/pic32c/8.3.1/../../../../pic32c/lib/thumb/v6-m/nofp\libc-musl.a(putc.o)
 .data          0x0000000000000000        0x0 d:/mplab x ide/xcompilers/bin/bin/../../lib/gcc/pic32c/8.3.1/../../../../pic32c/lib/thumb/v6-m/nofp\libc-musl.a(putc.o)
 .bss           0x0000000000000000        0x0 d:/mplab x ide/xcompilers/bin/bin/../../lib/gcc/pic32c/8.3.1/../../../../pic32c/lib/thumb/v6-m/nofp\libc-musl.a(putc.o)
 .xc_stack_usage
                0x0000000000000000       0x4f d:/mplab x ide/xcompilers/bin/bin/../../lib/gcc/pic32c/8.3.1/../../../../pic32c/lib/thumb/v6-m/nofp\libc-musl.a(putc.o)
 .text.__putc_unbuffered
                0x0000000000000000       0x36 d:/mplab x ide/xcompilers/bin/bin/../../lib/gcc/pic32c/8.3.1/../../../../pic32c/lib/thumb/v6-m/nofp\libc-musl.a(putc.o)
 .text.putc     0x0000000000000000        0x8 d:/mplab x ide/xcompilers/bin/bin/../../lib/gcc/pic32c/8.3.1/../../../../pic32c/lib/thumb/v6-m/nofp\libc-musl.a(putc.o)
 __xc_reference_data
                0x0000000000000000        0xc d:/mplab x ide/xcompilers/bin/bin/../../lib/gcc/pic32c/8.3.1/../../../../pic32c/lib/thumb/v6-m/nofp\libc-musl.a(putc.o)
 .xc_stack_usage.hdr
                0x0000000000000000        0xe d:/mplab x ide/xcompilers/bin/bin/../../lib/gcc/pic32c/8.3.1/../../../../pic32c/lib/thumb/v6-m/nofp\libc-musl.a(putc.o)
 .debug_info    0x0000000000000000      0x224 d:/mplab x ide/xcompilers/bin/bin/../../lib/gcc/pic32c/8.3.1/../../../../pic32c/lib/thumb/v6-m/nofp\libc-musl.a(putc.o)
 .debug_abbrev  0x0000000000000000      0x122 d:/mplab x ide/xcompilers/bin/bin/../../lib/gcc/pic32c/8.3.1/../../../../pic32c/lib/thumb/v6-m/nofp\libc-musl.a(putc.o)
 .debug_loc     0x0000000000000000      0x13b d:/mplab x ide/xcompilers/bin/bin/../../lib/gcc/pic32c/8.3.1/../../../../pic32c/lib/thumb/v6-m/nofp\libc-musl.a(putc.o)
 .debug_aranges
                0x0000000000000000       0x30 d:/mplab x ide/xcompilers/bin/bin/../../lib/gcc/pic32c/8.3.1/../../../../pic32c/lib/thumb/v6-m/nofp\libc-musl.a(putc.o)
 .debug_ranges  0x0000000000000000       0x20 d:/mplab x ide/xcompilers/bin/bin/../../lib/gcc/pic32c/8.3.1/../../../../pic32c/lib/thumb/v6-m/nofp\libc-musl.a(putc.o)
 .debug_line    0x0000000000000000      0x1a3 d:/mplab x ide/xcompilers/bin/bin/../../lib/gcc/pic32c/8.3.1/../../../../pic32c/lib/thumb/v6-m/nofp\libc-musl.a(putc.o)
 .debug_str     0x0000000000000000      0x2ea d:/mplab x ide/xcompilers/bin/bin/../../lib/gcc/pic32c/8.3.1/../../../../pic32c/lib/thumb/v6-m/nofp\libc-musl.a(putc.o)
 .comment       0x0000000000000000       0x2c d:/mplab x ide/xcompilers/bin/bin/../../lib/gcc/pic32c/8.3.1/../../../../pic32c/lib/thumb/v6-m/nofp\libc-musl.a(putc.o)
 .note.GNU-stack
                0x0000000000000000        0x0 d:/mplab x ide/xcompilers/bin/bin/../../lib/gcc/pic32c/8.3.1/../../../../pic32c/lib/thumb/v6-m/nofp\libc-musl.a(putc.o)
 .debug_frame   0x0000000000000000       0x5c d:/mplab x ide/xcompilers/bin/bin/../../lib/gcc/pic32c/8.3.1/../../../../pic32c/lib/thumb/v6-m/nofp\libc-musl.a(putc.o)
 .ARM.attributes
                0x0000000000000000       0x2e d:/mplab x ide/xcompilers/bin/bin/../../lib/gcc/pic32c/8.3.1/../../../../pic32c/lib/thumb/v6-m/nofp\libc-musl.a(putc.o)
 .text          0x0000000000000000        0x0 d:/mplab x ide/xcompilers/bin/bin/../../lib/gcc/pic32c/8.3.1/../../../../pic32c/lib/thumb/v6-m/nofp\libc-musl.a(stdout.o)
 .xc_stack_usage
                0x0000000000000000       0x51 d:/mplab x ide/xcompilers/bin/bin/../../lib/gcc/pic32c/8.3.1/../../../../pic32c/lib/thumb/v6-m/nofp\libc-musl.a(stdout.o)
 .xc_stack_usage.hdr
                0x0000000000000000        0xe d:/mplab x ide/xcompilers/bin/bin/../../lib/gcc/pic32c/8.3.1/../../../../pic32c/lib/thumb/v6-m/nofp\libc-musl.a(stdout.o)
 .text          0x0000000000000000        0x0 d:/mplab x ide/xcompilers/bin/bin/../../lib/gcc/pic32c/8.3.1/../../../../pic32c/lib/thumb/v6-m/nofp\libc-musl.a(vfprintf.o)
 .data          0x0000000000000000        0x0 d:/mplab x ide/xcompilers/bin/bin/../../lib/gcc/pic32c/8.3.1/../../../../pic32c/lib/thumb/v6-m/nofp\libc-musl.a(vfprintf.o)
 .bss           0x0000000000000000        0x0 d:/mplab x ide/xcompilers/bin/bin/../../lib/gcc/pic32c/8.3.1/../../../../pic32c/lib/thumb/v6-m/nofp\libc-musl.a(vfprintf.o)
 .xc_stack_usage
                0x0000000000000000       0x38 d:/mplab x ide/xcompilers/bin/bin/../../lib/gcc/pic32c/8.3.1/../../../../pic32c/lib/thumb/v6-m/nofp\libc-musl.a(vfprintf.o)
 .text.vfprintf
                0x0000000000000000       0x18 d:/mplab x ide/xcompilers/bin/bin/../../lib/gcc/pic32c/8.3.1/../../../../pic32c/lib/thumb/v6-m/nofp\libc-musl.a(vfprintf.o)
 __xc_reference_data
                0x0000000000000000        0x8 d:/mplab x ide/xcompilers/bin/bin/../../lib/gcc/pic32c/8.3.1/../../../../pic32c/lib/thumb/v6-m/nofp\libc-musl.a(vfprintf.o)
 .xc_stack_usage.hdr
                0x0000000000000000        0xe d:/mplab x ide/xcompilers/bin/bin/../../lib/gcc/pic32c/8.3.1/../../../../pic32c/lib/thumb/v6-m/nofp\libc-musl.a(vfprintf.o)
 .debug_info    0x0000000000000000      0x40e d:/mplab x ide/xcompilers/bin/bin/../../lib/gcc/pic32c/8.3.1/../../../../pic32c/lib/thumb/v6-m/nofp\libc-musl.a(vfprintf.o)
 .debug_abbrev  0x0000000000000000      0x18b d:/mplab x ide/xcompilers/bin/bin/../../lib/gcc/pic32c/8.3.1/../../../../pic32c/lib/thumb/v6-m/nofp\libc-musl.a(vfprintf.o)
 .debug_loc     0x0000000000000000       0xd0 d:/mplab x ide/xcompilers/bin/bin/../../lib/gcc/pic32c/8.3.1/../../../../pic32c/lib/thumb/v6-m/nofp\libc-musl.a(vfprintf.o)
 .debug_aranges
                0x0000000000000000       0x28 d:/mplab x ide/xcompilers/bin/bin/../../lib/gcc/pic32c/8.3.1/../../../../pic32c/lib/thumb/v6-m/nofp\libc-musl.a(vfprintf.o)
 .debug_ranges  0x0000000000000000       0x18 d:/mplab x ide/xcompilers/bin/bin/../../lib/gcc/pic32c/8.3.1/../../../../pic32c/lib/thumb/v6-m/nofp\libc-musl.a(vfprintf.o)
 .debug_line    0x0000000000000000      0x1fa d:/mplab x ide/xcompilers/bin/bin/../../lib/gcc/pic32c/8.3.1/../../../../pic32c/lib/thumb/v6-m/nofp\libc-musl.a(vfprintf.o)
 .debug_str     0x0000000000000000      0x37f d:/mplab x ide/xcompilers/bin/bin/../../lib/gcc/pic32c/8.3.1/../../../../pic32c/lib/thumb/v6-m/nofp\libc-musl.a(vfprintf.o)
 .comment       0x0000000000000000       0x2c d:/mplab x ide/xcompilers/bin/bin/../../lib/gcc/pic32c/8.3.1/../../../../pic32c/lib/thumb/v6-m/nofp\libc-musl.a(vfprintf.o)
 .note.GNU-stack
                0x0000000000000000        0x0 d:/mplab x ide/xcompilers/bin/bin/../../lib/gcc/pic32c/8.3.1/../../../../pic32c/lib/thumb/v6-m/nofp\libc-musl.a(vfprintf.o)
 .debug_frame   0x0000000000000000       0x44 d:/mplab x ide/xcompilers/bin/bin/../../lib/gcc/pic32c/8.3.1/../../../../pic32c/lib/thumb/v6-m/nofp\libc-musl.a(vfprintf.o)
 .ARM.attributes
                0x0000000000000000       0x2e d:/mplab x ide/xcompilers/bin/bin/../../lib/gcc/pic32c/8.3.1/../../../../pic32c/lib/thumb/v6-m/nofp\libc-musl.a(vfprintf.o)
 .text          0x0000000000000000        0x0 d:/mplab x ide/xcompilers/bin/bin/../../lib/gcc/pic32c/8.3.1/../../../../pic32c/lib/thumb/v6-m/nofp\libc-musl.a(__io_fmt_needed.o)
 .data          0x0000000000000000        0x0 d:/mplab x ide/xcompilers/bin/bin/../../lib/gcc/pic32c/8.3.1/../../../../pic32c/lib/thumb/v6-m/nofp\libc-musl.a(__io_fmt_needed.o)
 .bss           0x0000000000000000        0x0 d:/mplab x ide/xcompilers/bin/bin/../../lib/gcc/pic32c/8.3.1/../../../../pic32c/lib/thumb/v6-m/nofp\libc-musl.a(__io_fmt_needed.o)
 .xc_stack_usage
                0x0000000000000000       0x1d d:/mplab x ide/xcompilers/bin/bin/../../lib/gcc/pic32c/8.3.1/../../../../pic32c/lib/thumb/v6-m/nofp\libc-musl.a(__io_fmt_needed.o)
 __xc_reference_data
                0x0000000000000000       0x54 d:/mplab x ide/xcompilers/bin/bin/../../lib/gcc/pic32c/8.3.1/../../../../pic32c/lib/thumb/v6-m/nofp\libc-musl.a(__io_fmt_needed.o)
 .xc_stack_usage.hdr
                0x0000000000000000        0xe d:/mplab x ide/xcompilers/bin/bin/../../lib/gcc/pic32c/8.3.1/../../../../pic32c/lib/thumb/v6-m/nofp\libc-musl.a(__io_fmt_needed.o)
 .debug_info    0x0000000000000000      0x187 d:/mplab x ide/xcompilers/bin/bin/../../lib/gcc/pic32c/8.3.1/../../../../pic32c/lib/thumb/v6-m/nofp\libc-musl.a(__io_fmt_needed.o)
 .debug_abbrev  0x0000000000000000       0x67 d:/mplab x ide/xcompilers/bin/bin/../../lib/gcc/pic32c/8.3.1/../../../../pic32c/lib/thumb/v6-m/nofp\libc-musl.a(__io_fmt_needed.o)
 .debug_loc     0x0000000000000000       0x20 d:/mplab x ide/xcompilers/bin/bin/../../lib/gcc/pic32c/8.3.1/../../../../pic32c/lib/thumb/v6-m/nofp\libc-musl.a(__io_fmt_needed.o)
 .debug_aranges
                0x0000000000000000       0x20 d:/mplab x ide/xcompilers/bin/bin/../../lib/gcc/pic32c/8.3.1/../../../../pic32c/lib/thumb/v6-m/nofp\libc-musl.a(__io_fmt_needed.o)
 .debug_ranges  0x0000000000000000       0x10 d:/mplab x ide/xcompilers/bin/bin/../../lib/gcc/pic32c/8.3.1/../../../../pic32c/lib/thumb/v6-m/nofp\libc-musl.a(__io_fmt_needed.o)
 .debug_line    0x0000000000000000       0xc2 d:/mplab x ide/xcompilers/bin/bin/../../lib/gcc/pic32c/8.3.1/../../../../pic32c/lib/thumb/v6-m/nofp\libc-musl.a(__io_fmt_needed.o)
 .debug_str     0x0000000000000000      0x336 d:/mplab x ide/xcompilers/bin/bin/../../lib/gcc/pic32c/8.3.1/../../../../pic32c/lib/thumb/v6-m/nofp\libc-musl.a(__io_fmt_needed.o)
 .comment       0x0000000000000000       0x2c d:/mplab x ide/xcompilers/bin/bin/../../lib/gcc/pic32c/8.3.1/../../../../pic32c/lib/thumb/v6-m/nofp\libc-musl.a(__io_fmt_needed.o)
 .note.GNU-stack
                0x0000000000000000        0x0 d:/mplab x ide/xcompilers/bin/bin/../../lib/gcc/pic32c/8.3.1/../../../../pic32c/lib/thumb/v6-m/nofp\libc-musl.a(__io_fmt_needed.o)
 .debug_frame   0x0000000000000000       0x28 d:/mplab x ide/xcompilers/bin/bin/../../lib/gcc/pic32c/8.3.1/../../../../pic32c/lib/thumb/v6-m/nofp\libc-musl.a(__io_fmt_needed.o)
 .ARM.attributes
                0x0000000000000000       0x2e d:/mplab x ide/xcompilers/bin/bin/../../lib/gcc/pic32c/8.3.1/../../../../pic32c/lib/thumb/v6-m/nofp\libc-musl.a(__io_fmt_needed.o)
 .text          0x0000000000000000        0x0 d:/mplab x ide/xcompilers/bin/bin/../../lib/gcc/pic32c/8.3.1/../../../../pic32c/lib/thumb/v6-m/nofp\libc-musl.a(__io_init_needed.o)
 .data          0x0000000000000000        0x0 d:/mplab x ide/xcompilers/bin/bin/../../lib/gcc/pic32c/8.3.1/../../../../pic32c/lib/thumb/v6-m/nofp\libc-musl.a(__io_init_needed.o)
 .bss           0x0000000000000000        0x0 d:/mplab x ide/xcompilers/bin/bin/../../lib/gcc/pic32c/8.3.1/../../../../pic32c/lib/thumb/v6-m/nofp\libc-musl.a(__io_init_needed.o)
 .xc_stack_usage
                0x0000000000000000       0x40 d:/mplab x ide/xcompilers/bin/bin/../../lib/gcc/pic32c/8.3.1/../../../../pic32c/lib/thumb/v6-m/nofp\libc-musl.a(__io_init_needed.o)
 .xc_stack_usage.hdr
                0x0000000000000000        0xe d:/mplab x ide/xcompilers/bin/bin/../../lib/gcc/pic32c/8.3.1/../../../../pic32c/lib/thumb/v6-m/nofp\libc-musl.a(__io_init_needed.o)
 .debug_info    0x0000000000000000       0xea d:/mplab x ide/xcompilers/bin/bin/../../lib/gcc/pic32c/8.3.1/../../../../pic32c/lib/thumb/v6-m/nofp\libc-musl.a(__io_init_needed.o)
 .debug_abbrev  0x0000000000000000       0x81 d:/mplab x ide/xcompilers/bin/bin/../../lib/gcc/pic32c/8.3.1/../../../../pic32c/lib/thumb/v6-m/nofp\libc-musl.a(__io_init_needed.o)
 .debug_loc     0x0000000000000000       0x40 d:/mplab x ide/xcompilers/bin/bin/../../lib/gcc/pic32c/8.3.1/../../../../pic32c/lib/thumb/v6-m/nofp\libc-musl.a(__io_init_needed.o)
 .debug_aranges
                0x0000000000000000       0x28 d:/mplab x ide/xcompilers/bin/bin/../../lib/gcc/pic32c/8.3.1/../../../../pic32c/lib/thumb/v6-m/nofp\libc-musl.a(__io_init_needed.o)
 .debug_ranges  0x0000000000000000       0x18 d:/mplab x ide/xcompilers/bin/bin/../../lib/gcc/pic32c/8.3.1/../../../../pic32c/lib/thumb/v6-m/nofp\libc-musl.a(__io_init_needed.o)
 .debug_line    0x0000000000000000      0x137 d:/mplab x ide/xcompilers/bin/bin/../../lib/gcc/pic32c/8.3.1/../../../../pic32c/lib/thumb/v6-m/nofp\libc-musl.a(__io_init_needed.o)
 .debug_str     0x0000000000000000      0x2d4 d:/mplab x ide/xcompilers/bin/bin/../../lib/gcc/pic32c/8.3.1/../../../../pic32c/lib/thumb/v6-m/nofp\libc-musl.a(__io_init_needed.o)
 .comment       0x0000000000000000       0x2c d:/mplab x ide/xcompilers/bin/bin/../../lib/gcc/pic32c/8.3.1/../../../../pic32c/lib/thumb/v6-m/nofp\libc-musl.a(__io_init_needed.o)
 .note.GNU-stack
                0x0000000000000000        0x0 d:/mplab x ide/xcompilers/bin/bin/../../lib/gcc/pic32c/8.3.1/../../../../pic32c/lib/thumb/v6-m/nofp\libc-musl.a(__io_init_needed.o)
 .debug_frame   0x0000000000000000       0x40 d:/mplab x ide/xcompilers/bin/bin/../../lib/gcc/pic32c/8.3.1/../../../../pic32c/lib/thumb/v6-m/nofp\libc-musl.a(__io_init_needed.o)
 .ARM.attributes
                0x0000000000000000       0x2e d:/mplab x ide/xcompilers/bin/bin/../../lib/gcc/pic32c/8.3.1/../../../../pic32c/lib/thumb/v6-m/nofp\libc-musl.a(__io_init_needed.o)
 .text          0x0000000000000000        0x0 d:/mplab x ide/xcompilers/bin/bin/../../lib/gcc/pic32c/8.3.1/../../../../pic32c/lib/thumb/v6-m/nofp\libc-musl.a(__out.o)
 .data          0x0000000000000000        0x0 d:/mplab x ide/xcompilers/bin/bin/../../lib/gcc/pic32c/8.3.1/../../../../pic32c/lib/thumb/v6-m/nofp\libc-musl.a(__out.o)
 .bss           0x0000000000000000        0x0 d:/mplab x ide/xcompilers/bin/bin/../../lib/gcc/pic32c/8.3.1/../../../../pic32c/lib/thumb/v6-m/nofp\libc-musl.a(__out.o)
 .xc_stack_usage
                0x0000000000000000       0x2d d:/mplab x ide/xcompilers/bin/bin/../../lib/gcc/pic32c/8.3.1/../../../../pic32c/lib/thumb/v6-m/nofp\libc-musl.a(__out.o)
 .text.__fwrite_min
                0x0000000000000000        0xa d:/mplab x ide/xcompilers/bin/bin/../../lib/gcc/pic32c/8.3.1/../../../../pic32c/lib/thumb/v6-m/nofp\libc-musl.a(__out.o)
 .text.__out    0x0000000000000000       0x3c d:/mplab x ide/xcompilers/bin/bin/../../lib/gcc/pic32c/8.3.1/../../../../pic32c/lib/thumb/v6-m/nofp\libc-musl.a(__out.o)
 .xc_stack_usage.hdr
                0x0000000000000000        0xe d:/mplab x ide/xcompilers/bin/bin/../../lib/gcc/pic32c/8.3.1/../../../../pic32c/lib/thumb/v6-m/nofp\libc-musl.a(__out.o)
 .debug_info    0x0000000000000000      0x2ba d:/mplab x ide/xcompilers/bin/bin/../../lib/gcc/pic32c/8.3.1/../../../../pic32c/lib/thumb/v6-m/nofp\libc-musl.a(__out.o)
 .debug_abbrev  0x0000000000000000      0x177 d:/mplab x ide/xcompilers/bin/bin/../../lib/gcc/pic32c/8.3.1/../../../../pic32c/lib/thumb/v6-m/nofp\libc-musl.a(__out.o)
 .debug_loc     0x0000000000000000      0x1e6 d:/mplab x ide/xcompilers/bin/bin/../../lib/gcc/pic32c/8.3.1/../../../../pic32c/lib/thumb/v6-m/nofp\libc-musl.a(__out.o)
 .debug_aranges
                0x0000000000000000       0x28 d:/mplab x ide/xcompilers/bin/bin/../../lib/gcc/pic32c/8.3.1/../../../../pic32c/lib/thumb/v6-m/nofp\libc-musl.a(__out.o)
 .debug_ranges  0x0000000000000000       0x18 d:/mplab x ide/xcompilers/bin/bin/../../lib/gcc/pic32c/8.3.1/../../../../pic32c/lib/thumb/v6-m/nofp\libc-musl.a(__out.o)
 .debug_line    0x0000000000000000      0x28f d:/mplab x ide/xcompilers/bin/bin/../../lib/gcc/pic32c/8.3.1/../../../../pic32c/lib/thumb/v6-m/nofp\libc-musl.a(__out.o)
 .debug_str     0x0000000000000000      0x2da d:/mplab x ide/xcompilers/bin/bin/../../lib/gcc/pic32c/8.3.1/../../../../pic32c/lib/thumb/v6-m/nofp\libc-musl.a(__out.o)
 .comment       0x0000000000000000       0x2c d:/mplab x ide/xcompilers/bin/bin/../../lib/gcc/pic32c/8.3.1/../../../../pic32c/lib/thumb/v6-m/nofp\libc-musl.a(__out.o)
 .note.GNU-stack
                0x0000000000000000        0x0 d:/mplab x ide/xcompilers/bin/bin/../../lib/gcc/pic32c/8.3.1/../../../../pic32c/lib/thumb/v6-m/nofp\libc-musl.a(__out.o)
 .debug_frame   0x0000000000000000       0x44 d:/mplab x ide/xcompilers/bin/bin/../../lib/gcc/pic32c/8.3.1/../../../../pic32c/lib/thumb/v6-m/nofp\libc-musl.a(__out.o)
 .ARM.attributes
                0x0000000000000000       0x2e d:/mplab x ide/xcompilers/bin/bin/../../lib/gcc/pic32c/8.3.1/../../../../pic32c/lib/thumb/v6-m/nofp\libc-musl.a(__out.o)
 .text          0x0000000000000000        0x0 d:/mplab x ide/xcompilers/bin/bin/../../lib/gcc/pic32c/8.3.1/../../../../pic32c/lib/thumb/v6-m/nofp\libc-musl.a(__pop_float.o)
 .data          0x0000000000000000        0x0 d:/mplab x ide/xcompilers/bin/bin/../../lib/gcc/pic32c/8.3.1/../../../../pic32c/lib/thumb/v6-m/nofp\libc-musl.a(__pop_float.o)
 .bss           0x0000000000000000        0x0 d:/mplab x ide/xcompilers/bin/bin/../../lib/gcc/pic32c/8.3.1/../../../../pic32c/lib/thumb/v6-m/nofp\libc-musl.a(__pop_float.o)
 .xc_stack_usage
                0x0000000000000000       0x19 d:/mplab x ide/xcompilers/bin/bin/../../lib/gcc/pic32c/8.3.1/../../../../pic32c/lib/thumb/v6-m/nofp\libc-musl.a(__pop_float.o)
 .text.__pop_float
                0x0000000000000000       0x2a d:/mplab x ide/xcompilers/bin/bin/../../lib/gcc/pic32c/8.3.1/../../../../pic32c/lib/thumb/v6-m/nofp\libc-musl.a(__pop_float.o)
 .xc_stack_usage.hdr
                0x0000000000000000        0xe d:/mplab x ide/xcompilers/bin/bin/../../lib/gcc/pic32c/8.3.1/../../../../pic32c/lib/thumb/v6-m/nofp\libc-musl.a(__pop_float.o)
 .debug_info    0x0000000000000000      0x162 d:/mplab x ide/xcompilers/bin/bin/../../lib/gcc/pic32c/8.3.1/../../../../pic32c/lib/thumb/v6-m/nofp\libc-musl.a(__pop_float.o)
 .debug_abbrev  0x0000000000000000       0xdc d:/mplab x ide/xcompilers/bin/bin/../../lib/gcc/pic32c/8.3.1/../../../../pic32c/lib/thumb/v6-m/nofp\libc-musl.a(__pop_float.o)
 .debug_loc     0x0000000000000000       0x6f d:/mplab x ide/xcompilers/bin/bin/../../lib/gcc/pic32c/8.3.1/../../../../pic32c/lib/thumb/v6-m/nofp\libc-musl.a(__pop_float.o)
 .debug_aranges
                0x0000000000000000       0x20 d:/mplab x ide/xcompilers/bin/bin/../../lib/gcc/pic32c/8.3.1/../../../../pic32c/lib/thumb/v6-m/nofp\libc-musl.a(__pop_float.o)
 .debug_ranges  0x0000000000000000       0x10 d:/mplab x ide/xcompilers/bin/bin/../../lib/gcc/pic32c/8.3.1/../../../../pic32c/lib/thumb/v6-m/nofp\libc-musl.a(__pop_float.o)
 .debug_line    0x0000000000000000      0x166 d:/mplab x ide/xcompilers/bin/bin/../../lib/gcc/pic32c/8.3.1/../../../../pic32c/lib/thumb/v6-m/nofp\libc-musl.a(__pop_float.o)
 .debug_str     0x0000000000000000      0x2c0 d:/mplab x ide/xcompilers/bin/bin/../../lib/gcc/pic32c/8.3.1/../../../../pic32c/lib/thumb/v6-m/nofp\libc-musl.a(__pop_float.o)
 .comment       0x0000000000000000       0x2c d:/mplab x ide/xcompilers/bin/bin/../../lib/gcc/pic32c/8.3.1/../../../../pic32c/lib/thumb/v6-m/nofp\libc-musl.a(__pop_float.o)
 .note.GNU-stack
                0x0000000000000000        0x0 d:/mplab x ide/xcompilers/bin/bin/../../lib/gcc/pic32c/8.3.1/../../../../pic32c/lib/thumb/v6-m/nofp\libc-musl.a(__pop_float.o)
 .debug_frame   0x0000000000000000       0x20 d:/mplab x ide/xcompilers/bin/bin/../../lib/gcc/pic32c/8.3.1/../../../../pic32c/lib/thumb/v6-m/nofp\libc-musl.a(__pop_float.o)
 .ARM.attributes
                0x0000000000000000       0x2e d:/mplab x ide/xcompilers/bin/bin/../../lib/gcc/pic32c/8.3.1/../../../../pic32c/lib/thumb/v6-m/nofp\libc-musl.a(__pop_float.o)
 .text          0x0000000000000000        0x0 d:/mplab x ide/xcompilers/bin/bin/../../lib/gcc/pic32c/8.3.1/../../../../pic32c/lib/thumb/v6-m/nofp\libc-musl.a(__pop_int.o)
 .data          0x0000000000000000        0x0 d:/mplab x ide/xcompilers/bin/bin/../../lib/gcc/pic32c/8.3.1/../../../../pic32c/lib/thumb/v6-m/nofp\libc-musl.a(__pop_int.o)
 .bss           0x0000000000000000        0x0 d:/mplab x ide/xcompilers/bin/bin/../../lib/gcc/pic32c/8.3.1/../../../../pic32c/lib/thumb/v6-m/nofp\libc-musl.a(__pop_int.o)
 .xc_stack_usage
                0x0000000000000000       0x17 d:/mplab x ide/xcompilers/bin/bin/../../lib/gcc/pic32c/8.3.1/../../../../pic32c/lib/thumb/v6-m/nofp\libc-musl.a(__pop_int.o)
 .text.__pop_int
                0x0000000000000000       0xbe d:/mplab x ide/xcompilers/bin/bin/../../lib/gcc/pic32c/8.3.1/../../../../pic32c/lib/thumb/v6-m/nofp\libc-musl.a(__pop_int.o)
 .xc_stack_usage.hdr
                0x0000000000000000        0xe d:/mplab x ide/xcompilers/bin/bin/../../lib/gcc/pic32c/8.3.1/../../../../pic32c/lib/thumb/v6-m/nofp\libc-musl.a(__pop_int.o)
 .debug_info    0x0000000000000000      0x183 d:/mplab x ide/xcompilers/bin/bin/../../lib/gcc/pic32c/8.3.1/../../../../pic32c/lib/thumb/v6-m/nofp\libc-musl.a(__pop_int.o)
 .debug_abbrev  0x0000000000000000       0xdc d:/mplab x ide/xcompilers/bin/bin/../../lib/gcc/pic32c/8.3.1/../../../../pic32c/lib/thumb/v6-m/nofp\libc-musl.a(__pop_int.o)
 .debug_loc     0x0000000000000000      0x34c d:/mplab x ide/xcompilers/bin/bin/../../lib/gcc/pic32c/8.3.1/../../../../pic32c/lib/thumb/v6-m/nofp\libc-musl.a(__pop_int.o)
 .debug_aranges
                0x0000000000000000       0x20 d:/mplab x ide/xcompilers/bin/bin/../../lib/gcc/pic32c/8.3.1/../../../../pic32c/lib/thumb/v6-m/nofp\libc-musl.a(__pop_int.o)
 .debug_ranges  0x0000000000000000       0x10 d:/mplab x ide/xcompilers/bin/bin/../../lib/gcc/pic32c/8.3.1/../../../../pic32c/lib/thumb/v6-m/nofp\libc-musl.a(__pop_int.o)
 .debug_line    0x0000000000000000      0x211 d:/mplab x ide/xcompilers/bin/bin/../../lib/gcc/pic32c/8.3.1/../../../../pic32c/lib/thumb/v6-m/nofp\libc-musl.a(__pop_int.o)
 .debug_str     0x0000000000000000      0x2cb d:/mplab x ide/xcompilers/bin/bin/../../lib/gcc/pic32c/8.3.1/../../../../pic32c/lib/thumb/v6-m/nofp\libc-musl.a(__pop_int.o)
 .comment       0x0000000000000000       0x2c d:/mplab x ide/xcompilers/bin/bin/../../lib/gcc/pic32c/8.3.1/../../../../pic32c/lib/thumb/v6-m/nofp\libc-musl.a(__pop_int.o)
 .note.GNU-stack
                0x0000000000000000        0x0 d:/mplab x ide/xcompilers/bin/bin/../../lib/gcc/pic32c/8.3.1/../../../../pic32c/lib/thumb/v6-m/nofp\libc-musl.a(__pop_int.o)
 .debug_frame   0x0000000000000000       0x28 d:/mplab x ide/xcompilers/bin/bin/../../lib/gcc/pic32c/8.3.1/../../../../pic32c/lib/thumb/v6-m/nofp\libc-musl.a(__pop_int.o)
 .ARM.attributes
                0x0000000000000000       0x2e d:/mplab x ide/xcompilers/bin/bin/../../lib/gcc/pic32c/8.3.1/../../../../pic32c/lib/thumb/v6-m/nofp\libc-musl.a(__pop_int.o)
 .text          0x0000000000000000        0x0 d:/mplab x ide/xcompilers/bin/bin/../../lib/gcc/pic32c/8.3.1/../../../../pic32c/lib/thumb/v6-m/nofp\libc-musl.a(__pop_ptr.o)
 .data          0x0000000000000000        0x0 d:/mplab x ide/xcompilers/bin/bin/../../lib/gcc/pic32c/8.3.1/../../../../pic32c/lib/thumb/v6-m/nofp\libc-musl.a(__pop_ptr.o)
 .bss           0x0000000000000000        0x0 d:/mplab x ide/xcompilers/bin/bin/../../lib/gcc/pic32c/8.3.1/../../../../pic32c/lib/thumb/v6-m/nofp\libc-musl.a(__pop_ptr.o)
 .xc_stack_usage
                0x0000000000000000       0x17 d:/mplab x ide/xcompilers/bin/bin/../../lib/gcc/pic32c/8.3.1/../../../../pic32c/lib/thumb/v6-m/nofp\libc-musl.a(__pop_ptr.o)
 .text.__pop_ptr
                0x0000000000000000       0x68 d:/mplab x ide/xcompilers/bin/bin/../../lib/gcc/pic32c/8.3.1/../../../../pic32c/lib/thumb/v6-m/nofp\libc-musl.a(__pop_ptr.o)
 .xc_stack_usage.hdr
                0x0000000000000000        0xe d:/mplab x ide/xcompilers/bin/bin/../../lib/gcc/pic32c/8.3.1/../../../../pic32c/lib/thumb/v6-m/nofp\libc-musl.a(__pop_ptr.o)
 .debug_info    0x0000000000000000      0x18d d:/mplab x ide/xcompilers/bin/bin/../../lib/gcc/pic32c/8.3.1/../../../../pic32c/lib/thumb/v6-m/nofp\libc-musl.a(__pop_ptr.o)
 .debug_abbrev  0x0000000000000000       0xdc d:/mplab x ide/xcompilers/bin/bin/../../lib/gcc/pic32c/8.3.1/../../../../pic32c/lib/thumb/v6-m/nofp\libc-musl.a(__pop_ptr.o)
 .debug_loc     0x0000000000000000      0x1fe d:/mplab x ide/xcompilers/bin/bin/../../lib/gcc/pic32c/8.3.1/../../../../pic32c/lib/thumb/v6-m/nofp\libc-musl.a(__pop_ptr.o)
 .debug_aranges
                0x0000000000000000       0x20 d:/mplab x ide/xcompilers/bin/bin/../../lib/gcc/pic32c/8.3.1/../../../../pic32c/lib/thumb/v6-m/nofp\libc-musl.a(__pop_ptr.o)
 .debug_ranges  0x0000000000000000       0x10 d:/mplab x ide/xcompilers/bin/bin/../../lib/gcc/pic32c/8.3.1/../../../../pic32c/lib/thumb/v6-m/nofp\libc-musl.a(__pop_ptr.o)
 .debug_line    0x0000000000000000      0x1c8 d:/mplab x ide/xcompilers/bin/bin/../../lib/gcc/pic32c/8.3.1/../../../../pic32c/lib/thumb/v6-m/nofp\libc-musl.a(__pop_ptr.o)
 .debug_str     0x0000000000000000      0x2cd d:/mplab x ide/xcompilers/bin/bin/../../lib/gcc/pic32c/8.3.1/../../../../pic32c/lib/thumb/v6-m/nofp\libc-musl.a(__pop_ptr.o)
 .comment       0x0000000000000000       0x2c d:/mplab x ide/xcompilers/bin/bin/../../lib/gcc/pic32c/8.3.1/../../../../pic32c/lib/thumb/v6-m/nofp\libc-musl.a(__pop_ptr.o)
 .note.GNU-stack
                0x0000000000000000        0x0 d:/mplab x ide/xcompilers/bin/bin/../../lib/gcc/pic32c/8.3.1/../../../../pic32c/lib/thumb/v6-m/nofp\libc-musl.a(__pop_ptr.o)
 .debug_frame   0x0000000000000000       0x28 d:/mplab x ide/xcompilers/bin/bin/../../lib/gcc/pic32c/8.3.1/../../../../pic32c/lib/thumb/v6-m/nofp\libc-musl.a(__pop_ptr.o)
 .ARM.attributes
                0x0000000000000000       0x2e d:/mplab x ide/xcompilers/bin/bin/../../lib/gcc/pic32c/8.3.1/../../../../pic32c/lib/thumb/v6-m/nofp\libc-musl.a(__pop_ptr.o)
 .text          0x0000000000000000        0x0 d:/mplab x ide/xcompilers/bin/bin/../../lib/gcc/pic32c/8.3.1/../../../../pic32c/lib/thumb/v6-m/nofp\libc-musl.a(__printf_core.o)
 .data          0x0000000000000000        0x0 d:/mplab x ide/xcompilers/bin/bin/../../lib/gcc/pic32c/8.3.1/../../../../pic32c/lib/thumb/v6-m/nofp\libc-musl.a(__printf_core.o)
 .bss           0x0000000000000000        0x0 d:/mplab x ide/xcompilers/bin/bin/../../lib/gcc/pic32c/8.3.1/../../../../pic32c/lib/thumb/v6-m/nofp\libc-musl.a(__printf_core.o)
 .xc_stack_usage
                0x0000000000000000       0xaf d:/mplab x ide/xcompilers/bin/bin/../../lib/gcc/pic32c/8.3.1/../../../../pic32c/lib/thumb/v6-m/nofp\libc-musl.a(__printf_core.o)
 .text.__string_out
                0x0000000000000000       0x2a d:/mplab x ide/xcompilers/bin/bin/../../lib/gcc/pic32c/8.3.1/../../../../pic32c/lib/thumb/v6-m/nofp\libc-musl.a(__printf_core.o)
 .text.__pad    0x0000000000000000       0x7a d:/mplab x ide/xcompilers/bin/bin/../../lib/gcc/pic32c/8.3.1/../../../../pic32c/lib/thumb/v6-m/nofp\libc-musl.a(__printf_core.o)
 .text.__dummy_fmt3
                0x0000000000000000        0x4 d:/mplab x ide/xcompilers/bin/bin/../../lib/gcc/pic32c/8.3.1/../../../../pic32c/lib/thumb/v6-m/nofp\libc-musl.a(__printf_core.o)
 .text.__dummy_fmt4
                0x0000000000000000        0x4 d:/mplab x ide/xcompilers/bin/bin/../../lib/gcc/pic32c/8.3.1/../../../../pic32c/lib/thumb/v6-m/nofp\libc-musl.a(__printf_core.o)
 .text.__dummy_fmts
                0x0000000000000000        0x4 d:/mplab x ide/xcompilers/bin/bin/../../lib/gcc/pic32c/8.3.1/../../../../pic32c/lib/thumb/v6-m/nofp\libc-musl.a(__printf_core.o)
 .text.__fmt_state
                0x0000000000000000       0x34 d:/mplab x ide/xcompilers/bin/bin/../../lib/gcc/pic32c/8.3.1/../../../../pic32c/lib/thumb/v6-m/nofp\libc-musl.a(__printf_core.o)
 .text.__printf_core
                0x0000000000000000      0x33c d:/mplab x ide/xcompilers/bin/bin/../../lib/gcc/pic32c/8.3.1/../../../../pic32c/lib/thumb/v6-m/nofp\libc-musl.a(__printf_core.o)
 .rodata        0x0000000000000000       0x16 d:/mplab x ide/xcompilers/bin/bin/../../lib/gcc/pic32c/8.3.1/../../../../pic32c/lib/thumb/v6-m/nofp\libc-musl.a(__printf_core.o)
 .rodata.str1.1
                0x0000000000000000        0x8 d:/mplab x ide/xcompilers/bin/bin/../../lib/gcc/pic32c/8.3.1/../../../../pic32c/lib/thumb/v6-m/nofp\libc-musl.a(__printf_core.o)
 .xc_stack_usage.hdr
                0x0000000000000000        0xe d:/mplab x ide/xcompilers/bin/bin/../../lib/gcc/pic32c/8.3.1/../../../../pic32c/lib/thumb/v6-m/nofp\libc-musl.a(__printf_core.o)
 .debug_info    0x0000000000000000      0xa6f d:/mplab x ide/xcompilers/bin/bin/../../lib/gcc/pic32c/8.3.1/../../../../pic32c/lib/thumb/v6-m/nofp\libc-musl.a(__printf_core.o)
 .debug_abbrev  0x0000000000000000      0x317 d:/mplab x ide/xcompilers/bin/bin/../../lib/gcc/pic32c/8.3.1/../../../../pic32c/lib/thumb/v6-m/nofp\libc-musl.a(__printf_core.o)
 .debug_loc     0x0000000000000000      0x6d9 d:/mplab x ide/xcompilers/bin/bin/../../lib/gcc/pic32c/8.3.1/../../../../pic32c/lib/thumb/v6-m/nofp\libc-musl.a(__printf_core.o)
 .debug_aranges
                0x0000000000000000       0x50 d:/mplab x ide/xcompilers/bin/bin/../../lib/gcc/pic32c/8.3.1/../../../../pic32c/lib/thumb/v6-m/nofp\libc-musl.a(__printf_core.o)
 .debug_ranges  0x0000000000000000       0x58 d:/mplab x ide/xcompilers/bin/bin/../../lib/gcc/pic32c/8.3.1/../../../../pic32c/lib/thumb/v6-m/nofp\libc-musl.a(__printf_core.o)
 .debug_line    0x0000000000000000      0x6c7 d:/mplab x ide/xcompilers/bin/bin/../../lib/gcc/pic32c/8.3.1/../../../../pic32c/lib/thumb/v6-m/nofp\libc-musl.a(__printf_core.o)
 .debug_str     0x0000000000000000      0x3e7 d:/mplab x ide/xcompilers/bin/bin/../../lib/gcc/pic32c/8.3.1/../../../../pic32c/lib/thumb/v6-m/nofp\libc-musl.a(__printf_core.o)
 .comment       0x0000000000000000       0x2c d:/mplab x ide/xcompilers/bin/bin/../../lib/gcc/pic32c/8.3.1/../../../../pic32c/lib/thumb/v6-m/nofp\libc-musl.a(__printf_core.o)
 .note.GNU-stack
                0x0000000000000000        0x0 d:/mplab x ide/xcompilers/bin/bin/../../lib/gcc/pic32c/8.3.1/../../../../pic32c/lib/thumb/v6-m/nofp\libc-musl.a(__printf_core.o)
 .debug_frame   0x0000000000000000       0xc0 d:/mplab x ide/xcompilers/bin/bin/../../lib/gcc/pic32c/8.3.1/../../../../pic32c/lib/thumb/v6-m/nofp\libc-musl.a(__printf_core.o)
 .ARM.attributes
                0x0000000000000000       0x2e d:/mplab x ide/xcompilers/bin/bin/../../lib/gcc/pic32c/8.3.1/../../../../pic32c/lib/thumb/v6-m/nofp\libc-musl.a(__printf_core.o)
 .text          0x0000000000000000        0x0 d:/mplab x ide/xcompilers/bin/bin/../../lib/gcc/pic32c/8.3.1/../../../../pic32c/lib/thumb/v6-m/nofp\libc-musl.a(atoi.o)
 .data          0x0000000000000000        0x0 d:/mplab x ide/xcompilers/bin/bin/../../lib/gcc/pic32c/8.3.1/../../../../pic32c/lib/thumb/v6-m/nofp\libc-musl.a(atoi.o)
 .bss           0x0000000000000000        0x0 d:/mplab x ide/xcompilers/bin/bin/../../lib/gcc/pic32c/8.3.1/../../../../pic32c/lib/thumb/v6-m/nofp\libc-musl.a(atoi.o)
 .xc_stack_usage
                0x0000000000000000       0x12 d:/mplab x ide/xcompilers/bin/bin/../../lib/gcc/pic32c/8.3.1/../../../../pic32c/lib/thumb/v6-m/nofp\libc-musl.a(atoi.o)
 .text.atoi     0x0000000000000000       0x40 d:/mplab x ide/xcompilers/bin/bin/../../lib/gcc/pic32c/8.3.1/../../../../pic32c/lib/thumb/v6-m/nofp\libc-musl.a(atoi.o)
 .xc_stack_usage.hdr
                0x0000000000000000        0xe d:/mplab x ide/xcompilers/bin/bin/../../lib/gcc/pic32c/8.3.1/../../../../pic32c/lib/thumb/v6-m/nofp\libc-musl.a(atoi.o)
 .debug_info    0x0000000000000000       0xf4 d:/mplab x ide/xcompilers/bin/bin/../../lib/gcc/pic32c/8.3.1/../../../../pic32c/lib/thumb/v6-m/nofp\libc-musl.a(atoi.o)
 .debug_abbrev  0x0000000000000000       0xc6 d:/mplab x ide/xcompilers/bin/bin/../../lib/gcc/pic32c/8.3.1/../../../../pic32c/lib/thumb/v6-m/nofp\libc-musl.a(atoi.o)
 .debug_loc     0x0000000000000000       0xdc d:/mplab x ide/xcompilers/bin/bin/../../lib/gcc/pic32c/8.3.1/../../../../pic32c/lib/thumb/v6-m/nofp\libc-musl.a(atoi.o)
 .debug_aranges
                0x0000000000000000       0x20 d:/mplab x ide/xcompilers/bin/bin/../../lib/gcc/pic32c/8.3.1/../../../../pic32c/lib/thumb/v6-m/nofp\libc-musl.a(atoi.o)
 .debug_ranges  0x0000000000000000       0x10 d:/mplab x ide/xcompilers/bin/bin/../../lib/gcc/pic32c/8.3.1/../../../../pic32c/lib/thumb/v6-m/nofp\libc-musl.a(atoi.o)
 .debug_line    0x0000000000000000      0x173 d:/mplab x ide/xcompilers/bin/bin/../../lib/gcc/pic32c/8.3.1/../../../../pic32c/lib/thumb/v6-m/nofp\libc-musl.a(atoi.o)
 .debug_str     0x0000000000000000      0x21c d:/mplab x ide/xcompilers/bin/bin/../../lib/gcc/pic32c/8.3.1/../../../../pic32c/lib/thumb/v6-m/nofp\libc-musl.a(atoi.o)
 .comment       0x0000000000000000       0x2c d:/mplab x ide/xcompilers/bin/bin/../../lib/gcc/pic32c/8.3.1/../../../../pic32c/lib/thumb/v6-m/nofp\libc-musl.a(atoi.o)
 .note.GNU-stack
                0x0000000000000000        0x0 d:/mplab x ide/xcompilers/bin/bin/../../lib/gcc/pic32c/8.3.1/../../../../pic32c/lib/thumb/v6-m/nofp\libc-musl.a(atoi.o)
 .debug_frame   0x0000000000000000       0x28 d:/mplab x ide/xcompilers/bin/bin/../../lib/gcc/pic32c/8.3.1/../../../../pic32c/lib/thumb/v6-m/nofp\libc-musl.a(atoi.o)
 .ARM.attributes
                0x0000000000000000       0x2e d:/mplab x ide/xcompilers/bin/bin/../../lib/gcc/pic32c/8.3.1/../../../../pic32c/lib/thumb/v6-m/nofp\libc-musl.a(atoi.o)
 .text          0x0000000000000000        0x0 d:/mplab x ide/xcompilers/bin/bin/../../lib/gcc/pic32c/8.3.1/../../../../pic32c/lib/thumb/v6-m/nofp\libc-musl.a(tolower.o)
 .data          0x0000000000000000        0x0 d:/mplab x ide/xcompilers/bin/bin/../../lib/gcc/pic32c/8.3.1/../../../../pic32c/lib/thumb/v6-m/nofp\libc-musl.a(tolower.o)
 .bss           0x0000000000000000        0x0 d:/mplab x ide/xcompilers/bin/bin/../../lib/gcc/pic32c/8.3.1/../../../../pic32c/lib/thumb/v6-m/nofp\libc-musl.a(tolower.o)
 .xc_stack_usage
                0x0000000000000000       0x2e d:/mplab x ide/xcompilers/bin/bin/../../lib/gcc/pic32c/8.3.1/../../../../pic32c/lib/thumb/v6-m/nofp\libc-musl.a(tolower.o)
 .text.tolower  0x0000000000000000        0xe d:/mplab x ide/xcompilers/bin/bin/../../lib/gcc/pic32c/8.3.1/../../../../pic32c/lib/thumb/v6-m/nofp\libc-musl.a(tolower.o)
 .text.__tolower_l
                0x0000000000000000        0x8 d:/mplab x ide/xcompilers/bin/bin/../../lib/gcc/pic32c/8.3.1/../../../../pic32c/lib/thumb/v6-m/nofp\libc-musl.a(tolower.o)
 .xc_stack_usage.hdr
                0x0000000000000000        0xe d:/mplab x ide/xcompilers/bin/bin/../../lib/gcc/pic32c/8.3.1/../../../../pic32c/lib/thumb/v6-m/nofp\libc-musl.a(tolower.o)
 .debug_info    0x0000000000000000      0x131 d:/mplab x ide/xcompilers/bin/bin/../../lib/gcc/pic32c/8.3.1/../../../../pic32c/lib/thumb/v6-m/nofp\libc-musl.a(tolower.o)
 .debug_abbrev  0x0000000000000000       0xf4 d:/mplab x ide/xcompilers/bin/bin/../../lib/gcc/pic32c/8.3.1/../../../../pic32c/lib/thumb/v6-m/nofp\libc-musl.a(tolower.o)
 .debug_loc     0x0000000000000000       0x8f d:/mplab x ide/xcompilers/bin/bin/../../lib/gcc/pic32c/8.3.1/../../../../pic32c/lib/thumb/v6-m/nofp\libc-musl.a(tolower.o)
 .debug_aranges
                0x0000000000000000       0x28 d:/mplab x ide/xcompilers/bin/bin/../../lib/gcc/pic32c/8.3.1/../../../../pic32c/lib/thumb/v6-m/nofp\libc-musl.a(tolower.o)
 .debug_ranges  0x0000000000000000       0x18 d:/mplab x ide/xcompilers/bin/bin/../../lib/gcc/pic32c/8.3.1/../../../../pic32c/lib/thumb/v6-m/nofp\libc-musl.a(tolower.o)
 .debug_line    0x0000000000000000      0x15c d:/mplab x ide/xcompilers/bin/bin/../../lib/gcc/pic32c/8.3.1/../../../../pic32c/lib/thumb/v6-m/nofp\libc-musl.a(tolower.o)
 .debug_str     0x0000000000000000      0x249 d:/mplab x ide/xcompilers/bin/bin/../../lib/gcc/pic32c/8.3.1/../../../../pic32c/lib/thumb/v6-m/nofp\libc-musl.a(tolower.o)
 .comment       0x0000000000000000       0x2c d:/mplab x ide/xcompilers/bin/bin/../../lib/gcc/pic32c/8.3.1/../../../../pic32c/lib/thumb/v6-m/nofp\libc-musl.a(tolower.o)
 .note.GNU-stack
                0x0000000000000000        0x0 d:/mplab x ide/xcompilers/bin/bin/../../lib/gcc/pic32c/8.3.1/../../../../pic32c/lib/thumb/v6-m/nofp\libc-musl.a(tolower.o)
 .debug_frame   0x0000000000000000       0x38 d:/mplab x ide/xcompilers/bin/bin/../../lib/gcc/pic32c/8.3.1/../../../../pic32c/lib/thumb/v6-m/nofp\libc-musl.a(tolower.o)
 .ARM.attributes
                0x0000000000000000       0x2e d:/mplab x ide/xcompilers/bin/bin/../../lib/gcc/pic32c/8.3.1/../../../../pic32c/lib/thumb/v6-m/nofp\libc-musl.a(tolower.o)
 .text          0x0000000000000000        0x0 d:/mplab x ide/xcompilers/bin/bin/../../lib/gcc/pic32c/8.3.1/../../../../pic32c/lib/thumb/v6-m/nofp\libc-musl.a(__fmt_a.o)
 .data          0x0000000000000000        0x0 d:/mplab x ide/xcompilers/bin/bin/../../lib/gcc/pic32c/8.3.1/../../../../pic32c/lib/thumb/v6-m/nofp\libc-musl.a(__fmt_a.o)
 .bss           0x0000000000000000        0x0 d:/mplab x ide/xcompilers/bin/bin/../../lib/gcc/pic32c/8.3.1/../../../../pic32c/lib/thumb/v6-m/nofp\libc-musl.a(__fmt_a.o)
 .xc_stack_usage
                0x0000000000000000       0x15 d:/mplab x ide/xcompilers/bin/bin/../../lib/gcc/pic32c/8.3.1/../../../../pic32c/lib/thumb/v6-m/nofp\libc-musl.a(__fmt_a.o)
 .text.__fmt_a  0x0000000000000000      0x484 d:/mplab x ide/xcompilers/bin/bin/../../lib/gcc/pic32c/8.3.1/../../../../pic32c/lib/thumb/v6-m/nofp\libc-musl.a(__fmt_a.o)
 .rodata.str1.1
                0x0000000000000000       0x10 d:/mplab x ide/xcompilers/bin/bin/../../lib/gcc/pic32c/8.3.1/../../../../pic32c/lib/thumb/v6-m/nofp\libc-musl.a(__fmt_a.o)
 .xc_stack_usage.hdr
                0x0000000000000000        0xe d:/mplab x ide/xcompilers/bin/bin/../../lib/gcc/pic32c/8.3.1/../../../../pic32c/lib/thumb/v6-m/nofp\libc-musl.a(__fmt_a.o)
 .debug_info    0x0000000000000000      0x5fb d:/mplab x ide/xcompilers/bin/bin/../../lib/gcc/pic32c/8.3.1/../../../../pic32c/lib/thumb/v6-m/nofp\libc-musl.a(__fmt_a.o)
 .debug_abbrev  0x0000000000000000      0x1d5 d:/mplab x ide/xcompilers/bin/bin/../../lib/gcc/pic32c/8.3.1/../../../../pic32c/lib/thumb/v6-m/nofp\libc-musl.a(__fmt_a.o)
 .debug_loc     0x0000000000000000      0xdb0 d:/mplab x ide/xcompilers/bin/bin/../../lib/gcc/pic32c/8.3.1/../../../../pic32c/lib/thumb/v6-m/nofp\libc-musl.a(__fmt_a.o)
 .debug_aranges
                0x0000000000000000       0x20 d:/mplab x ide/xcompilers/bin/bin/../../lib/gcc/pic32c/8.3.1/../../../../pic32c/lib/thumb/v6-m/nofp\libc-musl.a(__fmt_a.o)
 .debug_ranges  0x0000000000000000       0x10 d:/mplab x ide/xcompilers/bin/bin/../../lib/gcc/pic32c/8.3.1/../../../../pic32c/lib/thumb/v6-m/nofp\libc-musl.a(__fmt_a.o)
 .debug_line    0x0000000000000000      0x646 d:/mplab x ide/xcompilers/bin/bin/../../lib/gcc/pic32c/8.3.1/../../../../pic32c/lib/thumb/v6-m/nofp\libc-musl.a(__fmt_a.o)
 .debug_str     0x0000000000000000      0x333 d:/mplab x ide/xcompilers/bin/bin/../../lib/gcc/pic32c/8.3.1/../../../../pic32c/lib/thumb/v6-m/nofp\libc-musl.a(__fmt_a.o)
 .comment       0x0000000000000000       0x2c d:/mplab x ide/xcompilers/bin/bin/../../lib/gcc/pic32c/8.3.1/../../../../pic32c/lib/thumb/v6-m/nofp\libc-musl.a(__fmt_a.o)
 .note.GNU-stack
                0x0000000000000000        0x0 d:/mplab x ide/xcompilers/bin/bin/../../lib/gcc/pic32c/8.3.1/../../../../pic32c/lib/thumb/v6-m/nofp\libc-musl.a(__fmt_a.o)
 .debug_frame   0x0000000000000000       0x30 d:/mplab x ide/xcompilers/bin/bin/../../lib/gcc/pic32c/8.3.1/../../../../pic32c/lib/thumb/v6-m/nofp\libc-musl.a(__fmt_a.o)
 .ARM.attributes
                0x0000000000000000       0x2e d:/mplab x ide/xcompilers/bin/bin/../../lib/gcc/pic32c/8.3.1/../../../../pic32c/lib/thumb/v6-m/nofp\libc-musl.a(__fmt_a.o)
 .text          0x0000000000000000        0x0 d:/mplab x ide/xcompilers/bin/bin/../../lib/gcc/pic32c/8.3.1/../../../../pic32c/lib/thumb/v6-m/nofp\libc-musl.a(__fmt_d.o)
 .data          0x0000000000000000        0x0 d:/mplab x ide/xcompilers/bin/bin/../../lib/gcc/pic32c/8.3.1/../../../../pic32c/lib/thumb/v6-m/nofp\libc-musl.a(__fmt_d.o)
 .bss           0x0000000000000000        0x0 d:/mplab x ide/xcompilers/bin/bin/../../lib/gcc/pic32c/8.3.1/../../../../pic32c/lib/thumb/v6-m/nofp\libc-musl.a(__fmt_d.o)
 .xc_stack_usage
                0x0000000000000000       0x15 d:/mplab x ide/xcompilers/bin/bin/../../lib/gcc/pic32c/8.3.1/../../../../pic32c/lib/thumb/v6-m/nofp\libc-musl.a(__fmt_d.o)
 .text.__fmt_d  0x0000000000000000       0xb2 d:/mplab x ide/xcompilers/bin/bin/../../lib/gcc/pic32c/8.3.1/../../../../pic32c/lib/thumb/v6-m/nofp\libc-musl.a(__fmt_d.o)
 .xc_stack_usage.hdr
                0x0000000000000000        0xe d:/mplab x ide/xcompilers/bin/bin/../../lib/gcc/pic32c/8.3.1/../../../../pic32c/lib/thumb/v6-m/nofp\libc-musl.a(__fmt_d.o)
 .debug_info    0x0000000000000000      0x330 d:/mplab x ide/xcompilers/bin/bin/../../lib/gcc/pic32c/8.3.1/../../../../pic32c/lib/thumb/v6-m/nofp\libc-musl.a(__fmt_d.o)
 .debug_abbrev  0x0000000000000000      0x161 d:/mplab x ide/xcompilers/bin/bin/../../lib/gcc/pic32c/8.3.1/../../../../pic32c/lib/thumb/v6-m/nofp\libc-musl.a(__fmt_d.o)
 .debug_loc     0x0000000000000000      0x2a6 d:/mplab x ide/xcompilers/bin/bin/../../lib/gcc/pic32c/8.3.1/../../../../pic32c/lib/thumb/v6-m/nofp\libc-musl.a(__fmt_d.o)
 .debug_aranges
                0x0000000000000000       0x20 d:/mplab x ide/xcompilers/bin/bin/../../lib/gcc/pic32c/8.3.1/../../../../pic32c/lib/thumb/v6-m/nofp\libc-musl.a(__fmt_d.o)
 .debug_ranges  0x0000000000000000       0x10 d:/mplab x ide/xcompilers/bin/bin/../../lib/gcc/pic32c/8.3.1/../../../../pic32c/lib/thumb/v6-m/nofp\libc-musl.a(__fmt_d.o)
 .debug_line    0x0000000000000000      0x20b d:/mplab x ide/xcompilers/bin/bin/../../lib/gcc/pic32c/8.3.1/../../../../pic32c/lib/thumb/v6-m/nofp\libc-musl.a(__fmt_d.o)
 .debug_str     0x0000000000000000      0x2f5 d:/mplab x ide/xcompilers/bin/bin/../../lib/gcc/pic32c/8.3.1/../../../../pic32c/lib/thumb/v6-m/nofp\libc-musl.a(__fmt_d.o)
 .comment       0x0000000000000000       0x2c d:/mplab x ide/xcompilers/bin/bin/../../lib/gcc/pic32c/8.3.1/../../../../pic32c/lib/thumb/v6-m/nofp\libc-musl.a(__fmt_d.o)
 .note.GNU-stack
                0x0000000000000000        0x0 d:/mplab x ide/xcompilers/bin/bin/../../lib/gcc/pic32c/8.3.1/../../../../pic32c/lib/thumb/v6-m/nofp\libc-musl.a(__fmt_d.o)
 .debug_frame   0x0000000000000000       0x30 d:/mplab x ide/xcompilers/bin/bin/../../lib/gcc/pic32c/8.3.1/../../../../pic32c/lib/thumb/v6-m/nofp\libc-musl.a(__fmt_d.o)
 .ARM.attributes
                0x0000000000000000       0x2e d:/mplab x ide/xcompilers/bin/bin/../../lib/gcc/pic32c/8.3.1/../../../../pic32c/lib/thumb/v6-m/nofp\libc-musl.a(__fmt_d.o)
 .text          0x0000000000000000        0x0 d:/mplab x ide/xcompilers/bin/bin/../../lib/gcc/pic32c/8.3.1/../../../../pic32c/lib/thumb/v6-m/nofp\libc-musl.a(__fmt_fp.o)
 .data          0x0000000000000000        0x0 d:/mplab x ide/xcompilers/bin/bin/../../lib/gcc/pic32c/8.3.1/../../../../pic32c/lib/thumb/v6-m/nofp\libc-musl.a(__fmt_fp.o)
 .bss           0x0000000000000000        0x0 d:/mplab x ide/xcompilers/bin/bin/../../lib/gcc/pic32c/8.3.1/../../../../pic32c/lib/thumb/v6-m/nofp\libc-musl.a(__fmt_fp.o)
 .xc_stack_usage
                0x0000000000000000       0x16 d:/mplab x ide/xcompilers/bin/bin/../../lib/gcc/pic32c/8.3.1/../../../../pic32c/lib/thumb/v6-m/nofp\libc-musl.a(__fmt_fp.o)
 .text.__fmt_fp
                0x0000000000000000      0x4c0 d:/mplab x ide/xcompilers/bin/bin/../../lib/gcc/pic32c/8.3.1/../../../../pic32c/lib/thumb/v6-m/nofp\libc-musl.a(__fmt_fp.o)
 .rodata.str1.1
                0x0000000000000000       0x10 d:/mplab x ide/xcompilers/bin/bin/../../lib/gcc/pic32c/8.3.1/../../../../pic32c/lib/thumb/v6-m/nofp\libc-musl.a(__fmt_fp.o)
 .xc_stack_usage.hdr
                0x0000000000000000        0xe d:/mplab x ide/xcompilers/bin/bin/../../lib/gcc/pic32c/8.3.1/../../../../pic32c/lib/thumb/v6-m/nofp\libc-musl.a(__fmt_fp.o)
 .debug_info    0x0000000000000000      0x676 d:/mplab x ide/xcompilers/bin/bin/../../lib/gcc/pic32c/8.3.1/../../../../pic32c/lib/thumb/v6-m/nofp\libc-musl.a(__fmt_fp.o)
 .debug_abbrev  0x0000000000000000      0x1e3 d:/mplab x ide/xcompilers/bin/bin/../../lib/gcc/pic32c/8.3.1/../../../../pic32c/lib/thumb/v6-m/nofp\libc-musl.a(__fmt_fp.o)
 .debug_loc     0x0000000000000000      0xc94 d:/mplab x ide/xcompilers/bin/bin/../../lib/gcc/pic32c/8.3.1/../../../../pic32c/lib/thumb/v6-m/nofp\libc-musl.a(__fmt_fp.o)
 .debug_aranges
                0x0000000000000000       0x20 d:/mplab x ide/xcompilers/bin/bin/../../lib/gcc/pic32c/8.3.1/../../../../pic32c/lib/thumb/v6-m/nofp\libc-musl.a(__fmt_fp.o)
 .debug_ranges  0x0000000000000000       0x10 d:/mplab x ide/xcompilers/bin/bin/../../lib/gcc/pic32c/8.3.1/../../../../pic32c/lib/thumb/v6-m/nofp\libc-musl.a(__fmt_fp.o)
 .debug_line    0x0000000000000000      0x66d d:/mplab x ide/xcompilers/bin/bin/../../lib/gcc/pic32c/8.3.1/../../../../pic32c/lib/thumb/v6-m/nofp\libc-musl.a(__fmt_fp.o)
 .debug_str     0x0000000000000000      0x354 d:/mplab x ide/xcompilers/bin/bin/../../lib/gcc/pic32c/8.3.1/../../../../pic32c/lib/thumb/v6-m/nofp\libc-musl.a(__fmt_fp.o)
 .comment       0x0000000000000000       0x2c d:/mplab x ide/xcompilers/bin/bin/../../lib/gcc/pic32c/8.3.1/../../../../pic32c/lib/thumb/v6-m/nofp\libc-musl.a(__fmt_fp.o)
 .note.GNU-stack
                0x0000000000000000        0x0 d:/mplab x ide/xcompilers/bin/bin/../../lib/gcc/pic32c/8.3.1/../../../../pic32c/lib/thumb/v6-m/nofp\libc-musl.a(__fmt_fp.o)
 .debug_frame   0x0000000000000000       0x34 d:/mplab x ide/xcompilers/bin/bin/../../lib/gcc/pic32c/8.3.1/../../../../pic32c/lib/thumb/v6-m/nofp\libc-musl.a(__fmt_fp.o)
 .ARM.attributes
                0x0000000000000000       0x2e d:/mplab x ide/xcompilers/bin/bin/../../lib/gcc/pic32c/8.3.1/../../../../pic32c/lib/thumb/v6-m/nofp\libc-musl.a(__fmt_fp.o)
 .text          0x0000000000000000        0x0 d:/mplab x ide/xcompilers/bin/bin/../../lib/gcc/pic32c/8.3.1/../../../../pic32c/lib/thumb/v6-m/nofp\libc-musl.a(__fmt_o.o)
 .data          0x0000000000000000        0x0 d:/mplab x ide/xcompilers/bin/bin/../../lib/gcc/pic32c/8.3.1/../../../../pic32c/lib/thumb/v6-m/nofp\libc-musl.a(__fmt_o.o)
 .bss           0x0000000000000000        0x0 d:/mplab x ide/xcompilers/bin/bin/../../lib/gcc/pic32c/8.3.1/../../../../pic32c/lib/thumb/v6-m/nofp\libc-musl.a(__fmt_o.o)
 .xc_stack_usage
                0x0000000000000000       0x15 d:/mplab x ide/xcompilers/bin/bin/../../lib/gcc/pic32c/8.3.1/../../../../pic32c/lib/thumb/v6-m/nofp\libc-musl.a(__fmt_o.o)
 .text.__fmt_o  0x0000000000000000       0x6e d:/mplab x ide/xcompilers/bin/bin/../../lib/gcc/pic32c/8.3.1/../../../../pic32c/lib/thumb/v6-m/nofp\libc-musl.a(__fmt_o.o)
 .xc_stack_usage.hdr
                0x0000000000000000        0xe d:/mplab x ide/xcompilers/bin/bin/../../lib/gcc/pic32c/8.3.1/../../../../pic32c/lib/thumb/v6-m/nofp\libc-musl.a(__fmt_o.o)
 .debug_info    0x0000000000000000      0x301 d:/mplab x ide/xcompilers/bin/bin/../../lib/gcc/pic32c/8.3.1/../../../../pic32c/lib/thumb/v6-m/nofp\libc-musl.a(__fmt_o.o)
 .debug_abbrev  0x0000000000000000      0x161 d:/mplab x ide/xcompilers/bin/bin/../../lib/gcc/pic32c/8.3.1/../../../../pic32c/lib/thumb/v6-m/nofp\libc-musl.a(__fmt_o.o)
 .debug_loc     0x0000000000000000      0x12d d:/mplab x ide/xcompilers/bin/bin/../../lib/gcc/pic32c/8.3.1/../../../../pic32c/lib/thumb/v6-m/nofp\libc-musl.a(__fmt_o.o)
 .debug_aranges
                0x0000000000000000       0x20 d:/mplab x ide/xcompilers/bin/bin/../../lib/gcc/pic32c/8.3.1/../../../../pic32c/lib/thumb/v6-m/nofp\libc-musl.a(__fmt_o.o)
 .debug_ranges  0x0000000000000000       0x10 d:/mplab x ide/xcompilers/bin/bin/../../lib/gcc/pic32c/8.3.1/../../../../pic32c/lib/thumb/v6-m/nofp\libc-musl.a(__fmt_o.o)
 .debug_line    0x0000000000000000      0x1b6 d:/mplab x ide/xcompilers/bin/bin/../../lib/gcc/pic32c/8.3.1/../../../../pic32c/lib/thumb/v6-m/nofp\libc-musl.a(__fmt_o.o)
 .debug_str     0x0000000000000000      0x2f5 d:/mplab x ide/xcompilers/bin/bin/../../lib/gcc/pic32c/8.3.1/../../../../pic32c/lib/thumb/v6-m/nofp\libc-musl.a(__fmt_o.o)
 .comment       0x0000000000000000       0x2c d:/mplab x ide/xcompilers/bin/bin/../../lib/gcc/pic32c/8.3.1/../../../../pic32c/lib/thumb/v6-m/nofp\libc-musl.a(__fmt_o.o)
 .note.GNU-stack
                0x0000000000000000        0x0 d:/mplab x ide/xcompilers/bin/bin/../../lib/gcc/pic32c/8.3.1/../../../../pic32c/lib/thumb/v6-m/nofp\libc-musl.a(__fmt_o.o)
 .debug_frame   0x0000000000000000       0x30 d:/mplab x ide/xcompilers/bin/bin/../../lib/gcc/pic32c/8.3.1/../../../../pic32c/lib/thumb/v6-m/nofp\libc-musl.a(__fmt_o.o)
 .ARM.attributes
                0x0000000000000000       0x2e d:/mplab x ide/xcompilers/bin/bin/../../lib/gcc/pic32c/8.3.1/../../../../pic32c/lib/thumb/v6-m/nofp\libc-musl.a(__fmt_o.o)
 .text          0x0000000000000000        0x0 d:/mplab x ide/xcompilers/bin/bin/../../lib/gcc/pic32c/8.3.1/../../../../pic32c/lib/thumb/v6-m/nofp\libc-musl.a(__fmt_s.o)
 .data          0x0000000000000000        0x0 d:/mplab x ide/xcompilers/bin/bin/../../lib/gcc/pic32c/8.3.1/../../../../pic32c/lib/thumb/v6-m/nofp\libc-musl.a(__fmt_s.o)
 .bss           0x0000000000000000        0x0 d:/mplab x ide/xcompilers/bin/bin/../../lib/gcc/pic32c/8.3.1/../../../../pic32c/lib/thumb/v6-m/nofp\libc-musl.a(__fmt_s.o)
 .xc_stack_usage
                0x0000000000000000       0x15 d:/mplab x ide/xcompilers/bin/bin/../../lib/gcc/pic32c/8.3.1/../../../../pic32c/lib/thumb/v6-m/nofp\libc-musl.a(__fmt_s.o)
 .text.__fmt_s  0x0000000000000000       0x50 d:/mplab x ide/xcompilers/bin/bin/../../lib/gcc/pic32c/8.3.1/../../../../pic32c/lib/thumb/v6-m/nofp\libc-musl.a(__fmt_s.o)
 .rodata.str1.1
                0x0000000000000000        0x7 d:/mplab x ide/xcompilers/bin/bin/../../lib/gcc/pic32c/8.3.1/../../../../pic32c/lib/thumb/v6-m/nofp\libc-musl.a(__fmt_s.o)
 .xc_stack_usage.hdr
                0x0000000000000000        0xe d:/mplab x ide/xcompilers/bin/bin/../../lib/gcc/pic32c/8.3.1/../../../../pic32c/lib/thumb/v6-m/nofp\libc-musl.a(__fmt_s.o)
 .debug_info    0x0000000000000000      0x2e9 d:/mplab x ide/xcompilers/bin/bin/../../lib/gcc/pic32c/8.3.1/../../../../pic32c/lib/thumb/v6-m/nofp\libc-musl.a(__fmt_s.o)
 .debug_abbrev  0x0000000000000000      0x15e d:/mplab x ide/xcompilers/bin/bin/../../lib/gcc/pic32c/8.3.1/../../../../pic32c/lib/thumb/v6-m/nofp\libc-musl.a(__fmt_s.o)
 .debug_loc     0x0000000000000000      0x144 d:/mplab x ide/xcompilers/bin/bin/../../lib/gcc/pic32c/8.3.1/../../../../pic32c/lib/thumb/v6-m/nofp\libc-musl.a(__fmt_s.o)
 .debug_aranges
                0x0000000000000000       0x20 d:/mplab x ide/xcompilers/bin/bin/../../lib/gcc/pic32c/8.3.1/../../../../pic32c/lib/thumb/v6-m/nofp\libc-musl.a(__fmt_s.o)
 .debug_ranges  0x0000000000000000       0x10 d:/mplab x ide/xcompilers/bin/bin/../../lib/gcc/pic32c/8.3.1/../../../../pic32c/lib/thumb/v6-m/nofp\libc-musl.a(__fmt_s.o)
 .debug_line    0x0000000000000000      0x204 d:/mplab x ide/xcompilers/bin/bin/../../lib/gcc/pic32c/8.3.1/../../../../pic32c/lib/thumb/v6-m/nofp\libc-musl.a(__fmt_s.o)
 .debug_str     0x0000000000000000      0x2f9 d:/mplab x ide/xcompilers/bin/bin/../../lib/gcc/pic32c/8.3.1/../../../../pic32c/lib/thumb/v6-m/nofp\libc-musl.a(__fmt_s.o)
 .comment       0x0000000000000000       0x2c d:/mplab x ide/xcompilers/bin/bin/../../lib/gcc/pic32c/8.3.1/../../../../pic32c/lib/thumb/v6-m/nofp\libc-musl.a(__fmt_s.o)
 .note.GNU-stack
                0x0000000000000000        0x0 d:/mplab x ide/xcompilers/bin/bin/../../lib/gcc/pic32c/8.3.1/../../../../pic32c/lib/thumb/v6-m/nofp\libc-musl.a(__fmt_s.o)
 .debug_frame   0x0000000000000000       0x30 d:/mplab x ide/xcompilers/bin/bin/../../lib/gcc/pic32c/8.3.1/../../../../pic32c/lib/thumb/v6-m/nofp\libc-musl.a(__fmt_s.o)
 .ARM.attributes
                0x0000000000000000       0x2e d:/mplab x ide/xcompilers/bin/bin/../../lib/gcc/pic32c/8.3.1/../../../../pic32c/lib/thumb/v6-m/nofp\libc-musl.a(__fmt_s.o)
 .text          0x0000000000000000        0x0 d:/mplab x ide/xcompilers/bin/bin/../../lib/gcc/pic32c/8.3.1/../../../../pic32c/lib/thumb/v6-m/nofp\libc-musl.a(__fmt_u.o)
 .data          0x0000000000000000        0x0 d:/mplab x ide/xcompilers/bin/bin/../../lib/gcc/pic32c/8.3.1/../../../../pic32c/lib/thumb/v6-m/nofp\libc-musl.a(__fmt_u.o)
 .bss           0x0000000000000000        0x0 d:/mplab x ide/xcompilers/bin/bin/../../lib/gcc/pic32c/8.3.1/../../../../pic32c/lib/thumb/v6-m/nofp\libc-musl.a(__fmt_u.o)
 .xc_stack_usage
                0x0000000000000000       0x15 d:/mplab x ide/xcompilers/bin/bin/../../lib/gcc/pic32c/8.3.1/../../../../pic32c/lib/thumb/v6-m/nofp\libc-musl.a(__fmt_u.o)
 .text.__fmt_u  0x0000000000000000       0x56 d:/mplab x ide/xcompilers/bin/bin/../../lib/gcc/pic32c/8.3.1/../../../../pic32c/lib/thumb/v6-m/nofp\libc-musl.a(__fmt_u.o)
 .xc_stack_usage.hdr
                0x0000000000000000        0xe d:/mplab x ide/xcompilers/bin/bin/../../lib/gcc/pic32c/8.3.1/../../../../pic32c/lib/thumb/v6-m/nofp\libc-musl.a(__fmt_u.o)
 .debug_info    0x0000000000000000      0x301 d:/mplab x ide/xcompilers/bin/bin/../../lib/gcc/pic32c/8.3.1/../../../../pic32c/lib/thumb/v6-m/nofp\libc-musl.a(__fmt_u.o)
 .debug_abbrev  0x0000000000000000      0x161 d:/mplab x ide/xcompilers/bin/bin/../../lib/gcc/pic32c/8.3.1/../../../../pic32c/lib/thumb/v6-m/nofp\libc-musl.a(__fmt_u.o)
 .debug_loc     0x0000000000000000      0x12d d:/mplab x ide/xcompilers/bin/bin/../../lib/gcc/pic32c/8.3.1/../../../../pic32c/lib/thumb/v6-m/nofp\libc-musl.a(__fmt_u.o)
 .debug_aranges
                0x0000000000000000       0x20 d:/mplab x ide/xcompilers/bin/bin/../../lib/gcc/pic32c/8.3.1/../../../../pic32c/lib/thumb/v6-m/nofp\libc-musl.a(__fmt_u.o)
 .debug_ranges  0x0000000000000000       0x10 d:/mplab x ide/xcompilers/bin/bin/../../lib/gcc/pic32c/8.3.1/../../../../pic32c/lib/thumb/v6-m/nofp\libc-musl.a(__fmt_u.o)
 .debug_line    0x0000000000000000      0x187 d:/mplab x ide/xcompilers/bin/bin/../../lib/gcc/pic32c/8.3.1/../../../../pic32c/lib/thumb/v6-m/nofp\libc-musl.a(__fmt_u.o)
 .debug_str     0x0000000000000000      0x2f5 d:/mplab x ide/xcompilers/bin/bin/../../lib/gcc/pic32c/8.3.1/../../../../pic32c/lib/thumb/v6-m/nofp\libc-musl.a(__fmt_u.o)
 .comment       0x0000000000000000       0x2c d:/mplab x ide/xcompilers/bin/bin/../../lib/gcc/pic32c/8.3.1/../../../../pic32c/lib/thumb/v6-m/nofp\libc-musl.a(__fmt_u.o)
 .note.GNU-stack
                0x0000000000000000        0x0 d:/mplab x ide/xcompilers/bin/bin/../../lib/gcc/pic32c/8.3.1/../../../../pic32c/lib/thumb/v6-m/nofp\libc-musl.a(__fmt_u.o)
 .debug_frame   0x0000000000000000       0x30 d:/mplab x ide/xcompilers/bin/bin/../../lib/gcc/pic32c/8.3.1/../../../../pic32c/lib/thumb/v6-m/nofp\libc-musl.a(__fmt_u.o)
 .ARM.attributes
                0x0000000000000000       0x2e d:/mplab x ide/xcompilers/bin/bin/../../lib/gcc/pic32c/8.3.1/../../../../pic32c/lib/thumb/v6-m/nofp\libc-musl.a(__fmt_u.o)
 .text          0x0000000000000000        0x0 d:/mplab x ide/xcompilers/bin/bin/../../lib/gcc/pic32c/8.3.1/../../../../pic32c/lib/thumb/v6-m/nofp\libc-musl.a(__fmt_x.o)
 .data          0x0000000000000000        0x0 d:/mplab x ide/xcompilers/bin/bin/../../lib/gcc/pic32c/8.3.1/../../../../pic32c/lib/thumb/v6-m/nofp\libc-musl.a(__fmt_x.o)
 .bss           0x0000000000000000        0x0 d:/mplab x ide/xcompilers/bin/bin/../../lib/gcc/pic32c/8.3.1/../../../../pic32c/lib/thumb/v6-m/nofp\libc-musl.a(__fmt_x.o)
 .xc_stack_usage
                0x0000000000000000       0x15 d:/mplab x ide/xcompilers/bin/bin/../../lib/gcc/pic32c/8.3.1/../../../../pic32c/lib/thumb/v6-m/nofp\libc-musl.a(__fmt_x.o)
 .text.__fmt_x  0x0000000000000000      0x132 d:/mplab x ide/xcompilers/bin/bin/../../lib/gcc/pic32c/8.3.1/../../../../pic32c/lib/thumb/v6-m/nofp\libc-musl.a(__fmt_x.o)
 .xc_stack_usage.hdr
                0x0000000000000000        0xe d:/mplab x ide/xcompilers/bin/bin/../../lib/gcc/pic32c/8.3.1/../../../../pic32c/lib/thumb/v6-m/nofp\libc-musl.a(__fmt_x.o)
 .debug_info    0x0000000000000000      0x335 d:/mplab x ide/xcompilers/bin/bin/../../lib/gcc/pic32c/8.3.1/../../../../pic32c/lib/thumb/v6-m/nofp\libc-musl.a(__fmt_x.o)
 .debug_abbrev  0x0000000000000000      0x150 d:/mplab x ide/xcompilers/bin/bin/../../lib/gcc/pic32c/8.3.1/../../../../pic32c/lib/thumb/v6-m/nofp\libc-musl.a(__fmt_x.o)
 .debug_loc     0x0000000000000000      0x3be d:/mplab x ide/xcompilers/bin/bin/../../lib/gcc/pic32c/8.3.1/../../../../pic32c/lib/thumb/v6-m/nofp\libc-musl.a(__fmt_x.o)
 .debug_aranges
                0x0000000000000000       0x20 d:/mplab x ide/xcompilers/bin/bin/../../lib/gcc/pic32c/8.3.1/../../../../pic32c/lib/thumb/v6-m/nofp\libc-musl.a(__fmt_x.o)
 .debug_ranges  0x0000000000000000       0x10 d:/mplab x ide/xcompilers/bin/bin/../../lib/gcc/pic32c/8.3.1/../../../../pic32c/lib/thumb/v6-m/nofp\libc-musl.a(__fmt_x.o)
 .debug_line    0x0000000000000000      0x2ec d:/mplab x ide/xcompilers/bin/bin/../../lib/gcc/pic32c/8.3.1/../../../../pic32c/lib/thumb/v6-m/nofp\libc-musl.a(__fmt_x.o)
 .debug_str     0x0000000000000000      0x2f5 d:/mplab x ide/xcompilers/bin/bin/../../lib/gcc/pic32c/8.3.1/../../../../pic32c/lib/thumb/v6-m/nofp\libc-musl.a(__fmt_x.o)
 .comment       0x0000000000000000       0x2c d:/mplab x ide/xcompilers/bin/bin/../../lib/gcc/pic32c/8.3.1/../../../../pic32c/lib/thumb/v6-m/nofp\libc-musl.a(__fmt_x.o)
 .note.GNU-stack
                0x0000000000000000        0x0 d:/mplab x ide/xcompilers/bin/bin/../../lib/gcc/pic32c/8.3.1/../../../../pic32c/lib/thumb/v6-m/nofp\libc-musl.a(__fmt_x.o)
 .debug_frame   0x0000000000000000       0x30 d:/mplab x ide/xcompilers/bin/bin/../../lib/gcc/pic32c/8.3.1/../../../../pic32c/lib/thumb/v6-m/nofp\libc-musl.a(__fmt_x.o)
 .ARM.attributes
                0x0000000000000000       0x2e d:/mplab x ide/xcompilers/bin/bin/../../lib/gcc/pic32c/8.3.1/../../../../pic32c/lib/thumb/v6-m/nofp\libc-musl.a(__fmt_x.o)
 .text          0x0000000000000000        0x0 d:/mplab x ide/xcompilers/bin/bin/../../lib/gcc/pic32c/8.3.1/../../../../pic32c/lib/thumb/v6-m/nofp\libc-musl.a(__init_stdio.o)
 .data          0x0000000000000000        0x0 d:/mplab x ide/xcompilers/bin/bin/../../lib/gcc/pic32c/8.3.1/../../../../pic32c/lib/thumb/v6-m/nofp\libc-musl.a(__init_stdio.o)
 .bss           0x0000000000000000        0x0 d:/mplab x ide/xcompilers/bin/bin/../../lib/gcc/pic32c/8.3.1/../../../../pic32c/lib/thumb/v6-m/nofp\libc-musl.a(__init_stdio.o)
 .xc_stack_usage
                0x0000000000000000       0x2f d:/mplab x ide/xcompilers/bin/bin/../../lib/gcc/pic32c/8.3.1/../../../../pic32c/lib/thumb/v6-m/nofp\libc-musl.a(__init_stdio.o)
 .xc_stack_usage.hdr
                0x0000000000000000        0xe d:/mplab x ide/xcompilers/bin/bin/../../lib/gcc/pic32c/8.3.1/../../../../pic32c/lib/thumb/v6-m/nofp\libc-musl.a(__init_stdio.o)
 .text          0x0000000000000000        0x0 d:/mplab x ide/xcompilers/bin/bin/../../lib/gcc/pic32c/8.3.1/../../../../pic32c/lib/thumb/v6-m/nofp\libc-musl.a(__io_file_needed.o)
 .data          0x0000000000000000        0x0 d:/mplab x ide/xcompilers/bin/bin/../../lib/gcc/pic32c/8.3.1/../../../../pic32c/lib/thumb/v6-m/nofp\libc-musl.a(__io_file_needed.o)
 .bss           0x0000000000000000        0x0 d:/mplab x ide/xcompilers/bin/bin/../../lib/gcc/pic32c/8.3.1/../../../../pic32c/lib/thumb/v6-m/nofp\libc-musl.a(__io_file_needed.o)
 .xc_stack_usage
                0x0000000000000000       0x1e d:/mplab x ide/xcompilers/bin/bin/../../lib/gcc/pic32c/8.3.1/../../../../pic32c/lib/thumb/v6-m/nofp\libc-musl.a(__io_file_needed.o)
 .xc_stack_usage.hdr
                0x0000000000000000        0xe d:/mplab x ide/xcompilers/bin/bin/../../lib/gcc/pic32c/8.3.1/../../../../pic32c/lib/thumb/v6-m/nofp\libc-musl.a(__io_file_needed.o)
 .debug_info    0x0000000000000000       0xb8 d:/mplab x ide/xcompilers/bin/bin/../../lib/gcc/pic32c/8.3.1/../../../../pic32c/lib/thumb/v6-m/nofp\libc-musl.a(__io_file_needed.o)
 .debug_abbrev  0x0000000000000000       0x67 d:/mplab x ide/xcompilers/bin/bin/../../lib/gcc/pic32c/8.3.1/../../../../pic32c/lib/thumb/v6-m/nofp\libc-musl.a(__io_file_needed.o)
 .debug_loc     0x0000000000000000       0x20 d:/mplab x ide/xcompilers/bin/bin/../../lib/gcc/pic32c/8.3.1/../../../../pic32c/lib/thumb/v6-m/nofp\libc-musl.a(__io_file_needed.o)
 .debug_aranges
                0x0000000000000000       0x20 d:/mplab x ide/xcompilers/bin/bin/../../lib/gcc/pic32c/8.3.1/../../../../pic32c/lib/thumb/v6-m/nofp\libc-musl.a(__io_file_needed.o)
 .debug_ranges  0x0000000000000000       0x10 d:/mplab x ide/xcompilers/bin/bin/../../lib/gcc/pic32c/8.3.1/../../../../pic32c/lib/thumb/v6-m/nofp\libc-musl.a(__io_file_needed.o)
 .debug_line    0x0000000000000000       0xb6 d:/mplab x ide/xcompilers/bin/bin/../../lib/gcc/pic32c/8.3.1/../../../../pic32c/lib/thumb/v6-m/nofp\libc-musl.a(__io_file_needed.o)
 .debug_str     0x0000000000000000      0x2a7 d:/mplab x ide/xcompilers/bin/bin/../../lib/gcc/pic32c/8.3.1/../../../../pic32c/lib/thumb/v6-m/nofp\libc-musl.a(__io_file_needed.o)
 .comment       0x0000000000000000       0x2c d:/mplab x ide/xcompilers/bin/bin/../../lib/gcc/pic32c/8.3.1/../../../../pic32c/lib/thumb/v6-m/nofp\libc-musl.a(__io_file_needed.o)
 .note.GNU-stack
                0x0000000000000000        0x0 d:/mplab x ide/xcompilers/bin/bin/../../lib/gcc/pic32c/8.3.1/../../../../pic32c/lib/thumb/v6-m/nofp\libc-musl.a(__io_file_needed.o)
 .debug_frame   0x0000000000000000       0x28 d:/mplab x ide/xcompilers/bin/bin/../../lib/gcc/pic32c/8.3.1/../../../../pic32c/lib/thumb/v6-m/nofp\libc-musl.a(__io_file_needed.o)
 .ARM.attributes
                0x0000000000000000       0x2e d:/mplab x ide/xcompilers/bin/bin/../../lib/gcc/pic32c/8.3.1/../../../../pic32c/lib/thumb/v6-m/nofp\libc-musl.a(__io_file_needed.o)
 .text          0x0000000000000000        0x0 d:/mplab x ide/xcompilers/bin/bin/../../lib/gcc/pic32c/8.3.1/../../../../pic32c/lib/thumb/v6-m/nofp\libc-musl.a(toupper.o)
 .data          0x0000000000000000        0x0 d:/mplab x ide/xcompilers/bin/bin/../../lib/gcc/pic32c/8.3.1/../../../../pic32c/lib/thumb/v6-m/nofp\libc-musl.a(toupper.o)
 .bss           0x0000000000000000        0x0 d:/mplab x ide/xcompilers/bin/bin/../../lib/gcc/pic32c/8.3.1/../../../../pic32c/lib/thumb/v6-m/nofp\libc-musl.a(toupper.o)
 .xc_stack_usage
                0x0000000000000000       0x2e d:/mplab x ide/xcompilers/bin/bin/../../lib/gcc/pic32c/8.3.1/../../../../pic32c/lib/thumb/v6-m/nofp\libc-musl.a(toupper.o)
 .text.toupper  0x0000000000000000        0xe d:/mplab x ide/xcompilers/bin/bin/../../lib/gcc/pic32c/8.3.1/../../../../pic32c/lib/thumb/v6-m/nofp\libc-musl.a(toupper.o)
 .text.__toupper_l
                0x0000000000000000        0x8 d:/mplab x ide/xcompilers/bin/bin/../../lib/gcc/pic32c/8.3.1/../../../../pic32c/lib/thumb/v6-m/nofp\libc-musl.a(toupper.o)
 .xc_stack_usage.hdr
                0x0000000000000000        0xe d:/mplab x ide/xcompilers/bin/bin/../../lib/gcc/pic32c/8.3.1/../../../../pic32c/lib/thumb/v6-m/nofp\libc-musl.a(toupper.o)
 .debug_info    0x0000000000000000      0x131 d:/mplab x ide/xcompilers/bin/bin/../../lib/gcc/pic32c/8.3.1/../../../../pic32c/lib/thumb/v6-m/nofp\libc-musl.a(toupper.o)
 .debug_abbrev  0x0000000000000000       0xf4 d:/mplab x ide/xcompilers/bin/bin/../../lib/gcc/pic32c/8.3.1/../../../../pic32c/lib/thumb/v6-m/nofp\libc-musl.a(toupper.o)
 .debug_loc     0x0000000000000000       0x8f d:/mplab x ide/xcompilers/bin/bin/../../lib/gcc/pic32c/8.3.1/../../../../pic32c/lib/thumb/v6-m/nofp\libc-musl.a(toupper.o)
 .debug_aranges
                0x0000000000000000       0x28 d:/mplab x ide/xcompilers/bin/bin/../../lib/gcc/pic32c/8.3.1/../../../../pic32c/lib/thumb/v6-m/nofp\libc-musl.a(toupper.o)
 .debug_ranges  0x0000000000000000       0x18 d:/mplab x ide/xcompilers/bin/bin/../../lib/gcc/pic32c/8.3.1/../../../../pic32c/lib/thumb/v6-m/nofp\libc-musl.a(toupper.o)
 .debug_line    0x0000000000000000      0x15c d:/mplab x ide/xcompilers/bin/bin/../../lib/gcc/pic32c/8.3.1/../../../../pic32c/lib/thumb/v6-m/nofp\libc-musl.a(toupper.o)
 .debug_str     0x0000000000000000      0x249 d:/mplab x ide/xcompilers/bin/bin/../../lib/gcc/pic32c/8.3.1/../../../../pic32c/lib/thumb/v6-m/nofp\libc-musl.a(toupper.o)
 .comment       0x0000000000000000       0x2c d:/mplab x ide/xcompilers/bin/bin/../../lib/gcc/pic32c/8.3.1/../../../../pic32c/lib/thumb/v6-m/nofp\libc-musl.a(toupper.o)
 .note.GNU-stack
                0x0000000000000000        0x0 d:/mplab x ide/xcompilers/bin/bin/../../lib/gcc/pic32c/8.3.1/../../../../pic32c/lib/thumb/v6-m/nofp\libc-musl.a(toupper.o)
 .debug_frame   0x0000000000000000       0x38 d:/mplab x ide/xcompilers/bin/bin/../../lib/gcc/pic32c/8.3.1/../../../../pic32c/lib/thumb/v6-m/nofp\libc-musl.a(toupper.o)
 .ARM.attributes
                0x0000000000000000       0x2e d:/mplab x ide/xcompilers/bin/bin/../../lib/gcc/pic32c/8.3.1/../../../../pic32c/lib/thumb/v6-m/nofp\libc-musl.a(toupper.o)
 .text          0x0000000000000000        0x0 d:/mplab x ide/xcompilers/bin/bin/../../lib/gcc/pic32c/8.3.1/../../../../pic32c/lib/thumb/v6-m/nofp\libc-musl.a(__cvt_u.o)
 .data          0x0000000000000000        0x0 d:/mplab x ide/xcompilers/bin/bin/../../lib/gcc/pic32c/8.3.1/../../../../pic32c/lib/thumb/v6-m/nofp\libc-musl.a(__cvt_u.o)
 .bss           0x0000000000000000        0x0 d:/mplab x ide/xcompilers/bin/bin/../../lib/gcc/pic32c/8.3.1/../../../../pic32c/lib/thumb/v6-m/nofp\libc-musl.a(__cvt_u.o)
 .xc_stack_usage
                0x0000000000000000       0x15 d:/mplab x ide/xcompilers/bin/bin/../../lib/gcc/pic32c/8.3.1/../../../../pic32c/lib/thumb/v6-m/nofp\libc-musl.a(__cvt_u.o)
 .text.__cvt_u  0x0000000000000000       0x76 d:/mplab x ide/xcompilers/bin/bin/../../lib/gcc/pic32c/8.3.1/../../../../pic32c/lib/thumb/v6-m/nofp\libc-musl.a(__cvt_u.o)
 .xc_stack_usage.hdr
                0x0000000000000000        0xe d:/mplab x ide/xcompilers/bin/bin/../../lib/gcc/pic32c/8.3.1/../../../../pic32c/lib/thumb/v6-m/nofp\libc-musl.a(__cvt_u.o)
 .debug_info    0x0000000000000000      0x1cf d:/mplab x ide/xcompilers/bin/bin/../../lib/gcc/pic32c/8.3.1/../../../../pic32c/lib/thumb/v6-m/nofp\libc-musl.a(__cvt_u.o)
 .debug_abbrev  0x0000000000000000       0xf3 d:/mplab x ide/xcompilers/bin/bin/../../lib/gcc/pic32c/8.3.1/../../../../pic32c/lib/thumb/v6-m/nofp\libc-musl.a(__cvt_u.o)
 .debug_loc     0x0000000000000000      0x1d3 d:/mplab x ide/xcompilers/bin/bin/../../lib/gcc/pic32c/8.3.1/../../../../pic32c/lib/thumb/v6-m/nofp\libc-musl.a(__cvt_u.o)
 .debug_aranges
                0x0000000000000000       0x20 d:/mplab x ide/xcompilers/bin/bin/../../lib/gcc/pic32c/8.3.1/../../../../pic32c/lib/thumb/v6-m/nofp\libc-musl.a(__cvt_u.o)
 .debug_ranges  0x0000000000000000       0x10 d:/mplab x ide/xcompilers/bin/bin/../../lib/gcc/pic32c/8.3.1/../../../../pic32c/lib/thumb/v6-m/nofp\libc-musl.a(__cvt_u.o)
 .debug_line    0x0000000000000000      0x1d7 d:/mplab x ide/xcompilers/bin/bin/../../lib/gcc/pic32c/8.3.1/../../../../pic32c/lib/thumb/v6-m/nofp\libc-musl.a(__cvt_u.o)
 .debug_str     0x0000000000000000      0x2b1 d:/mplab x ide/xcompilers/bin/bin/../../lib/gcc/pic32c/8.3.1/../../../../pic32c/lib/thumb/v6-m/nofp\libc-musl.a(__cvt_u.o)
 .comment       0x0000000000000000       0x2c d:/mplab x ide/xcompilers/bin/bin/../../lib/gcc/pic32c/8.3.1/../../../../pic32c/lib/thumb/v6-m/nofp\libc-musl.a(__cvt_u.o)
 .note.GNU-stack
                0x0000000000000000        0x0 d:/mplab x ide/xcompilers/bin/bin/../../lib/gcc/pic32c/8.3.1/../../../../pic32c/lib/thumb/v6-m/nofp\libc-musl.a(__cvt_u.o)
 .debug_frame   0x0000000000000000       0x34 d:/mplab x ide/xcompilers/bin/bin/../../lib/gcc/pic32c/8.3.1/../../../../pic32c/lib/thumb/v6-m/nofp\libc-musl.a(__cvt_u.o)
 .ARM.attributes
                0x0000000000000000       0x2e d:/mplab x ide/xcompilers/bin/bin/../../lib/gcc/pic32c/8.3.1/../../../../pic32c/lib/thumb/v6-m/nofp\libc-musl.a(__cvt_u.o)
 .ARM.attributes
                0x0000000000000000       0x2c d:/mplab x ide/xcompilers/bin/bin/../../lib/gcc/pic32c/8.3.1/../../../../pic32c/lib/thumb/v6-m/nofp\libm-fast-emfloat.a(fma.o)
 .comment       0x0000000000000000       0x2c d:/mplab x ide/xcompilers/bin/bin/../../lib/gcc/pic32c/8.3.1/../../../../pic32c/lib/thumb/v6-m/nofp\libm-fast-emfloat.a(fma.o)
 .text.fma      0x0000000000000000       0x10 d:/mplab x ide/xcompilers/bin/bin/../../lib/gcc/pic32c/8.3.1/../../../../pic32c/lib/thumb/v6-m/nofp\libm-fast-emfloat.a(fma.o)
 .xc_stack_usage.hdr
                0x0000000000000000        0xe d:/mplab x ide/xcompilers/bin/bin/../../lib/gcc/pic32c/8.3.1/../../../../pic32c/lib/thumb/v6-m/nofp\libm-fast-emfloat.a(fma.o)
 .xc_stack_usage
                0x0000000000000000       0x11 d:/mplab x ide/xcompilers/bin/bin/../../lib/gcc/pic32c/8.3.1/../../../../pic32c/lib/thumb/v6-m/nofp\libm-fast-emfloat.a(fma.o)
 .ARM.attributes
                0x0000000000000000       0x2c d:/mplab x ide/xcompilers/bin/bin/../../lib/gcc/pic32c/8.3.1/../../../../pic32c/lib/thumb/v6-m/nofp\libm-fast-emfloat.a(floor.o)
 .comment       0x0000000000000000       0x2c d:/mplab x ide/xcompilers/bin/bin/../../lib/gcc/pic32c/8.3.1/../../../../pic32c/lib/thumb/v6-m/nofp\libm-fast-emfloat.a(floor.o)
 .text.floor    0x0000000000000000       0xb4 d:/mplab x ide/xcompilers/bin/bin/../../lib/gcc/pic32c/8.3.1/../../../../pic32c/lib/thumb/v6-m/nofp\libm-fast-emfloat.a(floor.o)
 .xc_stack_usage.hdr
                0x0000000000000000        0xe d:/mplab x ide/xcompilers/bin/bin/../../lib/gcc/pic32c/8.3.1/../../../../pic32c/lib/thumb/v6-m/nofp\libm-fast-emfloat.a(floor.o)
 .xc_stack_usage
                0x0000000000000000       0x13 d:/mplab x ide/xcompilers/bin/bin/../../lib/gcc/pic32c/8.3.1/../../../../pic32c/lib/thumb/v6-m/nofp\libm-fast-emfloat.a(floor.o)
 .ARM.attributes
                0x0000000000000000       0x1c d:/mplab x ide/xcompilers/bin/bin/../../lib/gcc/pic32c/8.3.1/../../../../pic32c/lib/thumb/v6-m/nofp\libm-fast-emfloat.a(__aeabi_dadd.o)
 .text.__aeabi_dadd
                0x0000000000000000      0x1c8 d:/mplab x ide/xcompilers/bin/bin/../../lib/gcc/pic32c/8.3.1/../../../../pic32c/lib/thumb/v6-m/nofp\libm-fast-emfloat.a(__aeabi_dadd.o)
 .xc_stack_usage.hdr
                0x0000000000000000        0xe d:/mplab x ide/xcompilers/bin/bin/../../lib/gcc/pic32c/8.3.1/../../../../pic32c/lib/thumb/v6-m/nofp\libm-fast-emfloat.a(__aeabi_dadd.o)
 .xc_stack_usage
                0x0000000000000000       0x41 d:/mplab x ide/xcompilers/bin/bin/../../lib/gcc/pic32c/8.3.1/../../../../pic32c/lib/thumb/v6-m/nofp\libm-fast-emfloat.a(__aeabi_dadd.o)
 .ARM.attributes
                0x0000000000000000       0x1c d:/mplab x ide/xcompilers/bin/bin/../../lib/gcc/pic32c/8.3.1/../../../../pic32c/lib/thumb/v6-m/nofp\libm-fast-emfloat.a(__aeabi_dsub.o)
 .text.__aeabi_dsub
                0x0000000000000000       0x10 d:/mplab x ide/xcompilers/bin/bin/../../lib/gcc/pic32c/8.3.1/../../../../pic32c/lib/thumb/v6-m/nofp\libm-fast-emfloat.a(__aeabi_dsub.o)
 .xc_stack_usage.hdr
                0x0000000000000000        0xe d:/mplab x ide/xcompilers/bin/bin/../../lib/gcc/pic32c/8.3.1/../../../../pic32c/lib/thumb/v6-m/nofp\libm-fast-emfloat.a(__aeabi_dsub.o)
 .xc_stack_usage
                0x0000000000000000       0x1a d:/mplab x ide/xcompilers/bin/bin/../../lib/gcc/pic32c/8.3.1/../../../../pic32c/lib/thumb/v6-m/nofp\libm-fast-emfloat.a(__aeabi_dsub.o)
 .ARM.attributes
                0x0000000000000000       0x1c d:/mplab x ide/xcompilers/bin/bin/../../lib/gcc/pic32c/8.3.1/../../../../pic32c/lib/thumb/v6-m/nofp\libm-fast-emfloat.a(__aeabi_dmul_aux.o)
 .text.__aeabi_dmul_aux
                0x0000000000000000      0x18a d:/mplab x ide/xcompilers/bin/bin/../../lib/gcc/pic32c/8.3.1/../../../../pic32c/lib/thumb/v6-m/nofp\libm-fast-emfloat.a(__aeabi_dmul_aux.o)
 .xc_stack_usage.hdr
                0x0000000000000000        0xe d:/mplab x ide/xcompilers/bin/bin/../../lib/gcc/pic32c/8.3.1/../../../../pic32c/lib/thumb/v6-m/nofp\libm-fast-emfloat.a(__aeabi_dmul_aux.o)
 .xc_stack_usage
                0x0000000000000000       0x38 d:/mplab x ide/xcompilers/bin/bin/../../lib/gcc/pic32c/8.3.1/../../../../pic32c/lib/thumb/v6-m/nofp\libm-fast-emfloat.a(__aeabi_dmul_aux.o)
 .ARM.attributes
                0x0000000000000000       0x1c d:/mplab x ide/xcompilers/bin/bin/../../lib/gcc/pic32c/8.3.1/../../../../pic32c/lib/thumb/v6-m/nofp\libm-fast-emfloat.a(__aeabi_ddiv.o)
 .text.__aeabi_ddiv
                0x0000000000000000       0xc4 d:/mplab x ide/xcompilers/bin/bin/../../lib/gcc/pic32c/8.3.1/../../../../pic32c/lib/thumb/v6-m/nofp\libm-fast-emfloat.a(__aeabi_ddiv.o)
 .xc_stack_usage.hdr
                0x0000000000000000        0xe d:/mplab x ide/xcompilers/bin/bin/../../lib/gcc/pic32c/8.3.1/../../../../pic32c/lib/thumb/v6-m/nofp\libm-fast-emfloat.a(__aeabi_ddiv.o)
 .xc_stack_usage
                0x0000000000000000       0x1a d:/mplab x ide/xcompilers/bin/bin/../../lib/gcc/pic32c/8.3.1/../../../../pic32c/lib/thumb/v6-m/nofp\libm-fast-emfloat.a(__aeabi_ddiv.o)
 .ARM.attributes
                0x0000000000000000       0x1c d:/mplab x ide/xcompilers/bin/bin/../../lib/gcc/pic32c/8.3.1/../../../../pic32c/lib/thumb/v6-m/nofp\libm-fast-emfloat.a(__aeabi_dcmple.o)
 .text.__aeabi_dcmple
                0x0000000000000000       0x44 d:/mplab x ide/xcompilers/bin/bin/../../lib/gcc/pic32c/8.3.1/../../../../pic32c/lib/thumb/v6-m/nofp\libm-fast-emfloat.a(__aeabi_dcmple.o)
 .xc_stack_usage.hdr
                0x0000000000000000        0xe d:/mplab x ide/xcompilers/bin/bin/../../lib/gcc/pic32c/8.3.1/../../../../pic32c/lib/thumb/v6-m/nofp\libm-fast-emfloat.a(__aeabi_dcmple.o)
 .xc_stack_usage
                0x0000000000000000       0x1c d:/mplab x ide/xcompilers/bin/bin/../../lib/gcc/pic32c/8.3.1/../../../../pic32c/lib/thumb/v6-m/nofp\libm-fast-emfloat.a(__aeabi_dcmple.o)
 .ARM.attributes
                0x0000000000000000       0x1c d:/mplab x ide/xcompilers/bin/bin/../../lib/gcc/pic32c/8.3.1/../../../../pic32c/lib/thumb/v6-m/nofp\libm-fast-emfloat.a(__aeabi_dcmpeq.o)
 .text.__aeabi_dcmpeq
                0x0000000000000000       0x2e d:/mplab x ide/xcompilers/bin/bin/../../lib/gcc/pic32c/8.3.1/../../../../pic32c/lib/thumb/v6-m/nofp\libm-fast-emfloat.a(__aeabi_dcmpeq.o)
 .xc_stack_usage.hdr
                0x0000000000000000        0xe d:/mplab x ide/xcompilers/bin/bin/../../lib/gcc/pic32c/8.3.1/../../../../pic32c/lib/thumb/v6-m/nofp\libm-fast-emfloat.a(__aeabi_dcmpeq.o)
 .xc_stack_usage
                0x0000000000000000       0x1c d:/mplab x ide/xcompilers/bin/bin/../../lib/gcc/pic32c/8.3.1/../../../../pic32c/lib/thumb/v6-m/nofp\libm-fast-emfloat.a(__aeabi_dcmpeq.o)
 .ARM.attributes
                0x0000000000000000       0x1c d:/mplab x ide/xcompilers/bin/bin/../../lib/gcc/pic32c/8.3.1/../../../../pic32c/lib/thumb/v6-m/nofp\libm-fast-emfloat.a(__aeabi_dcmpgt.o)
 .text.__aeabi_dcmpgt
                0x0000000000000000       0x3e d:/mplab x ide/xcompilers/bin/bin/../../lib/gcc/pic32c/8.3.1/../../../../pic32c/lib/thumb/v6-m/nofp\libm-fast-emfloat.a(__aeabi_dcmpgt.o)
 .xc_stack_usage.hdr
                0x0000000000000000        0xe d:/mplab x ide/xcompilers/bin/bin/../../lib/gcc/pic32c/8.3.1/../../../../pic32c/lib/thumb/v6-m/nofp\libm-fast-emfloat.a(__aeabi_dcmpgt.o)
 .xc_stack_usage
                0x0000000000000000       0x1c d:/mplab x ide/xcompilers/bin/bin/../../lib/gcc/pic32c/8.3.1/../../../../pic32c/lib/thumb/v6-m/nofp\libm-fast-emfloat.a(__aeabi_dcmpgt.o)
 .ARM.attributes
                0x0000000000000000       0x1c d:/mplab x ide/xcompilers/bin/bin/../../lib/gcc/pic32c/8.3.1/../../../../pic32c/lib/thumb/v6-m/nofp\libm-fast-emfloat.a(__aeabi_dcmplt.o)
 .text.__aeabi_dcmplt
                0x0000000000000000       0x3e d:/mplab x ide/xcompilers/bin/bin/../../lib/gcc/pic32c/8.3.1/../../../../pic32c/lib/thumb/v6-m/nofp\libm-fast-emfloat.a(__aeabi_dcmplt.o)
 .xc_stack_usage.hdr
                0x0000000000000000        0xe d:/mplab x ide/xcompilers/bin/bin/../../lib/gcc/pic32c/8.3.1/../../../../pic32c/lib/thumb/v6-m/nofp\libm-fast-emfloat.a(__aeabi_dcmplt.o)
 .xc_stack_usage
                0x0000000000000000       0x1c d:/mplab x ide/xcompilers/bin/bin/../../lib/gcc/pic32c/8.3.1/../../../../pic32c/lib/thumb/v6-m/nofp\libm-fast-emfloat.a(__aeabi_dcmplt.o)
 .ARM.attributes
                0x0000000000000000       0x1c d:/mplab x ide/xcompilers/bin/bin/../../lib/gcc/pic32c/8.3.1/../../../../pic32c/lib/thumb/v6-m/nofp\libm-fast-emfloat.a(__aeabi_d2iz.o)
 .text.__aeabi_d2iz
                0x0000000000000000       0x34 d:/mplab x ide/xcompilers/bin/bin/../../lib/gcc/pic32c/8.3.1/../../../../pic32c/lib/thumb/v6-m/nofp\libm-fast-emfloat.a(__aeabi_d2iz.o)
 .xc_stack_usage.hdr
                0x0000000000000000        0xe d:/mplab x ide/xcompilers/bin/bin/../../lib/gcc/pic32c/8.3.1/../../../../pic32c/lib/thumb/v6-m/nofp\libm-fast-emfloat.a(__aeabi_d2iz.o)
 .xc_stack_usage
                0x0000000000000000       0x1a d:/mplab x ide/xcompilers/bin/bin/../../lib/gcc/pic32c/8.3.1/../../../../pic32c/lib/thumb/v6-m/nofp\libm-fast-emfloat.a(__aeabi_d2iz.o)
 .ARM.attributes
                0x0000000000000000       0x1c d:/mplab x ide/xcompilers/bin/bin/../../lib/gcc/pic32c/8.3.1/../../../../pic32c/lib/thumb/v6-m/nofp\libm-fast-emfloat.a(__aeabi_d2uiz.o)
 .text.__aeabi_d2uiz
                0x0000000000000000       0x2e d:/mplab x ide/xcompilers/bin/bin/../../lib/gcc/pic32c/8.3.1/../../../../pic32c/lib/thumb/v6-m/nofp\libm-fast-emfloat.a(__aeabi_d2uiz.o)
 .xc_stack_usage.hdr
                0x0000000000000000        0xe d:/mplab x ide/xcompilers/bin/bin/../../lib/gcc/pic32c/8.3.1/../../../../pic32c/lib/thumb/v6-m/nofp\libm-fast-emfloat.a(__aeabi_d2uiz.o)
 .xc_stack_usage
                0x0000000000000000       0x43 d:/mplab x ide/xcompilers/bin/bin/../../lib/gcc/pic32c/8.3.1/../../../../pic32c/lib/thumb/v6-m/nofp\libm-fast-emfloat.a(__aeabi_d2uiz.o)
 .text          0x0000000000000000       0x8c d:/mplab x ide/xcompilers/bin/bin/../../lib/gcc/pic32c/8.3.1/thumb/v6-m/nofp\libgcc.a(_udivsi3.o)
 .data          0x0000000000000000        0x0 d:/mplab x ide/xcompilers/bin/bin/../../lib/gcc/pic32c/8.3.1/thumb/v6-m/nofp\libgcc.a(_udivsi3.o)
 .bss           0x0000000000000000        0x0 d:/mplab x ide/xcompilers/bin/bin/../../lib/gcc/pic32c/8.3.1/thumb/v6-m/nofp\libgcc.a(_udivsi3.o)
 .debug_frame   0x0000000000000000       0x20 d:/mplab x ide/xcompilers/bin/bin/../../lib/gcc/pic32c/8.3.1/thumb/v6-m/nofp\libgcc.a(_udivsi3.o)
 .xc_stack_usage.hdr
                0x0000000000000000        0xe d:/mplab x ide/xcompilers/bin/bin/../../lib/gcc/pic32c/8.3.1/thumb/v6-m/nofp\libgcc.a(_udivsi3.o)
 .xc_stack_usage
                0x0000000000000000       0x35 d:/mplab x ide/xcompilers/bin/bin/../../lib/gcc/pic32c/8.3.1/thumb/v6-m/nofp\libgcc.a(_udivsi3.o)
 .debug_line    0x0000000000000000       0xa8 d:/mplab x ide/xcompilers/bin/bin/../../lib/gcc/pic32c/8.3.1/thumb/v6-m/nofp\libgcc.a(_udivsi3.o)
 .debug_info    0x0000000000000000       0x26 d:/mplab x ide/xcompilers/bin/bin/../../lib/gcc/pic32c/8.3.1/thumb/v6-m/nofp\libgcc.a(_udivsi3.o)
 .debug_abbrev  0x0000000000000000       0x14 d:/mplab x ide/xcompilers/bin/bin/../../lib/gcc/pic32c/8.3.1/thumb/v6-m/nofp\libgcc.a(_udivsi3.o)
 .debug_aranges
                0x0000000000000000       0x20 d:/mplab x ide/xcompilers/bin/bin/../../lib/gcc/pic32c/8.3.1/thumb/v6-m/nofp\libgcc.a(_udivsi3.o)
 .debug_str     0x0000000000000000       0xd6 d:/mplab x ide/xcompilers/bin/bin/../../lib/gcc/pic32c/8.3.1/thumb/v6-m/nofp\libgcc.a(_udivsi3.o)
 .ARM.attributes
                0x0000000000000000       0x1e d:/mplab x ide/xcompilers/bin/bin/../../lib/gcc/pic32c/8.3.1/thumb/v6-m/nofp\libgcc.a(_udivsi3.o)
 .text          0x0000000000000000       0xa8 d:/mplab x ide/xcompilers/bin/bin/../../lib/gcc/pic32c/8.3.1/thumb/v6-m/nofp\libgcc.a(_divsi3.o)
 .data          0x0000000000000000        0x0 d:/mplab x ide/xcompilers/bin/bin/../../lib/gcc/pic32c/8.3.1/thumb/v6-m/nofp\libgcc.a(_divsi3.o)
 .bss           0x0000000000000000        0x0 d:/mplab x ide/xcompilers/bin/bin/../../lib/gcc/pic32c/8.3.1/thumb/v6-m/nofp\libgcc.a(_divsi3.o)
 .debug_frame   0x0000000000000000       0x20 d:/mplab x ide/xcompilers/bin/bin/../../lib/gcc/pic32c/8.3.1/thumb/v6-m/nofp\libgcc.a(_divsi3.o)
 .xc_stack_usage.hdr
                0x0000000000000000        0xe d:/mplab x ide/xcompilers/bin/bin/../../lib/gcc/pic32c/8.3.1/thumb/v6-m/nofp\libgcc.a(_divsi3.o)
 .xc_stack_usage
                0x0000000000000000       0x33 d:/mplab x ide/xcompilers/bin/bin/../../lib/gcc/pic32c/8.3.1/thumb/v6-m/nofp\libgcc.a(_divsi3.o)
 .debug_line    0x0000000000000000       0xb6 d:/mplab x ide/xcompilers/bin/bin/../../lib/gcc/pic32c/8.3.1/thumb/v6-m/nofp\libgcc.a(_divsi3.o)
 .debug_info    0x0000000000000000       0x26 d:/mplab x ide/xcompilers/bin/bin/../../lib/gcc/pic32c/8.3.1/thumb/v6-m/nofp\libgcc.a(_divsi3.o)
 .debug_abbrev  0x0000000000000000       0x14 d:/mplab x ide/xcompilers/bin/bin/../../lib/gcc/pic32c/8.3.1/thumb/v6-m/nofp\libgcc.a(_divsi3.o)
 .debug_aranges
                0x0000000000000000       0x20 d:/mplab x ide/xcompilers/bin/bin/../../lib/gcc/pic32c/8.3.1/thumb/v6-m/nofp\libgcc.a(_divsi3.o)
 .debug_str     0x0000000000000000       0xd6 d:/mplab x ide/xcompilers/bin/bin/../../lib/gcc/pic32c/8.3.1/thumb/v6-m/nofp\libgcc.a(_divsi3.o)
 .ARM.attributes
                0x0000000000000000       0x1e d:/mplab x ide/xcompilers/bin/bin/../../lib/gcc/pic32c/8.3.1/thumb/v6-m/nofp\libgcc.a(_divsi3.o)
 .text          0x0000000000000000        0x4 d:/mplab x ide/xcompilers/bin/bin/../../lib/gcc/pic32c/8.3.1/thumb/v6-m/nofp\libgcc.a(_dvmd_tls.o)
 .data          0x0000000000000000        0x0 d:/mplab x ide/xcompilers/bin/bin/../../lib/gcc/pic32c/8.3.1/thumb/v6-m/nofp\libgcc.a(_dvmd_tls.o)
 .bss           0x0000000000000000        0x0 d:/mplab x ide/xcompilers/bin/bin/../../lib/gcc/pic32c/8.3.1/thumb/v6-m/nofp\libgcc.a(_dvmd_tls.o)
 .xc_stack_usage.hdr
                0x0000000000000000        0xe d:/mplab x ide/xcompilers/bin/bin/../../lib/gcc/pic32c/8.3.1/thumb/v6-m/nofp\libgcc.a(_dvmd_tls.o)
 .xc_stack_usage
                0x0000000000000000       0x36 d:/mplab x ide/xcompilers/bin/bin/../../lib/gcc/pic32c/8.3.1/thumb/v6-m/nofp\libgcc.a(_dvmd_tls.o)
 .debug_line    0x0000000000000000       0x91 d:/mplab x ide/xcompilers/bin/bin/../../lib/gcc/pic32c/8.3.1/thumb/v6-m/nofp\libgcc.a(_dvmd_tls.o)
 .debug_info    0x0000000000000000       0x26 d:/mplab x ide/xcompilers/bin/bin/../../lib/gcc/pic32c/8.3.1/thumb/v6-m/nofp\libgcc.a(_dvmd_tls.o)
 .debug_abbrev  0x0000000000000000       0x14 d:/mplab x ide/xcompilers/bin/bin/../../lib/gcc/pic32c/8.3.1/thumb/v6-m/nofp\libgcc.a(_dvmd_tls.o)
 .debug_aranges
                0x0000000000000000       0x20 d:/mplab x ide/xcompilers/bin/bin/../../lib/gcc/pic32c/8.3.1/thumb/v6-m/nofp\libgcc.a(_dvmd_tls.o)
 .debug_str     0x0000000000000000       0xd6 d:/mplab x ide/xcompilers/bin/bin/../../lib/gcc/pic32c/8.3.1/thumb/v6-m/nofp\libgcc.a(_dvmd_tls.o)
 .ARM.attributes
                0x0000000000000000       0x1e d:/mplab x ide/xcompilers/bin/bin/../../lib/gcc/pic32c/8.3.1/thumb/v6-m/nofp\libgcc.a(_dvmd_tls.o)
 .text          0x0000000000000000       0x48 d:/mplab x ide/xcompilers/bin/bin/../../lib/gcc/pic32c/8.3.1/thumb/v6-m/nofp\libgcc.a(_aeabi_ldivmod.o)
 .data          0x0000000000000000        0x0 d:/mplab x ide/xcompilers/bin/bin/../../lib/gcc/pic32c/8.3.1/thumb/v6-m/nofp\libgcc.a(_aeabi_ldivmod.o)
 .bss           0x0000000000000000        0x0 d:/mplab x ide/xcompilers/bin/bin/../../lib/gcc/pic32c/8.3.1/thumb/v6-m/nofp\libgcc.a(_aeabi_ldivmod.o)
 .xc_stack_usage.hdr
                0x0000000000000000        0xe d:/mplab x ide/xcompilers/bin/bin/../../lib/gcc/pic32c/8.3.1/thumb/v6-m/nofp\libgcc.a(_aeabi_ldivmod.o)
 .xc_stack_usage
                0x0000000000000000       0x1d d:/mplab x ide/xcompilers/bin/bin/../../lib/gcc/pic32c/8.3.1/thumb/v6-m/nofp\libgcc.a(_aeabi_ldivmod.o)
 .debug_line    0x0000000000000000       0x9c d:/mplab x ide/xcompilers/bin/bin/../../lib/gcc/pic32c/8.3.1/thumb/v6-m/nofp\libgcc.a(_aeabi_ldivmod.o)
 .debug_info    0x0000000000000000       0x26 d:/mplab x ide/xcompilers/bin/bin/../../lib/gcc/pic32c/8.3.1/thumb/v6-m/nofp\libgcc.a(_aeabi_ldivmod.o)
 .debug_abbrev  0x0000000000000000       0x14 d:/mplab x ide/xcompilers/bin/bin/../../lib/gcc/pic32c/8.3.1/thumb/v6-m/nofp\libgcc.a(_aeabi_ldivmod.o)
 .debug_aranges
                0x0000000000000000       0x20 d:/mplab x ide/xcompilers/bin/bin/../../lib/gcc/pic32c/8.3.1/thumb/v6-m/nofp\libgcc.a(_aeabi_ldivmod.o)
 .debug_str     0x0000000000000000       0xd6 d:/mplab x ide/xcompilers/bin/bin/../../lib/gcc/pic32c/8.3.1/thumb/v6-m/nofp\libgcc.a(_aeabi_ldivmod.o)
 .ARM.attributes
                0x0000000000000000       0x1e d:/mplab x ide/xcompilers/bin/bin/../../lib/gcc/pic32c/8.3.1/thumb/v6-m/nofp\libgcc.a(_aeabi_ldivmod.o)
 .text          0x0000000000000000       0x40 d:/mplab x ide/xcompilers/bin/bin/../../lib/gcc/pic32c/8.3.1/thumb/v6-m/nofp\libgcc.a(_aeabi_uldivmod.o)
 .data          0x0000000000000000        0x0 d:/mplab x ide/xcompilers/bin/bin/../../lib/gcc/pic32c/8.3.1/thumb/v6-m/nofp\libgcc.a(_aeabi_uldivmod.o)
 .bss           0x0000000000000000        0x0 d:/mplab x ide/xcompilers/bin/bin/../../lib/gcc/pic32c/8.3.1/thumb/v6-m/nofp\libgcc.a(_aeabi_uldivmod.o)
 .xc_stack_usage.hdr
                0x0000000000000000        0xe d:/mplab x ide/xcompilers/bin/bin/../../lib/gcc/pic32c/8.3.1/thumb/v6-m/nofp\libgcc.a(_aeabi_uldivmod.o)
 .xc_stack_usage
                0x0000000000000000       0x1e d:/mplab x ide/xcompilers/bin/bin/../../lib/gcc/pic32c/8.3.1/thumb/v6-m/nofp\libgcc.a(_aeabi_uldivmod.o)
 .debug_line    0x0000000000000000       0x9c d:/mplab x ide/xcompilers/bin/bin/../../lib/gcc/pic32c/8.3.1/thumb/v6-m/nofp\libgcc.a(_aeabi_uldivmod.o)
 .debug_info    0x0000000000000000       0x26 d:/mplab x ide/xcompilers/bin/bin/../../lib/gcc/pic32c/8.3.1/thumb/v6-m/nofp\libgcc.a(_aeabi_uldivmod.o)
 .debug_abbrev  0x0000000000000000       0x14 d:/mplab x ide/xcompilers/bin/bin/../../lib/gcc/pic32c/8.3.1/thumb/v6-m/nofp\libgcc.a(_aeabi_uldivmod.o)
 .debug_aranges
                0x0000000000000000       0x20 d:/mplab x ide/xcompilers/bin/bin/../../lib/gcc/pic32c/8.3.1/thumb/v6-m/nofp\libgcc.a(_aeabi_uldivmod.o)
 .debug_str     0x0000000000000000       0xd6 d:/mplab x ide/xcompilers/bin/bin/../../lib/gcc/pic32c/8.3.1/thumb/v6-m/nofp\libgcc.a(_aeabi_uldivmod.o)
 .ARM.attributes
                0x0000000000000000       0x1e d:/mplab x ide/xcompilers/bin/bin/../../lib/gcc/pic32c/8.3.1/thumb/v6-m/nofp\libgcc.a(_aeabi_uldivmod.o)
 .text          0x0000000000000000       0x44 d:/mplab x ide/xcompilers/bin/bin/../../lib/gcc/pic32c/8.3.1/thumb/v6-m/nofp\libgcc.a(_muldi3.o)
 .data          0x0000000000000000        0x0 d:/mplab x ide/xcompilers/bin/bin/../../lib/gcc/pic32c/8.3.1/thumb/v6-m/nofp\libgcc.a(_muldi3.o)
 .bss           0x0000000000000000        0x0 d:/mplab x ide/xcompilers/bin/bin/../../lib/gcc/pic32c/8.3.1/thumb/v6-m/nofp\libgcc.a(_muldi3.o)
 .xc_stack_usage
                0x0000000000000000       0x16 d:/mplab x ide/xcompilers/bin/bin/../../lib/gcc/pic32c/8.3.1/thumb/v6-m/nofp\libgcc.a(_muldi3.o)
 .xc_stack_usage.hdr
                0x0000000000000000        0xe d:/mplab x ide/xcompilers/bin/bin/../../lib/gcc/pic32c/8.3.1/thumb/v6-m/nofp\libgcc.a(_muldi3.o)
 .debug_info    0x0000000000000000      0x243 d:/mplab x ide/xcompilers/bin/bin/../../lib/gcc/pic32c/8.3.1/thumb/v6-m/nofp\libgcc.a(_muldi3.o)
 .debug_abbrev  0x0000000000000000      0x10b d:/mplab x ide/xcompilers/bin/bin/../../lib/gcc/pic32c/8.3.1/thumb/v6-m/nofp\libgcc.a(_muldi3.o)
 .debug_loc     0x0000000000000000      0x176 d:/mplab x ide/xcompilers/bin/bin/../../lib/gcc/pic32c/8.3.1/thumb/v6-m/nofp\libgcc.a(_muldi3.o)
 .debug_aranges
                0x0000000000000000       0x20 d:/mplab x ide/xcompilers/bin/bin/../../lib/gcc/pic32c/8.3.1/thumb/v6-m/nofp\libgcc.a(_muldi3.o)
 .debug_ranges  0x0000000000000000       0x28 d:/mplab x ide/xcompilers/bin/bin/../../lib/gcc/pic32c/8.3.1/thumb/v6-m/nofp\libgcc.a(_muldi3.o)
 .debug_line    0x0000000000000000       0xe7 d:/mplab x ide/xcompilers/bin/bin/../../lib/gcc/pic32c/8.3.1/thumb/v6-m/nofp\libgcc.a(_muldi3.o)
 .debug_str     0x0000000000000000      0x2af d:/mplab x ide/xcompilers/bin/bin/../../lib/gcc/pic32c/8.3.1/thumb/v6-m/nofp\libgcc.a(_muldi3.o)
 .comment       0x0000000000000000       0x2c d:/mplab x ide/xcompilers/bin/bin/../../lib/gcc/pic32c/8.3.1/thumb/v6-m/nofp\libgcc.a(_muldi3.o)
 .debug_frame   0x0000000000000000       0x34 d:/mplab x ide/xcompilers/bin/bin/../../lib/gcc/pic32c/8.3.1/thumb/v6-m/nofp\libgcc.a(_muldi3.o)
 .ARM.attributes
                0x0000000000000000       0x2c d:/mplab x ide/xcompilers/bin/bin/../../lib/gcc/pic32c/8.3.1/thumb/v6-m/nofp\libgcc.a(_muldi3.o)
 .text          0x0000000000000000       0xe2 d:/mplab x ide/xcompilers/bin/bin/../../lib/gcc/pic32c/8.3.1/thumb/v6-m/nofp\libgcc.a(_udivmoddi4.o)
 .data          0x0000000000000000        0x0 d:/mplab x ide/xcompilers/bin/bin/../../lib/gcc/pic32c/8.3.1/thumb/v6-m/nofp\libgcc.a(_udivmoddi4.o)
 .bss           0x0000000000000000        0x0 d:/mplab x ide/xcompilers/bin/bin/../../lib/gcc/pic32c/8.3.1/thumb/v6-m/nofp\libgcc.a(_udivmoddi4.o)
 .xc_stack_usage
                0x0000000000000000       0x1a d:/mplab x ide/xcompilers/bin/bin/../../lib/gcc/pic32c/8.3.1/thumb/v6-m/nofp\libgcc.a(_udivmoddi4.o)
 .ARM.extab     0x0000000000000000        0x0 d:/mplab x ide/xcompilers/bin/bin/../../lib/gcc/pic32c/8.3.1/thumb/v6-m/nofp\libgcc.a(_udivmoddi4.o)
 .ARM.exidx     0x0000000000000000        0x8 d:/mplab x ide/xcompilers/bin/bin/../../lib/gcc/pic32c/8.3.1/thumb/v6-m/nofp\libgcc.a(_udivmoddi4.o)
 .xc_stack_usage.hdr
                0x0000000000000000        0xe d:/mplab x ide/xcompilers/bin/bin/../../lib/gcc/pic32c/8.3.1/thumb/v6-m/nofp\libgcc.a(_udivmoddi4.o)
 .debug_info    0x0000000000000000      0x193 d:/mplab x ide/xcompilers/bin/bin/../../lib/gcc/pic32c/8.3.1/thumb/v6-m/nofp\libgcc.a(_udivmoddi4.o)
 .debug_abbrev  0x0000000000000000       0x99 d:/mplab x ide/xcompilers/bin/bin/../../lib/gcc/pic32c/8.3.1/thumb/v6-m/nofp\libgcc.a(_udivmoddi4.o)
 .debug_loc     0x0000000000000000      0x2e4 d:/mplab x ide/xcompilers/bin/bin/../../lib/gcc/pic32c/8.3.1/thumb/v6-m/nofp\libgcc.a(_udivmoddi4.o)
 .debug_aranges
                0x0000000000000000       0x20 d:/mplab x ide/xcompilers/bin/bin/../../lib/gcc/pic32c/8.3.1/thumb/v6-m/nofp\libgcc.a(_udivmoddi4.o)
 .debug_line    0x0000000000000000      0x188 d:/mplab x ide/xcompilers/bin/bin/../../lib/gcc/pic32c/8.3.1/thumb/v6-m/nofp\libgcc.a(_udivmoddi4.o)
 .debug_str     0x0000000000000000      0x27c d:/mplab x ide/xcompilers/bin/bin/../../lib/gcc/pic32c/8.3.1/thumb/v6-m/nofp\libgcc.a(_udivmoddi4.o)
 .comment       0x0000000000000000       0x2c d:/mplab x ide/xcompilers/bin/bin/../../lib/gcc/pic32c/8.3.1/thumb/v6-m/nofp\libgcc.a(_udivmoddi4.o)
 .debug_frame   0x0000000000000000       0x30 d:/mplab x ide/xcompilers/bin/bin/../../lib/gcc/pic32c/8.3.1/thumb/v6-m/nofp\libgcc.a(_udivmoddi4.o)
 .ARM.attributes
                0x0000000000000000       0x2c d:/mplab x ide/xcompilers/bin/bin/../../lib/gcc/pic32c/8.3.1/thumb/v6-m/nofp\libgcc.a(_udivmoddi4.o)
 .text          0x0000000000000000       0x34 d:/mplab x ide/xcompilers/bin/bin/../../lib/gcc/pic32c/8.3.1/thumb/v6-m/nofp\libgcc.a(bpabi.o)
 .data          0x0000000000000000        0x0 d:/mplab x ide/xcompilers/bin/bin/../../lib/gcc/pic32c/8.3.1/thumb/v6-m/nofp\libgcc.a(bpabi.o)
 .bss           0x0000000000000000        0x0 d:/mplab x ide/xcompilers/bin/bin/../../lib/gcc/pic32c/8.3.1/thumb/v6-m/nofp\libgcc.a(bpabi.o)
 .xc_stack_usage
                0x0000000000000000       0x22 d:/mplab x ide/xcompilers/bin/bin/../../lib/gcc/pic32c/8.3.1/thumb/v6-m/nofp\libgcc.a(bpabi.o)
 .xc_stack_usage.hdr
                0x0000000000000000        0xe d:/mplab x ide/xcompilers/bin/bin/../../lib/gcc/pic32c/8.3.1/thumb/v6-m/nofp\libgcc.a(bpabi.o)
 .debug_info    0x0000000000000000       0xd5 d:/mplab x ide/xcompilers/bin/bin/../../lib/gcc/pic32c/8.3.1/thumb/v6-m/nofp\libgcc.a(bpabi.o)
 .debug_abbrev  0x0000000000000000       0xaa d:/mplab x ide/xcompilers/bin/bin/../../lib/gcc/pic32c/8.3.1/thumb/v6-m/nofp\libgcc.a(bpabi.o)
 .debug_loc     0x0000000000000000       0x9c d:/mplab x ide/xcompilers/bin/bin/../../lib/gcc/pic32c/8.3.1/thumb/v6-m/nofp\libgcc.a(bpabi.o)
 .debug_aranges
                0x0000000000000000       0x20 d:/mplab x ide/xcompilers/bin/bin/../../lib/gcc/pic32c/8.3.1/thumb/v6-m/nofp\libgcc.a(bpabi.o)
 .debug_line    0x0000000000000000       0xb9 d:/mplab x ide/xcompilers/bin/bin/../../lib/gcc/pic32c/8.3.1/thumb/v6-m/nofp\libgcc.a(bpabi.o)
 .debug_str     0x0000000000000000      0x1f2 d:/mplab x ide/xcompilers/bin/bin/../../lib/gcc/pic32c/8.3.1/thumb/v6-m/nofp\libgcc.a(bpabi.o)
 .comment       0x0000000000000000       0x2c d:/mplab x ide/xcompilers/bin/bin/../../lib/gcc/pic32c/8.3.1/thumb/v6-m/nofp\libgcc.a(bpabi.o)
 .debug_frame   0x0000000000000000       0x34 d:/mplab x ide/xcompilers/bin/bin/../../lib/gcc/pic32c/8.3.1/thumb/v6-m/nofp\libgcc.a(bpabi.o)
 .ARM.attributes
                0x0000000000000000       0x2c d:/mplab x ide/xcompilers/bin/bin/../../lib/gcc/pic32c/8.3.1/thumb/v6-m/nofp\libgcc.a(bpabi.o)
 .text          0x0000000000000000       0x18 d:/mplab x ide/xcompilers/bin/bin/../../lib/gcc/pic32c/8.3.1/thumb/v6-m/nofp\libgcc.a(_lshrdi3.o)
 .data          0x0000000000000000        0x0 d:/mplab x ide/xcompilers/bin/bin/../../lib/gcc/pic32c/8.3.1/thumb/v6-m/nofp\libgcc.a(_lshrdi3.o)
 .bss           0x0000000000000000        0x0 d:/mplab x ide/xcompilers/bin/bin/../../lib/gcc/pic32c/8.3.1/thumb/v6-m/nofp\libgcc.a(_lshrdi3.o)
 .xc_stack_usage.hdr
                0x0000000000000000        0xe d:/mplab x ide/xcompilers/bin/bin/../../lib/gcc/pic32c/8.3.1/thumb/v6-m/nofp\libgcc.a(_lshrdi3.o)
 .xc_stack_usage
                0x0000000000000000       0x17 d:/mplab x ide/xcompilers/bin/bin/../../lib/gcc/pic32c/8.3.1/thumb/v6-m/nofp\libgcc.a(_lshrdi3.o)
 .debug_line    0x0000000000000000       0x9c d:/mplab x ide/xcompilers/bin/bin/../../lib/gcc/pic32c/8.3.1/thumb/v6-m/nofp\libgcc.a(_lshrdi3.o)
 .debug_info    0x0000000000000000       0x26 d:/mplab x ide/xcompilers/bin/bin/../../lib/gcc/pic32c/8.3.1/thumb/v6-m/nofp\libgcc.a(_lshrdi3.o)
 .debug_abbrev  0x0000000000000000       0x14 d:/mplab x ide/xcompilers/bin/bin/../../lib/gcc/pic32c/8.3.1/thumb/v6-m/nofp\libgcc.a(_lshrdi3.o)
 .debug_aranges
                0x0000000000000000       0x20 d:/mplab x ide/xcompilers/bin/bin/../../lib/gcc/pic32c/8.3.1/thumb/v6-m/nofp\libgcc.a(_lshrdi3.o)
 .debug_str     0x0000000000000000       0xd6 d:/mplab x ide/xcompilers/bin/bin/../../lib/gcc/pic32c/8.3.1/thumb/v6-m/nofp\libgcc.a(_lshrdi3.o)
 .ARM.attributes
                0x0000000000000000       0x1e d:/mplab x ide/xcompilers/bin/bin/../../lib/gcc/pic32c/8.3.1/thumb/v6-m/nofp\libgcc.a(_lshrdi3.o)
 .text          0x0000000000000000       0x18 d:/mplab x ide/xcompilers/bin/bin/../../lib/gcc/pic32c/8.3.1/thumb/v6-m/nofp\libgcc.a(_ashldi3.o)
 .data          0x0000000000000000        0x0 d:/mplab x ide/xcompilers/bin/bin/../../lib/gcc/pic32c/8.3.1/thumb/v6-m/nofp\libgcc.a(_ashldi3.o)
 .bss           0x0000000000000000        0x0 d:/mplab x ide/xcompilers/bin/bin/../../lib/gcc/pic32c/8.3.1/thumb/v6-m/nofp\libgcc.a(_ashldi3.o)
 .xc_stack_usage.hdr
                0x0000000000000000        0xe d:/mplab x ide/xcompilers/bin/bin/../../lib/gcc/pic32c/8.3.1/thumb/v6-m/nofp\libgcc.a(_ashldi3.o)
 .xc_stack_usage
                0x0000000000000000       0x17 d:/mplab x ide/xcompilers/bin/bin/../../lib/gcc/pic32c/8.3.1/thumb/v6-m/nofp\libgcc.a(_ashldi3.o)
 .debug_line    0x0000000000000000       0x9c d:/mplab x ide/xcompilers/bin/bin/../../lib/gcc/pic32c/8.3.1/thumb/v6-m/nofp\libgcc.a(_ashldi3.o)
 .debug_info    0x0000000000000000       0x26 d:/mplab x ide/xcompilers/bin/bin/../../lib/gcc/pic32c/8.3.1/thumb/v6-m/nofp\libgcc.a(_ashldi3.o)
 .debug_abbrev  0x0000000000000000       0x14 d:/mplab x ide/xcompilers/bin/bin/../../lib/gcc/pic32c/8.3.1/thumb/v6-m/nofp\libgcc.a(_ashldi3.o)
 .debug_aranges
                0x0000000000000000       0x20 d:/mplab x ide/xcompilers/bin/bin/../../lib/gcc/pic32c/8.3.1/thumb/v6-m/nofp\libgcc.a(_ashldi3.o)
 .debug_str     0x0000000000000000       0xd6 d:/mplab x ide/xcompilers/bin/bin/../../lib/gcc/pic32c/8.3.1/thumb/v6-m/nofp\libgcc.a(_ashldi3.o)
 .ARM.attributes
                0x0000000000000000       0x1e d:/mplab x ide/xcompilers/bin/bin/../../lib/gcc/pic32c/8.3.1/thumb/v6-m/nofp\libgcc.a(_ashldi3.o)
 .text          0x0000000000000000       0x18 d:/mplab x ide/xcompilers/bin/bin/../../lib/gcc/pic32c/8.3.1/thumb/v6-m/nofp\libgcc.a(_clzdi2.o)
 .data          0x0000000000000000        0x0 d:/mplab x ide/xcompilers/bin/bin/../../lib/gcc/pic32c/8.3.1/thumb/v6-m/nofp\libgcc.a(_clzdi2.o)
 .bss           0x0000000000000000        0x0 d:/mplab x ide/xcompilers/bin/bin/../../lib/gcc/pic32c/8.3.1/thumb/v6-m/nofp\libgcc.a(_clzdi2.o)
 .xc_stack_usage.hdr
                0x0000000000000000        0xe d:/mplab x ide/xcompilers/bin/bin/../../lib/gcc/pic32c/8.3.1/thumb/v6-m/nofp\libgcc.a(_clzdi2.o)
 .xc_stack_usage
                0x0000000000000000       0x16 d:/mplab x ide/xcompilers/bin/bin/../../lib/gcc/pic32c/8.3.1/thumb/v6-m/nofp\libgcc.a(_clzdi2.o)
 .debug_line    0x0000000000000000       0x9b d:/mplab x ide/xcompilers/bin/bin/../../lib/gcc/pic32c/8.3.1/thumb/v6-m/nofp\libgcc.a(_clzdi2.o)
 .debug_info    0x0000000000000000       0x26 d:/mplab x ide/xcompilers/bin/bin/../../lib/gcc/pic32c/8.3.1/thumb/v6-m/nofp\libgcc.a(_clzdi2.o)
 .debug_abbrev  0x0000000000000000       0x14 d:/mplab x ide/xcompilers/bin/bin/../../lib/gcc/pic32c/8.3.1/thumb/v6-m/nofp\libgcc.a(_clzdi2.o)
 .debug_aranges
                0x0000000000000000       0x20 d:/mplab x ide/xcompilers/bin/bin/../../lib/gcc/pic32c/8.3.1/thumb/v6-m/nofp\libgcc.a(_clzdi2.o)
 .debug_str     0x0000000000000000       0xd6 d:/mplab x ide/xcompilers/bin/bin/../../lib/gcc/pic32c/8.3.1/thumb/v6-m/nofp\libgcc.a(_clzdi2.o)
 .ARM.attributes
                0x0000000000000000       0x1e d:/mplab x ide/xcompilers/bin/bin/../../lib/gcc/pic32c/8.3.1/thumb/v6-m/nofp\libgcc.a(_clzdi2.o)
 .text          0x0000000000000000      0x130 d:/mplab x ide/xcompilers/bin/bin/../../lib/gcc/pic32c/8.3.1/thumb/v6-m/nofp\libgcc.a(_divdi3.o)
 .data          0x0000000000000000        0x0 d:/mplab x ide/xcompilers/bin/bin/../../lib/gcc/pic32c/8.3.1/thumb/v6-m/nofp\libgcc.a(_divdi3.o)
 .bss           0x0000000000000000        0x0 d:/mplab x ide/xcompilers/bin/bin/../../lib/gcc/pic32c/8.3.1/thumb/v6-m/nofp\libgcc.a(_divdi3.o)
 .xc_stack_usage
                0x0000000000000000       0x16 d:/mplab x ide/xcompilers/bin/bin/../../lib/gcc/pic32c/8.3.1/thumb/v6-m/nofp\libgcc.a(_divdi3.o)
 .ARM.extab     0x0000000000000000        0x0 d:/mplab x ide/xcompilers/bin/bin/../../lib/gcc/pic32c/8.3.1/thumb/v6-m/nofp\libgcc.a(_divdi3.o)
 .ARM.exidx     0x0000000000000000        0x8 d:/mplab x ide/xcompilers/bin/bin/../../lib/gcc/pic32c/8.3.1/thumb/v6-m/nofp\libgcc.a(_divdi3.o)
 .xc_stack_usage.hdr
                0x0000000000000000        0xe d:/mplab x ide/xcompilers/bin/bin/../../lib/gcc/pic32c/8.3.1/thumb/v6-m/nofp\libgcc.a(_divdi3.o)
 .debug_info    0x0000000000000000      0x2e1 d:/mplab x ide/xcompilers/bin/bin/../../lib/gcc/pic32c/8.3.1/thumb/v6-m/nofp\libgcc.a(_divdi3.o)
 .debug_abbrev  0x0000000000000000      0x14e d:/mplab x ide/xcompilers/bin/bin/../../lib/gcc/pic32c/8.3.1/thumb/v6-m/nofp\libgcc.a(_divdi3.o)
 .debug_loc     0x0000000000000000      0x4b0 d:/mplab x ide/xcompilers/bin/bin/../../lib/gcc/pic32c/8.3.1/thumb/v6-m/nofp\libgcc.a(_divdi3.o)
 .debug_aranges
                0x0000000000000000       0x20 d:/mplab x ide/xcompilers/bin/bin/../../lib/gcc/pic32c/8.3.1/thumb/v6-m/nofp\libgcc.a(_divdi3.o)
 .debug_ranges  0x0000000000000000       0x20 d:/mplab x ide/xcompilers/bin/bin/../../lib/gcc/pic32c/8.3.1/thumb/v6-m/nofp\libgcc.a(_divdi3.o)
 .debug_line    0x0000000000000000      0x1d9 d:/mplab x ide/xcompilers/bin/bin/../../lib/gcc/pic32c/8.3.1/thumb/v6-m/nofp\libgcc.a(_divdi3.o)
 .debug_str     0x0000000000000000      0x2a9 d:/mplab x ide/xcompilers/bin/bin/../../lib/gcc/pic32c/8.3.1/thumb/v6-m/nofp\libgcc.a(_divdi3.o)
 .comment       0x0000000000000000       0x2c d:/mplab x ide/xcompilers/bin/bin/../../lib/gcc/pic32c/8.3.1/thumb/v6-m/nofp\libgcc.a(_divdi3.o)
 .debug_frame   0x0000000000000000       0x30 d:/mplab x ide/xcompilers/bin/bin/../../lib/gcc/pic32c/8.3.1/thumb/v6-m/nofp\libgcc.a(_divdi3.o)
 .ARM.attributes
                0x0000000000000000       0x2c d:/mplab x ide/xcompilers/bin/bin/../../lib/gcc/pic32c/8.3.1/thumb/v6-m/nofp\libgcc.a(_divdi3.o)
 .text          0x0000000000000000       0x3c d:/mplab x ide/xcompilers/bin/bin/../../lib/gcc/pic32c/8.3.1/thumb/v6-m/nofp\libgcc.a(_clzsi2.o)
 .data          0x0000000000000000        0x0 d:/mplab x ide/xcompilers/bin/bin/../../lib/gcc/pic32c/8.3.1/thumb/v6-m/nofp\libgcc.a(_clzsi2.o)
 .bss           0x0000000000000000        0x0 d:/mplab x ide/xcompilers/bin/bin/../../lib/gcc/pic32c/8.3.1/thumb/v6-m/nofp\libgcc.a(_clzsi2.o)
 .xc_stack_usage.hdr
                0x0000000000000000        0xe d:/mplab x ide/xcompilers/bin/bin/../../lib/gcc/pic32c/8.3.1/thumb/v6-m/nofp\libgcc.a(_clzsi2.o)
 .xc_stack_usage
                0x0000000000000000       0x16 d:/mplab x ide/xcompilers/bin/bin/../../lib/gcc/pic32c/8.3.1/thumb/v6-m/nofp\libgcc.a(_clzsi2.o)
 .debug_line    0x0000000000000000       0xa5 d:/mplab x ide/xcompilers/bin/bin/../../lib/gcc/pic32c/8.3.1/thumb/v6-m/nofp\libgcc.a(_clzsi2.o)
 .debug_info    0x0000000000000000       0x26 d:/mplab x ide/xcompilers/bin/bin/../../lib/gcc/pic32c/8.3.1/thumb/v6-m/nofp\libgcc.a(_clzsi2.o)
 .debug_abbrev  0x0000000000000000       0x14 d:/mplab x ide/xcompilers/bin/bin/../../lib/gcc/pic32c/8.3.1/thumb/v6-m/nofp\libgcc.a(_clzsi2.o)
 .debug_aranges
                0x0000000000000000       0x20 d:/mplab x ide/xcompilers/bin/bin/../../lib/gcc/pic32c/8.3.1/thumb/v6-m/nofp\libgcc.a(_clzsi2.o)
 .debug_str     0x0000000000000000       0xd6 d:/mplab x ide/xcompilers/bin/bin/../../lib/gcc/pic32c/8.3.1/thumb/v6-m/nofp\libgcc.a(_clzsi2.o)
 .ARM.attributes
                0x0000000000000000       0x1e d:/mplab x ide/xcompilers/bin/bin/../../lib/gcc/pic32c/8.3.1/thumb/v6-m/nofp\libgcc.a(_clzsi2.o)
 .text          0x0000000000000000        0x0 d:/mplab x ide/xcompilers/bin/bin/../../lib/gcc/pic32c/8.3.1/../../../../pic32c/lib/thumb/v6-m/nofp\libc-size-musl.a(strcpy.o)
 .data          0x0000000000000000        0x0 d:/mplab x ide/xcompilers/bin/bin/../../lib/gcc/pic32c/8.3.1/../../../../pic32c/lib/thumb/v6-m/nofp\libc-size-musl.a(strcpy.o)
 .bss           0x0000000000000000        0x0 d:/mplab x ide/xcompilers/bin/bin/../../lib/gcc/pic32c/8.3.1/../../../../pic32c/lib/thumb/v6-m/nofp\libc-size-musl.a(strcpy.o)
 .xc_stack_usage
                0x0000000000000000       0x14 d:/mplab x ide/xcompilers/bin/bin/../../lib/gcc/pic32c/8.3.1/../../../../pic32c/lib/thumb/v6-m/nofp\libc-size-musl.a(strcpy.o)
 .text.strcpy   0x0000000000000000        0xc d:/mplab x ide/xcompilers/bin/bin/../../lib/gcc/pic32c/8.3.1/../../../../pic32c/lib/thumb/v6-m/nofp\libc-size-musl.a(strcpy.o)
 .xc_stack_usage.hdr
                0x0000000000000000        0xe d:/mplab x ide/xcompilers/bin/bin/../../lib/gcc/pic32c/8.3.1/../../../../pic32c/lib/thumb/v6-m/nofp\libc-size-musl.a(strcpy.o)
 .debug_info    0x0000000000000000       0xbd d:/mplab x ide/xcompilers/bin/bin/../../lib/gcc/pic32c/8.3.1/../../../../pic32c/lib/thumb/v6-m/nofp\libc-size-musl.a(strcpy.o)
 .debug_abbrev  0x0000000000000000       0xa2 d:/mplab x ide/xcompilers/bin/bin/../../lib/gcc/pic32c/8.3.1/../../../../pic32c/lib/thumb/v6-m/nofp\libc-size-musl.a(strcpy.o)
 .debug_loc     0x0000000000000000       0x74 d:/mplab x ide/xcompilers/bin/bin/../../lib/gcc/pic32c/8.3.1/../../../../pic32c/lib/thumb/v6-m/nofp\libc-size-musl.a(strcpy.o)
 .debug_aranges
                0x0000000000000000       0x20 d:/mplab x ide/xcompilers/bin/bin/../../lib/gcc/pic32c/8.3.1/../../../../pic32c/lib/thumb/v6-m/nofp\libc-size-musl.a(strcpy.o)
 .debug_ranges  0x0000000000000000       0x10 d:/mplab x ide/xcompilers/bin/bin/../../lib/gcc/pic32c/8.3.1/../../../../pic32c/lib/thumb/v6-m/nofp\libc-size-musl.a(strcpy.o)
 .debug_line    0x0000000000000000       0xb2 d:/mplab x ide/xcompilers/bin/bin/../../lib/gcc/pic32c/8.3.1/../../../../pic32c/lib/thumb/v6-m/nofp\libc-size-musl.a(strcpy.o)
 .debug_str     0x0000000000000000      0x20d d:/mplab x ide/xcompilers/bin/bin/../../lib/gcc/pic32c/8.3.1/../../../../pic32c/lib/thumb/v6-m/nofp\libc-size-musl.a(strcpy.o)
 .comment       0x0000000000000000       0x2c d:/mplab x ide/xcompilers/bin/bin/../../lib/gcc/pic32c/8.3.1/../../../../pic32c/lib/thumb/v6-m/nofp\libc-size-musl.a(strcpy.o)
 .note.GNU-stack
                0x0000000000000000        0x0 d:/mplab x ide/xcompilers/bin/bin/../../lib/gcc/pic32c/8.3.1/../../../../pic32c/lib/thumb/v6-m/nofp\libc-size-musl.a(strcpy.o)
 .debug_frame   0x0000000000000000       0x28 d:/mplab x ide/xcompilers/bin/bin/../../lib/gcc/pic32c/8.3.1/../../../../pic32c/lib/thumb/v6-m/nofp\libc-size-musl.a(strcpy.o)
 .ARM.attributes
                0x0000000000000000       0x2e d:/mplab x ide/xcompilers/bin/bin/../../lib/gcc/pic32c/8.3.1/../../../../pic32c/lib/thumb/v6-m/nofp\libc-size-musl.a(strcpy.o)
 .text          0x0000000000000000        0x0 d:/mplab x ide/xcompilers/bin/bin/../../lib/gcc/pic32c/8.3.1/../../../../pic32c/lib/thumb/v6-m/nofp\libc-size-musl.a(stpcpy.o)
 .data          0x0000000000000000        0x0 d:/mplab x ide/xcompilers/bin/bin/../../lib/gcc/pic32c/8.3.1/../../../../pic32c/lib/thumb/v6-m/nofp\libc-size-musl.a(stpcpy.o)
 .bss           0x0000000000000000        0x0 d:/mplab x ide/xcompilers/bin/bin/../../lib/gcc/pic32c/8.3.1/../../../../pic32c/lib/thumb/v6-m/nofp\libc-size-musl.a(stpcpy.o)
 .xc_stack_usage
                0x0000000000000000       0x14 d:/mplab x ide/xcompilers/bin/bin/../../lib/gcc/pic32c/8.3.1/../../../../pic32c/lib/thumb/v6-m/nofp\libc-size-musl.a(stpcpy.o)
 .text.stpcpy   0x0000000000000000       0x14 d:/mplab x ide/xcompilers/bin/bin/../../lib/gcc/pic32c/8.3.1/../../../../pic32c/lib/thumb/v6-m/nofp\libc-size-musl.a(stpcpy.o)
 .xc_stack_usage.hdr
                0x0000000000000000        0xe d:/mplab x ide/xcompilers/bin/bin/../../lib/gcc/pic32c/8.3.1/../../../../pic32c/lib/thumb/v6-m/nofp\libc-size-musl.a(stpcpy.o)
 .debug_info    0x0000000000000000       0xac d:/mplab x ide/xcompilers/bin/bin/../../lib/gcc/pic32c/8.3.1/../../../../pic32c/lib/thumb/v6-m/nofp\libc-size-musl.a(stpcpy.o)
 .debug_abbrev  0x0000000000000000       0x6e d:/mplab x ide/xcompilers/bin/bin/../../lib/gcc/pic32c/8.3.1/../../../../pic32c/lib/thumb/v6-m/nofp\libc-size-musl.a(stpcpy.o)
 .debug_loc     0x0000000000000000       0x90 d:/mplab x ide/xcompilers/bin/bin/../../lib/gcc/pic32c/8.3.1/../../../../pic32c/lib/thumb/v6-m/nofp\libc-size-musl.a(stpcpy.o)
 .debug_aranges
                0x0000000000000000       0x20 d:/mplab x ide/xcompilers/bin/bin/../../lib/gcc/pic32c/8.3.1/../../../../pic32c/lib/thumb/v6-m/nofp\libc-size-musl.a(stpcpy.o)
 .debug_ranges  0x0000000000000000       0x10 d:/mplab x ide/xcompilers/bin/bin/../../lib/gcc/pic32c/8.3.1/../../../../pic32c/lib/thumb/v6-m/nofp\libc-size-musl.a(stpcpy.o)
 .debug_line    0x0000000000000000       0xc1 d:/mplab x ide/xcompilers/bin/bin/../../lib/gcc/pic32c/8.3.1/../../../../pic32c/lib/thumb/v6-m/nofp\libc-size-musl.a(stpcpy.o)
 .debug_str     0x0000000000000000      0x221 d:/mplab x ide/xcompilers/bin/bin/../../lib/gcc/pic32c/8.3.1/../../../../pic32c/lib/thumb/v6-m/nofp\libc-size-musl.a(stpcpy.o)
 .comment       0x0000000000000000       0x2c d:/mplab x ide/xcompilers/bin/bin/../../lib/gcc/pic32c/8.3.1/../../../../pic32c/lib/thumb/v6-m/nofp\libc-size-musl.a(stpcpy.o)
 .note.GNU-stack
                0x0000000000000000        0x0 d:/mplab x ide/xcompilers/bin/bin/../../lib/gcc/pic32c/8.3.1/../../../../pic32c/lib/thumb/v6-m/nofp\libc-size-musl.a(stpcpy.o)
 .debug_frame   0x0000000000000000       0x20 d:/mplab x ide/xcompilers/bin/bin/../../lib/gcc/pic32c/8.3.1/../../../../pic32c/lib/thumb/v6-m/nofp\libc-size-musl.a(stpcpy.o)
 .ARM.attributes
                0x0000000000000000       0x2e d:/mplab x ide/xcompilers/bin/bin/../../lib/gcc/pic32c/8.3.1/../../../../pic32c/lib/thumb/v6-m/nofp\libc-size-musl.a(stpcpy.o)
 .text          0x0000000000000000        0x0 d:/mplab x ide/xcompilers/bin/bin/../../lib/gcc/pic32c/8.3.1/thumb/v6-m/nofp/crtend.o
 .data          0x0000000000000000        0x0 d:/mplab x ide/xcompilers/bin/bin/../../lib/gcc/pic32c/8.3.1/thumb/v6-m/nofp/crtend.o
 .bss           0x0000000000000000        0x0 d:/mplab x ide/xcompilers/bin/bin/../../lib/gcc/pic32c/8.3.1/thumb/v6-m/nofp/crtend.o
 .eh_frame      0x0000000000000000        0x4 d:/mplab x ide/xcompilers/bin/bin/../../lib/gcc/pic32c/8.3.1/thumb/v6-m/nofp/crtend.o
 .xc_stack_usage.hdr
                0x0000000000000000        0xe d:/mplab x ide/xcompilers/bin/bin/../../lib/gcc/pic32c/8.3.1/thumb/v6-m/nofp/crtend.o
 .comment       0x0000000000000000       0x2c d:/mplab x ide/xcompilers/bin/bin/../../lib/gcc/pic32c/8.3.1/thumb/v6-m/nofp/crtend.o
 .ARM.attributes
                0x0000000000000000       0x2c d:/mplab x ide/xcompilers/bin/bin/../../lib/gcc/pic32c/8.3.1/thumb/v6-m/nofp/crtend.o
 .text          0x0000000000000000        0x0 d:/mplab x ide/xcompilers/bin/bin/../../lib/gcc/pic32c/8.3.1/thumb/v6-m/nofp/crtn.o
 .data          0x0000000000000000        0x0 d:/mplab x ide/xcompilers/bin/bin/../../lib/gcc/pic32c/8.3.1/thumb/v6-m/nofp/crtn.o
 .bss           0x0000000000000000        0x0 d:/mplab x ide/xcompilers/bin/bin/../../lib/gcc/pic32c/8.3.1/thumb/v6-m/nofp/crtn.o
 .xc_stack_usage.hdr
                0x0000000000000000        0xe d:/mplab x ide/xcompilers/bin/bin/../../lib/gcc/pic32c/8.3.1/thumb/v6-m/nofp/crtn.o
 .text          0x0000000000000000        0x0 d:/mplab x ide/xcompilers/bin/bin/../../lib/gcc/pic32c/8.3.1/../../../../pic32c/lib/thumb/v6-m/nofp\libpic32c.a(pic32_data_init_clear.o)
 .data          0x0000000000000000        0x0 d:/mplab x ide/xcompilers/bin/bin/../../lib/gcc/pic32c/8.3.1/../../../../pic32c/lib/thumb/v6-m/nofp\libpic32c.a(pic32_data_init_clear.o)
 .bss           0x0000000000000000        0x0 d:/mplab x ide/xcompilers/bin/bin/../../lib/gcc/pic32c/8.3.1/../../../../pic32c/lib/thumb/v6-m/nofp\libpic32c.a(pic32_data_init_clear.o)
 .xc_stack_usage
                0x0000000000000000       0x1b d:/mplab x ide/xcompilers/bin/bin/../../lib/gcc/pic32c/8.3.1/../../../../pic32c/lib/thumb/v6-m/nofp\libpic32c.a(pic32_data_init_clear.o)
 .xc_stack_usage.hdr
                0x0000000000000000        0xe d:/mplab x ide/xcompilers/bin/bin/../../lib/gcc/pic32c/8.3.1/../../../../pic32c/lib/thumb/v6-m/nofp\libpic32c.a(pic32_data_init_clear.o)
 .text          0x0000000000000000        0x0 d:/mplab x ide/xcompilers/bin/bin/../../lib/gcc/pic32c/8.3.1/../../../../pic32c/lib/thumb/v6-m/nofp\libpic32c.a(pic32_data_init_copy.o)
 .data          0x0000000000000000        0x0 d:/mplab x ide/xcompilers/bin/bin/../../lib/gcc/pic32c/8.3.1/../../../../pic32c/lib/thumb/v6-m/nofp\libpic32c.a(pic32_data_init_copy.o)
 .bss           0x0000000000000000        0x0 d:/mplab x ide/xcompilers/bin/bin/../../lib/gcc/pic32c/8.3.1/../../../../pic32c/lib/thumb/v6-m/nofp\libpic32c.a(pic32_data_init_copy.o)
 .xc_stack_usage
                0x0000000000000000       0x1a d:/mplab x ide/xcompilers/bin/bin/../../lib/gcc/pic32c/8.3.1/../../../../pic32c/lib/thumb/v6-m/nofp\libpic32c.a(pic32_data_init_copy.o)
 .xc_stack_usage.hdr
                0x0000000000000000        0xe d:/mplab x ide/xcompilers/bin/bin/../../lib/gcc/pic32c/8.3.1/../../../../pic32c/lib/thumb/v6-m/nofp\libpic32c.a(pic32_data_init_copy.o)

Memory Configuration

Name             Origin             Length             Attributes
rom              0x0000000000000000 0x0000000000040000 xrl
ram              0x0000000020000000 0x0000000000008000 xw !r
config_00804000  0x0000000000804000 0x0000000000000004
config_00804004  0x0000000000804004 0x0000000000000004
*default*        0x0000000000000000 0xffffffffffffffff

Linker script and memory map

LOAD d:/mplab x ide/xcompilers/bin/bin/../../lib/gcc/pic32c/8.3.1/thumb/v6-m/nofp/crti.o
LOAD d:/mplab x ide/xcompilers/bin/bin/../../lib/gcc/pic32c/8.3.1/thumb/v6-m/nofp/crtbegin.o
LOAD build/default/production/_ext/149991522/spi.o
LOAD build/default/production/_ext/1500443788/ext_flash.o
LOAD build/default/production/_ext/1500443788/McuSwReset.o
LOAD build/default/production/_ext/1500443788/tlv_flash.o
LOAD build/default/production/_ext/1529399856/osal_freertos.o
LOAD build/default/production/_ext/60163342/plib_adc0.o
LOAD build/default/production/_ext/60165182/plib_can1.o
LOAD build/default/production/_ext/1984496892/plib_clock.o
LOAD build/default/production/_ext/60167341/plib_eic.o
LOAD build/default/production/_ext/1986646378/plib_evsys.o
LOAD build/default/production/_ext/1865468468/plib_nvic.o
LOAD build/default/production/_ext/1593096446/plib_nvmctrl.o
LOAD build/default/production/_ext/1865521619/plib_port.o
LOAD build/default/production/_ext/1865585090/plib_rstc.o
LOAD build/default/production/_ext/17022449/plib_sercom3_spi_master.o
LOAD build/default/production/_ext/17022449/plib_sercom0_spi_master.o
LOAD build/default/production/_ext/504274921/plib_sercom7_usart.o
LOAD build/default/production/_ext/504274921/plib_sercom5_usart.o
LOAD build/default/production/_ext/829342655/plib_tc2.o
LOAD build/default/production/_ext/829342655/plib_tc4.o
LOAD build/default/production/_ext/60184501/plib_wdt.o
LOAD build/default/production/_ext/163028504/xc32_monitor.o
LOAD build/default/production/_ext/1832805299/sys_console.o
LOAD build/default/production/_ext/1832805299/sys_console_uart.o
LOAD build/default/production/_ext/1832805299/sys_console_usb_cdc.o
LOAD build/default/production/_ext/944882569/sys_debug.o
LOAD build/default/production/_ext/1881668453/sys_int.o
LOAD build/default/production/_ext/1171490990/initialization.o
LOAD build/default/production/_ext/1171490990/interrupts.o
LOAD build/default/production/_ext/1171490990/exceptions.o
LOAD build/default/production/_ext/1171490990/startup_xc32.o
LOAD build/default/production/_ext/1171490990/libc_syscalls.o
LOAD build/default/production/_ext/1171490990/freertos_hooks.o
LOAD build/default/production/_ext/1171490990/tasks.o
LOAD build/default/production/_ext/1624415188/port.o
LOAD build/default/production/_ext/1624415188/portasm.o
LOAD build/default/production/_ext/1665200909/heap_1.o
LOAD build/default/production/_ext/404212886/croutine.o
LOAD build/default/production/_ext/404212886/list.o
LOAD build/default/production/_ext/404212886/queue.o
LOAD build/default/production/_ext/404212886/FreeRTOS_tasks.o
LOAD build/default/production/_ext/404212886/timers.o
LOAD build/default/production/_ext/404212886/event_groups.o
LOAD build/default/production/_ext/404212886/stream_buffer.o
LOAD build/default/production/_ext/1360937237/freertos_daemon.o
LOAD build/default/production/_ext/221583569/my_spi_func.o
LOAD build/default/production/_ext/1096015630/CRC.o
LOAD build/default/production/_ext/1096015630/Functions.o
LOAD build/default/production/_ext/1433801640/TMC4671.o
LOAD build/default/production/_ext/33404887/LinearRamp.o
LOAD build/default/production/_ext/33404887/LinearRamp1.o
LOAD build/default/production/_ext/33404887/Ramp.o
LOAD build/default/production/_ext/2089947380/Step_Counter.o
LOAD build/default/production/_ext/2089947380/TMC2209.o
LOAD build/default/production/_ext/2089947380/TMC2209_motion.o
LOAD build/default/production/_ext/2089947380/TMC2209_Simple_Rotation.o
LOAD build/default/production/_ext/1360937237/main.o
LOAD build/default/production/_ext/1360937237/Global_Vars.o
LOAD build/default/production/_ext/1360937237/health_task.o
LOAD build/default/production/_ext/1360937237/tmc4671_motion.o
LOAD build/default/production/_ext/1360937237/tmc2209_motion.o
LOAD build/default/production/_ext/1360937237/can_task.o
LOAD build/default/production/_ext/1360937237/cmd_parser.o
LOAD build/default/production/_ext/1360937237/debug_logger.o
                0x0000000000000001                __MPLAB_BUILD = 0x1
                0x0000000000040000                __rom_end = (ORIGIN (rom) + LENGTH (rom))
                0x0000000020008000                __ram_end = (ORIGIN (ram) + LENGTH (ram))

.config_00804000
 *(.config_00804000)

.config_00804004
 *(.config_00804004)

.vectors        0x0000000000000000       0xbc
                0x0000000000000000                . = ALIGN (0x4)
                0x0000000000000000                _sfixed = .
 *(.vectors .vectors.* .vectors_default .vectors_default.*)
 .vectors.exception_table
                0x0000000000000000       0xbc build/default/production/_ext/1171490990/interrupts.o
                0x0000000000000000                exception_table
 *(.isr_vector)
 *(.reset*)
 *(.after_vectors)

.text           0x00000000000000bc       0x20
                0x00000000000000bc                . = ALIGN (0x4)
 *(.glue_7t)
 .glue_7t       0x00000000000000bc        0x0 linker stubs
 *(.glue_7)
 .glue_7        0x00000000000000bc        0x0 linker stubs
 *(.gnu.linkonce.r.*)
 *(.ARM.extab* .gnu.linkonce.armextab.*)
                0x00000000000000bc                . = ALIGN (0x4)
 *(.init)
 .init          0x00000000000000bc        0x4 d:/mplab x ide/xcompilers/bin/bin/../../lib/gcc/pic32c/8.3.1/thumb/v6-m/nofp/crti.o
                0x00000000000000bc                _init
 .init          0x00000000000000c0        0x8 d:/mplab x ide/xcompilers/bin/bin/../../lib/gcc/pic32c/8.3.1/thumb/v6-m/nofp/crtn.o
                0x00000000000000c8                . = ALIGN (0x4)
                0x00000000000000c8                __preinit_array_start = .
 *(.preinit_array)
                0x00000000000000c8                __preinit_array_end = .
                0x00000000000000c8                . = ALIGN (0x4)
                0x00000000000000c8                __init_array_start = .
 *(SORT_BY_NAME(.init_array.*))
 *(.init_array)
 .init_array    0x00000000000000c8        0x4 d:/mplab x ide/xcompilers/bin/bin/../../lib/gcc/pic32c/8.3.1/thumb/v6-m/nofp/crtbegin.o
                0x00000000000000cc                __init_array_end = .
                0x00000000000000cc                . = ALIGN (0x4)
 *crtbegin.o(.ctors)
 *(EXCLUDE_FILE(*crtend.o) .ctors)
 *(SORT_BY_NAME(.ctors.*))
 *crtend.o(.ctors)
                0x00000000000000cc                . = ALIGN (0x4)
 *(.fini)
 .fini          0x00000000000000cc        0x4 d:/mplab x ide/xcompilers/bin/bin/../../lib/gcc/pic32c/8.3.1/thumb/v6-m/nofp/crti.o
                0x00000000000000cc                _fini
 .fini          0x00000000000000d0        0x8 d:/mplab x ide/xcompilers/bin/bin/../../lib/gcc/pic32c/8.3.1/thumb/v6-m/nofp/crtn.o
                0x00000000000000d8                . = ALIGN (0x4)
                0x00000000000000d8                __fini_array_start = .
 *(.fini_array)
 .fini_array    0x00000000000000d8        0x4 d:/mplab x ide/xcompilers/bin/bin/../../lib/gcc/pic32c/8.3.1/thumb/v6-m/nofp/crtbegin.o
 *(SORT_BY_NAME(.fini_array.*))
                0x00000000000000dc                __fini_array_end = .
 *crtbegin.o(.dtors)
 *(EXCLUDE_FILE(*crtend.o) .dtors)
 *(SORT_BY_NAME(.dtors.*))
 *crtend.o(.dtors)
                0x00000000000000dc                . = ALIGN (0x4)
                0x00000000000000dc                _efixed = .
                [!provide]                        PROVIDE (__exidx_start = .)

.ARM.exidx
 *(.ARM.exidx* .gnu.linkonce.armexidx.*)
                [!provide]                        PROVIDE (__exidx_end = .)
                0x00000000000000dc                . = ALIGN (0x4)
                0x00000000000000dc                _etext = .

.bss            0x0000000020000000       0x3c
                0x0000000020000000                . = ALIGN (0x4)
                0x0000000020000000                __bss_start__ = .
                0x0000000020000000                _sbss = .
                0x0000000020000000                _szero = .
 *(COMMON)
 COMMON         0x0000000020000000        0x4 build/default/production/_ext/944882569/sys_debug.o
                0x0000000020000000                gblErrLvl
 COMMON         0x0000000020000004        0x8 build/default/production/_ext/1171490990/initialization.o
                0x0000000020000004                sysObj
 COMMON         0x000000002000000c       0x18 build/default/production/_ext/1171490990/tasks.o
                0x000000002000000c                xTMC2209_MOTION_Tasks
                0x0000000020000010                xCAN_TASK_Tasks
                0x0000000020000014                xDEBUG_LOGGER_Tasks
                0x0000000020000018                xCMD_PARSER_Tasks
                0x000000002000001c                xHEALTH_TASK_Tasks
                0x0000000020000020                xTMC4671_MOTION_Tasks
 COMMON         0x0000000020000024        0x1 build/default/production/_ext/1360937237/health_task.o
                0x0000000020000024                health_taskData
 *fill*         0x0000000020000025        0x3 
 COMMON         0x0000000020000028        0x1 build/default/production/_ext/1360937237/tmc4671_motion.o
                0x0000000020000028                tmc4671_motionData
 *fill*         0x0000000020000029        0x3 
 COMMON         0x000000002000002c        0x1 build/default/production/_ext/1360937237/tmc2209_motion.o
                0x000000002000002c                tmc2209_motionData
 *fill*         0x000000002000002d        0x3 
 COMMON         0x0000000020000030        0x1 build/default/production/_ext/1360937237/can_task.o
                0x0000000020000030                can_taskData
 *fill*         0x0000000020000031        0x3 
 COMMON         0x0000000020000034        0x1 build/default/production/_ext/1360937237/cmd_parser.o
                0x0000000020000034                cmd_parserData
 *fill*         0x0000000020000035        0x3 
 COMMON         0x0000000020000038        0x1 build/default/production/_ext/1360937237/debug_logger.o
                0x0000000020000038                debug_loggerData
                0x000000002000003c                . = ALIGN (0x4)
 *fill*         0x0000000020000039        0x3 
                0x000000002000003c                __bss_end__ = .
                0x000000002000003c                _ebss = .
                0x000000002000003c                _ezero = .
                0x000000002000003c                . = ALIGN (0x4)
                0x000000002000003c                _end = .
                0x0000000020007fff                _ram_end_ = ((ORIGIN (ram) + LENGTH (ram)) - 0x1)
                0x0000000000000200                _min_heap_size = 0x200
START GROUP
LOAD d:/mplab x ide/xcompilers/bin/bin/../../lib/gcc/pic32c/8.3.1/../../../../pic32c/lib/thumb/v6-m/nofp\libpic32c.a
LOAD d:/mplab x ide/xcompilers/bin/bin/../../lib/gcc/pic32c/8.3.1/../../../../pic32c/lib/thumb/v6-m/nofp\libc-size-musl.a
LOAD d:/mplab x ide/xcompilers/bin/bin/../../lib/gcc/pic32c/8.3.1/../../../../pic32c/lib/thumb/v6-m/nofp\liblmalloc-musl.a
LOAD d:/mplab x ide/xcompilers/bin/bin/../../lib/gcc/pic32c/8.3.1/../../../../pic32c/lib/thumb/v6-m/nofp\libm-fast-emfloat.a
LOAD d:/mplab x ide/xcompilers/bin/bin/../../lib/gcc/pic32c/8.3.1/../../../../pic32c/lib/thumb/v6-m/nofp\libm-musl.a
LOAD d:/mplab x ide/xcompilers/bin/bin/../../lib/gcc/pic32c/8.3.1/../../../../pic32c/lib/thumb/v6-m/nofp\libc-musl.a
LOAD d:/mplab x ide/xcompilers/bin/bin/../../lib/gcc/pic32c/8.3.1/../../../../pic32c/lib/thumb/v6-m/nofp\libm-fast-emfloat.a
LOAD d:/mplab x ide/xcompilers/bin/bin/../../lib/gcc/pic32c/8.3.1/../../../../pic32c/lib/thumb/v6-m/nofp\libm-musl.a
LOAD d:/mplab x ide/xcompilers/bin/bin/../../lib/gcc/pic32c/8.3.1/thumb/v6-m/nofp\libgcc.a
END GROUP
LOAD d:/mplab x ide/xcompilers/bin/bin/../../lib/gcc/pic32c/8.3.1/thumb/v6-m/nofp/crtend.o
LOAD d:/mplab x ide/xcompilers/bin/bin/../../lib/gcc/pic32c/8.3.1/thumb/v6-m/nofp/crtn.o
OUTPUT(dist/default/production/NextGen_GTron_AxC.X.production.elf elf32-littlearm)
LOAD data_init
LOAD stack

.ARM.attributes
                0x0000000000000000       0x2a
 .ARM.attributes
                0x0000000000000000       0x1e d:/mplab x ide/xcompilers/bin/bin/../../lib/gcc/pic32c/8.3.1/thumb/v6-m/nofp/crti.o
 .ARM.attributes
                0x000000000000001e       0x2c d:/mplab x ide/xcompilers/bin/bin/../../lib/gcc/pic32c/8.3.1/thumb/v6-m/nofp/crtbegin.o
 .ARM.attributes
                0x000000000000004a       0x2c build/default/production/_ext/1529399856/osal_freertos.o
 .ARM.attributes
                0x0000000000000076       0x2c build/default/production/_ext/60163342/plib_adc0.o
 .ARM.attributes
                0x00000000000000a2       0x2c build/default/production/_ext/60165182/plib_can1.o
 .ARM.attributes
                0x00000000000000ce       0x2c build/default/production/_ext/1984496892/plib_clock.o
 .ARM.attributes
                0x00000000000000fa       0x2c build/default/production/_ext/60167341/plib_eic.o
 .ARM.attributes
                0x0000000000000126       0x2c build/default/production/_ext/1986646378/plib_evsys.o
 .ARM.attributes
                0x0000000000000152       0x2c build/default/production/_ext/1865468468/plib_nvic.o
 .ARM.attributes
                0x000000000000017e       0x2c build/default/production/_ext/1593096446/plib_nvmctrl.o
 .ARM.attributes
                0x00000000000001aa       0x2c build/default/production/_ext/1865521619/plib_port.o
 .ARM.attributes
                0x00000000000001d6       0x2c build/default/production/_ext/17022449/plib_sercom3_spi_master.o
 .ARM.attributes
                0x0000000000000202       0x2c build/default/production/_ext/17022449/plib_sercom0_spi_master.o
 .ARM.attributes
                0x000000000000022e       0x2c build/default/production/_ext/504274921/plib_sercom7_usart.o
 .ARM.attributes
                0x000000000000025a       0x2c build/default/production/_ext/504274921/plib_sercom5_usart.o
 .ARM.attributes
                0x0000000000000286       0x2c build/default/production/_ext/829342655/plib_tc2.o
 .ARM.attributes
                0x00000000000002b2       0x2c build/default/production/_ext/829342655/plib_tc4.o
 .ARM.attributes
                0x00000000000002de       0x2c build/default/production/_ext/1832805299/sys_console.o
 .ARM.attributes
                0x000000000000030a       0x2c build/default/production/_ext/1832805299/sys_console_uart.o
 .ARM.attributes
                0x0000000000000336       0x2c build/default/production/_ext/944882569/sys_debug.o
 .ARM.attributes
                0x0000000000000362       0x2c build/default/production/_ext/1171490990/initialization.o
 .ARM.attributes
                0x000000000000038e       0x2c build/default/production/_ext/1171490990/interrupts.o
 .ARM.attributes
                0x00000000000003ba       0x2c build/default/production/_ext/1171490990/exceptions.o
 .ARM.attributes
                0x00000000000003e6       0x2c build/default/production/_ext/1171490990/startup_xc32.o
 .ARM.attributes
                0x0000000000000412       0x2c build/default/production/_ext/1171490990/freertos_hooks.o
 .ARM.attributes
                0x000000000000043e       0x2c build/default/production/_ext/1171490990/tasks.o
 .ARM.attributes
                0x000000000000046a       0x2c build/default/production/_ext/1624415188/port.o
 .ARM.attributes
                0x0000000000000496       0x2c build/default/production/_ext/1624415188/portasm.o
 .ARM.attributes
                0x00000000000004c2       0x2c build/default/production/_ext/1665200909/heap_1.o
 .ARM.attributes
                0x00000000000004ee       0x2c build/default/production/_ext/404212886/list.o
 .ARM.attributes
                0x000000000000051a       0x2c build/default/production/_ext/404212886/queue.o
 .ARM.attributes
                0x0000000000000546       0x2c build/default/production/_ext/404212886/FreeRTOS_tasks.o
 .ARM.attributes
                0x0000000000000572       0x2c build/default/production/_ext/404212886/timers.o
 .ARM.attributes
                0x000000000000059e       0x2c build/default/production/_ext/1360937237/freertos_daemon.o
 .ARM.attributes
                0x00000000000005ca       0x2c build/default/production/_ext/1360937237/main.o
 .ARM.attributes
                0x00000000000005f6       0x2c build/default/production/_ext/1360937237/health_task.o
 .ARM.attributes
                0x0000000000000622       0x2c build/default/production/_ext/1360937237/tmc4671_motion.o
 .ARM.attributes
                0x000000000000064e       0x2c build/default/production/_ext/1360937237/tmc2209_motion.o
 .ARM.attributes
                0x000000000000067a       0x2c build/default/production/_ext/1360937237/can_task.o
 .ARM.attributes
                0x00000000000006a6       0x2c build/default/production/_ext/1360937237/cmd_parser.o
 .ARM.attributes
                0x00000000000006d2       0x2c build/default/production/_ext/1360937237/debug_logger.o
 .ARM.attributes
                0x00000000000006fe       0x2c d:/mplab x ide/xcompilers/bin/bin/../../lib/gcc/pic32c/8.3.1/../../../../pic32c/lib/thumb/v6-m/nofp\libpic32c.a(data_init.o)
 .ARM.attributes
                0x000000000000072a       0x2e d:/mplab x ide/xcompilers/bin/bin/../../lib/gcc/pic32c/8.3.1/../../../../pic32c/lib/thumb/v6-m/nofp\libc-size-musl.a(memcpy.o)
 .ARM.attributes
                0x0000000000000758       0x2e d:/mplab x ide/xcompilers/bin/bin/../../lib/gcc/pic32c/8.3.1/../../../../pic32c/lib/thumb/v6-m/nofp\libc-size-musl.a(memset.o)
 .ARM.attributes
                0x0000000000000786       0x2e d:/mplab x ide/xcompilers/bin/bin/../../lib/gcc/pic32c/8.3.1/../../../../pic32c/lib/thumb/v6-m/nofp\libc-musl.a(__libc_start_main.o)
 .ARM.attributes
                0x00000000000007b4       0x2e d:/mplab x ide/xcompilers/bin/bin/../../lib/gcc/pic32c/8.3.1/../../../../pic32c/lib/thumb/v6-m/nofp\libc-musl.a(libc.o)
 .ARM.attributes
                0x00000000000007e2       0x2e d:/mplab x ide/xcompilers/bin/bin/../../lib/gcc/pic32c/8.3.1/../../../../pic32c/lib/thumb/v6-m/nofp\libc-musl.a(__environ.o)
 .ARM.attributes
                0x0000000000000810       0x2e d:/mplab x ide/xcompilers/bin/bin/../../lib/gcc/pic32c/8.3.1/../../../../pic32c/lib/thumb/v6-m/nofp\libc-musl.a(stdout.o)
 .ARM.attributes
                0x000000000000083e       0x2e d:/mplab x ide/xcompilers/bin/bin/../../lib/gcc/pic32c/8.3.1/../../../../pic32c/lib/thumb/v6-m/nofp\libc-musl.a(__init_stdio.o)
 .ARM.attributes
                0x000000000000086c       0x1e d:/mplab x ide/xcompilers/bin/bin/../../lib/gcc/pic32c/8.3.1/thumb/v6-m/nofp/crtn.o
 .ARM.attributes
                0x000000000000088a       0x2c d:/mplab x ide/xcompilers/bin/bin/../../lib/gcc/pic32c/8.3.1/../../../../pic32c/lib/thumb/v6-m/nofp\libpic32c.a(pic32_data_init_clear.o)
 .ARM.attributes
                0x00000000000008b6       0x2c d:/mplab x ide/xcompilers/bin/bin/../../lib/gcc/pic32c/8.3.1/../../../../pic32c/lib/thumb/v6-m/nofp\libpic32c.a(pic32_data_init_copy.o)

.comment        0x0000000000000000       0x2b
 .comment       0x0000000000000000       0x2b d:/mplab x ide/xcompilers/bin/bin/../../lib/gcc/pic32c/8.3.1/thumb/v6-m/nofp/crtbegin.o
                                         0x2c (size before relaxing)
 .comment       0x000000000000002b       0x2c build/default/production/_ext/1529399856/osal_freertos.o
 .comment       0x000000000000002b       0x2c build/default/production/_ext/60163342/plib_adc0.o
 .comment       0x000000000000002b       0x2c build/default/production/_ext/60165182/plib_can1.o
 .comment       0x000000000000002b       0x2c build/default/production/_ext/1984496892/plib_clock.o
 .comment       0x000000000000002b       0x2c build/default/production/_ext/60167341/plib_eic.o
 .comment       0x000000000000002b       0x2c build/default/production/_ext/1986646378/plib_evsys.o
 .comment       0x000000000000002b       0x2c build/default/production/_ext/1865468468/plib_nvic.o
 .comment       0x000000000000002b       0x2c build/default/production/_ext/1593096446/plib_nvmctrl.o
 .comment       0x000000000000002b       0x2c build/default/production/_ext/1865521619/plib_port.o
 .comment       0x000000000000002b       0x2c build/default/production/_ext/17022449/plib_sercom3_spi_master.o
 .comment       0x000000000000002b       0x2c build/default/production/_ext/17022449/plib_sercom0_spi_master.o
 .comment       0x000000000000002b       0x2c build/default/production/_ext/504274921/plib_sercom7_usart.o
 .comment       0x000000000000002b       0x2c build/default/production/_ext/504274921/plib_sercom5_usart.o
 .comment       0x000000000000002b       0x2c build/default/production/_ext/829342655/plib_tc2.o
 .comment       0x000000000000002b       0x2c build/default/production/_ext/829342655/plib_tc4.o
 .comment       0x000000000000002b       0x2c build/default/production/_ext/1832805299/sys_console.o
 .comment       0x000000000000002b       0x2c build/default/production/_ext/1832805299/sys_console_uart.o
 .comment       0x000000000000002b       0x2c build/default/production/_ext/944882569/sys_debug.o
 .comment       0x000000000000002b       0x2c build/default/production/_ext/1171490990/initialization.o
 .comment       0x000000000000002b       0x2c build/default/production/_ext/1171490990/interrupts.o
 .comment       0x000000000000002b       0x2c build/default/production/_ext/1171490990/exceptions.o
 .comment       0x000000000000002b       0x2c build/default/production/_ext/1171490990/startup_xc32.o
 .comment       0x000000000000002b       0x2c build/default/production/_ext/1171490990/freertos_hooks.o
 .comment       0x000000000000002b       0x2c build/default/production/_ext/1171490990/tasks.o
 .comment       0x000000000000002b       0x2c build/default/production/_ext/1624415188/port.o
 .comment       0x000000000000002b       0x2c build/default/production/_ext/1624415188/portasm.o
 .comment       0x000000000000002b       0x2c build/default/production/_ext/1665200909/heap_1.o
 .comment       0x000000000000002b       0x2c build/default/production/_ext/404212886/list.o
 .comment       0x000000000000002b       0x2c build/default/production/_ext/404212886/queue.o
 .comment       0x000000000000002b       0x2c build/default/production/_ext/404212886/FreeRTOS_tasks.o
 .comment       0x000000000000002b       0x2c build/default/production/_ext/404212886/timers.o
 .comment       0x000000000000002b       0x2c build/default/production/_ext/1360937237/freertos_daemon.o
 .comment       0x000000000000002b       0x2c build/default/production/_ext/1360937237/main.o
 .comment       0x000000000000002b       0x2c build/default/production/_ext/1360937237/health_task.o
 .comment       0x000000000000002b       0x2c build/default/production/_ext/1360937237/tmc4671_motion.o
 .comment       0x000000000000002b       0x2c build/default/production/_ext/1360937237/tmc2209_motion.o
 .comment       0x000000000000002b       0x2c build/default/production/_ext/1360937237/can_task.o
 .comment       0x000000000000002b       0x2c build/default/production/_ext/1360937237/cmd_parser.o
 .comment       0x000000000000002b       0x2c build/default/production/_ext/1360937237/debug_logger.o
 .comment       0x000000000000002b       0x2c d:/mplab x ide/xcompilers/bin/bin/../../lib/gcc/pic32c/8.3.1/../../../../pic32c/lib/thumb/v6-m/nofp\libpic32c.a(data_init.o)
 .comment       0x000000000000002b       0x2c d:/mplab x ide/xcompilers/bin/bin/../../lib/gcc/pic32c/8.3.1/../../../../pic32c/lib/thumb/v6-m/nofp\libc-size-musl.a(memcpy.o)
 .comment       0x000000000000002b       0x2c d:/mplab x ide/xcompilers/bin/bin/../../lib/gcc/pic32c/8.3.1/../../../../pic32c/lib/thumb/v6-m/nofp\libc-size-musl.a(memset.o)
 .comment       0x000000000000002b       0x2c d:/mplab x ide/xcompilers/bin/bin/../../lib/gcc/pic32c/8.3.1/../../../../pic32c/lib/thumb/v6-m/nofp\libc-musl.a(__libc_start_main.o)
 .comment       0x000000000000002b       0x2c d:/mplab x ide/xcompilers/bin/bin/../../lib/gcc/pic32c/8.3.1/../../../../pic32c/lib/thumb/v6-m/nofp\libc-musl.a(libc.o)
 .comment       0x000000000000002b       0x2c d:/mplab x ide/xcompilers/bin/bin/../../lib/gcc/pic32c/8.3.1/../../../../pic32c/lib/thumb/v6-m/nofp\libc-musl.a(__environ.o)
 .comment       0x000000000000002b       0x2c d:/mplab x ide/xcompilers/bin/bin/../../lib/gcc/pic32c/8.3.1/../../../../pic32c/lib/thumb/v6-m/nofp\libc-musl.a(stdout.o)
 .comment       0x000000000000002b       0x2c d:/mplab x ide/xcompilers/bin/bin/../../lib/gcc/pic32c/8.3.1/../../../../pic32c/lib/thumb/v6-m/nofp\libc-musl.a(__init_stdio.o)
 .comment       0x000000000000002b       0x2c d:/mplab x ide/xcompilers/bin/bin/../../lib/gcc/pic32c/8.3.1/../../../../pic32c/lib/thumb/v6-m/nofp\libpic32c.a(pic32_data_init_clear.o)
 .comment       0x000000000000002b       0x2c d:/mplab x ide/xcompilers/bin/bin/../../lib/gcc/pic32c/8.3.1/../../../../pic32c/lib/thumb/v6-m/nofp\libpic32c.a(pic32_data_init_copy.o)

.debug_info     0x0000000000000000    0x15eec
 .debug_info    0x0000000000000000      0x790 build/default/production/_ext/1529399856/osal_freertos.o
 .debug_info    0x0000000000000790      0x617 build/default/production/_ext/60163342/plib_adc0.o
 .debug_info    0x0000000000000da7     0x1300 build/default/production/_ext/60165182/plib_can1.o
 .debug_info    0x00000000000020a7      0x658 build/default/production/_ext/1984496892/plib_clock.o
 .debug_info    0x00000000000026ff      0x3a7 build/default/production/_ext/60167341/plib_eic.o
 .debug_info    0x0000000000002aa6       0x9b build/default/production/_ext/1986646378/plib_evsys.o
 .debug_info    0x0000000000002b41      0x929 build/default/production/_ext/1865468468/plib_nvic.o
 .debug_info    0x000000000000346a      0x732 build/default/production/_ext/1593096446/plib_nvmctrl.o
 .debug_info    0x0000000000003b9c      0x7b4 build/default/production/_ext/1865521619/plib_port.o
 .debug_info    0x0000000000004350      0xcef build/default/production/_ext/17022449/plib_sercom3_spi_master.o
 .debug_info    0x000000000000503f      0xcef build/default/production/_ext/17022449/plib_sercom0_spi_master.o
 .debug_info    0x0000000000005d2e     0x17ae build/default/production/_ext/504274921/plib_sercom7_usart.o
 .debug_info    0x00000000000074dc     0x17ae build/default/production/_ext/504274921/plib_sercom5_usart.o
 .debug_info    0x0000000000008c8a      0x814 build/default/production/_ext/829342655/plib_tc2.o
 .debug_info    0x000000000000949e      0x814 build/default/production/_ext/829342655/plib_tc4.o
 .debug_info    0x0000000000009cb2      0xc10 build/default/production/_ext/1832805299/sys_console.o
 .debug_info    0x000000000000a8c2      0xbf2 build/default/production/_ext/1832805299/sys_console_uart.o
 .debug_info    0x000000000000b4b4      0x34a build/default/production/_ext/944882569/sys_debug.o
 .debug_info    0x000000000000b7fe      0xa51 build/default/production/_ext/1171490990/initialization.o
 .debug_info    0x000000000000c24f      0x45a build/default/production/_ext/1171490990/interrupts.o
 .debug_info    0x000000000000c6a9       0xc1 build/default/production/_ext/1171490990/exceptions.o
 .debug_info    0x000000000000c76a      0x205 build/default/production/_ext/1171490990/startup_xc32.o
 .debug_info    0x000000000000c96f      0x1ac build/default/production/_ext/1171490990/freertos_hooks.o
 .debug_info    0x000000000000cb1b      0x4da build/default/production/_ext/1171490990/tasks.o
 .debug_info    0x000000000000cff5      0x3a3 build/default/production/_ext/1624415188/port.o
 .debug_info    0x000000000000d398      0x17c build/default/production/_ext/1624415188/portasm.o
 .debug_info    0x000000000000d514      0x238 build/default/production/_ext/1665200909/heap_1.o
 .debug_info    0x000000000000d74c      0x2ff build/default/production/_ext/404212886/list.o
 .debug_info    0x000000000000da4b     0x1bdf build/default/production/_ext/404212886/queue.o
 .debug_info    0x000000000000f62a     0x2aed build/default/production/_ext/404212886/FreeRTOS_tasks.o
 .debug_info    0x0000000000012117     0x14cc build/default/production/_ext/404212886/timers.o
 .debug_info    0x00000000000135e3     0x157f build/default/production/_ext/1360937237/freertos_daemon.o
 .debug_info    0x0000000000014b62       0xeb build/default/production/_ext/1360937237/main.o
 .debug_info    0x0000000000014c4d      0x13a build/default/production/_ext/1360937237/health_task.o
 .debug_info    0x0000000000014d87      0x13a build/default/production/_ext/1360937237/tmc4671_motion.o
 .debug_info    0x0000000000014ec1      0x13a build/default/production/_ext/1360937237/tmc2209_motion.o
 .debug_info    0x0000000000014ffb      0x13a build/default/production/_ext/1360937237/can_task.o
 .debug_info    0x0000000000015135      0x13a build/default/production/_ext/1360937237/cmd_parser.o
 .debug_info    0x000000000001526f      0x13a build/default/production/_ext/1360937237/debug_logger.o
 .debug_info    0x00000000000153a9       0x68 d:/mplab x ide/xcompilers/bin/bin/../../lib/gcc/pic32c/8.3.1/../../../../pic32c/lib/thumb/v6-m/nofp\libpic32c.a(data_init.o)
 .debug_info    0x0000000000015411       0xed d:/mplab x ide/xcompilers/bin/bin/../../lib/gcc/pic32c/8.3.1/../../../../pic32c/lib/thumb/v6-m/nofp\libc-size-musl.a(memcpy.o)
 .debug_info    0x00000000000154fe       0xbb d:/mplab x ide/xcompilers/bin/bin/../../lib/gcc/pic32c/8.3.1/../../../../pic32c/lib/thumb/v6-m/nofp\libc-size-musl.a(memset.o)
 .debug_info    0x00000000000155b9      0x2fb d:/mplab x ide/xcompilers/bin/bin/../../lib/gcc/pic32c/8.3.1/../../../../pic32c/lib/thumb/v6-m/nofp\libc-musl.a(__libc_start_main.o)
 .debug_info    0x00000000000158b4      0x276 d:/mplab x ide/xcompilers/bin/bin/../../lib/gcc/pic32c/8.3.1/../../../../pic32c/lib/thumb/v6-m/nofp\libc-musl.a(libc.o)
 .debug_info    0x0000000000015b2a       0x97 d:/mplab x ide/xcompilers/bin/bin/../../lib/gcc/pic32c/8.3.1/../../../../pic32c/lib/thumb/v6-m/nofp\libc-musl.a(__environ.o)
 .debug_info    0x0000000000015bc1      0x1e9 d:/mplab x ide/xcompilers/bin/bin/../../lib/gcc/pic32c/8.3.1/../../../../pic32c/lib/thumb/v6-m/nofp\libc-musl.a(stdout.o)
 .debug_info    0x0000000000015daa       0xc3 d:/mplab x ide/xcompilers/bin/bin/../../lib/gcc/pic32c/8.3.1/../../../../pic32c/lib/thumb/v6-m/nofp\libc-musl.a(__init_stdio.o)
 .debug_info    0x0000000000015e6d       0x3f d:/mplab x ide/xcompilers/bin/bin/../../lib/gcc/pic32c/8.3.1/../../../../pic32c/lib/thumb/v6-m/nofp\libpic32c.a(pic32_data_init_clear.o)
 .debug_info    0x0000000000015eac       0x40 d:/mplab x ide/xcompilers/bin/bin/../../lib/gcc/pic32c/8.3.1/../../../../pic32c/lib/thumb/v6-m/nofp\libpic32c.a(pic32_data_init_copy.o)

.debug_abbrev   0x0000000000000000     0x4a64
 .debug_abbrev  0x0000000000000000      0x1cd build/default/production/_ext/1529399856/osal_freertos.o
 .debug_abbrev  0x00000000000001cd      0x172 build/default/production/_ext/60163342/plib_adc0.o
 .debug_abbrev  0x000000000000033f      0x30a build/default/production/_ext/60165182/plib_can1.o
 .debug_abbrev  0x0000000000000649      0x149 build/default/production/_ext/1984496892/plib_clock.o
 .debug_abbrev  0x0000000000000792      0x195 build/default/production/_ext/60167341/plib_eic.o
 .debug_abbrev  0x0000000000000927       0x46 build/default/production/_ext/1986646378/plib_evsys.o
 .debug_abbrev  0x000000000000096d      0x271 build/default/production/_ext/1865468468/plib_nvic.o
 .debug_abbrev  0x0000000000000bde      0x1c0 build/default/production/_ext/1593096446/plib_nvmctrl.o
 .debug_abbrev  0x0000000000000d9e      0x1ea build/default/production/_ext/1865521619/plib_port.o
 .debug_abbrev  0x0000000000000f88      0x205 build/default/production/_ext/17022449/plib_sercom3_spi_master.o
 .debug_abbrev  0x000000000000118d      0x205 build/default/production/_ext/17022449/plib_sercom0_spi_master.o
 .debug_abbrev  0x0000000000001392      0x423 build/default/production/_ext/504274921/plib_sercom7_usart.o
 .debug_abbrev  0x00000000000017b5      0x423 build/default/production/_ext/504274921/plib_sercom5_usart.o
 .debug_abbrev  0x0000000000001bd8      0x1be build/default/production/_ext/829342655/plib_tc2.o
 .debug_abbrev  0x0000000000001d96      0x1be build/default/production/_ext/829342655/plib_tc4.o
 .debug_abbrev  0x0000000000001f54      0x363 build/default/production/_ext/1832805299/sys_console.o
 .debug_abbrev  0x00000000000022b7      0x2e8 build/default/production/_ext/1832805299/sys_console_uart.o
 .debug_abbrev  0x000000000000259f      0x1a5 build/default/production/_ext/944882569/sys_debug.o
 .debug_abbrev  0x0000000000002744      0x205 build/default/production/_ext/1171490990/initialization.o
 .debug_abbrev  0x0000000000002949       0xf9 build/default/production/_ext/1171490990/interrupts.o
 .debug_abbrev  0x0000000000002a42       0x49 build/default/production/_ext/1171490990/exceptions.o
 .debug_abbrev  0x0000000000002a8b      0x118 build/default/production/_ext/1171490990/startup_xc32.o
 .debug_abbrev  0x0000000000002ba3      0x102 build/default/production/_ext/1171490990/freertos_hooks.o
 .debug_abbrev  0x0000000000002ca5      0x12b build/default/production/_ext/1171490990/tasks.o
 .debug_abbrev  0x0000000000002dd0      0x180 build/default/production/_ext/1624415188/port.o
 .debug_abbrev  0x0000000000002f50       0xc7 build/default/production/_ext/1624415188/portasm.o
 .debug_abbrev  0x0000000000003017      0x162 build/default/production/_ext/1665200909/heap_1.o
 .debug_abbrev  0x0000000000003179      0x12c build/default/production/_ext/404212886/list.o
 .debug_abbrev  0x00000000000032a5      0x2b8 build/default/production/_ext/404212886/queue.o
 .debug_abbrev  0x000000000000355d      0x3f6 build/default/production/_ext/404212886/FreeRTOS_tasks.o
 .debug_abbrev  0x0000000000003953      0x37c build/default/production/_ext/404212886/timers.o
 .debug_abbrev  0x0000000000003ccf      0x1d5 build/default/production/_ext/1360937237/freertos_daemon.o
 .debug_abbrev  0x0000000000003ea4       0x82 build/default/production/_ext/1360937237/main.o
 .debug_abbrev  0x0000000000003f26       0xdd build/default/production/_ext/1360937237/health_task.o
 .debug_abbrev  0x0000000000004003       0xdd build/default/production/_ext/1360937237/tmc4671_motion.o
 .debug_abbrev  0x00000000000040e0       0xdd build/default/production/_ext/1360937237/tmc2209_motion.o
 .debug_abbrev  0x00000000000041bd       0xdd build/default/production/_ext/1360937237/can_task.o
 .debug_abbrev  0x000000000000429a       0xdd build/default/production/_ext/1360937237/cmd_parser.o
 .debug_abbrev  0x0000000000004377       0xdd build/default/production/_ext/1360937237/debug_logger.o
 .debug_abbrev  0x0000000000004454       0x44 d:/mplab x ide/xcompilers/bin/bin/../../lib/gcc/pic32c/8.3.1/../../../../pic32c/lib/thumb/v6-m/nofp\libpic32c.a(data_init.o)
 .debug_abbrev  0x0000000000004498       0xbb d:/mplab x ide/xcompilers/bin/bin/../../lib/gcc/pic32c/8.3.1/../../../../pic32c/lib/thumb/v6-m/nofp\libc-size-musl.a(memcpy.o)
 .debug_abbrev  0x0000000000004553       0xa2 d:/mplab x ide/xcompilers/bin/bin/../../lib/gcc/pic32c/8.3.1/../../../../pic32c/lib/thumb/v6-m/nofp\libc-size-musl.a(memset.o)
 .debug_abbrev  0x00000000000045f5      0x133 d:/mplab x ide/xcompilers/bin/bin/../../lib/gcc/pic32c/8.3.1/../../../../pic32c/lib/thumb/v6-m/nofp\libc-musl.a(__libc_start_main.o)
 .debug_abbrev  0x0000000000004728       0xd4 d:/mplab x ide/xcompilers/bin/bin/../../lib/gcc/pic32c/8.3.1/../../../../pic32c/lib/thumb/v6-m/nofp\libc-musl.a(libc.o)
 .debug_abbrev  0x00000000000047fc       0x62 d:/mplab x ide/xcompilers/bin/bin/../../lib/gcc/pic32c/8.3.1/../../../../pic32c/lib/thumb/v6-m/nofp\libc-musl.a(__environ.o)
 .debug_abbrev  0x000000000000485e      0x145 d:/mplab x ide/xcompilers/bin/bin/../../lib/gcc/pic32c/8.3.1/../../../../pic32c/lib/thumb/v6-m/nofp\libc-musl.a(stdout.o)
 .debug_abbrev  0x00000000000049a3       0x65 d:/mplab x ide/xcompilers/bin/bin/../../lib/gcc/pic32c/8.3.1/../../../../pic32c/lib/thumb/v6-m/nofp\libc-musl.a(__init_stdio.o)
 .debug_abbrev  0x0000000000004a08       0x2e d:/mplab x ide/xcompilers/bin/bin/../../lib/gcc/pic32c/8.3.1/../../../../pic32c/lib/thumb/v6-m/nofp\libpic32c.a(pic32_data_init_clear.o)
 .debug_abbrev  0x0000000000004a36       0x2e d:/mplab x ide/xcompilers/bin/bin/../../lib/gcc/pic32c/8.3.1/../../../../pic32c/lib/thumb/v6-m/nofp\libpic32c.a(pic32_data_init_copy.o)

.debug_loc      0x0000000000000000     0xc39c
 .debug_loc     0x0000000000000000      0x7af build/default/production/_ext/1529399856/osal_freertos.o
 .debug_loc     0x00000000000007af      0x14d build/default/production/_ext/60163342/plib_adc0.o
 .debug_loc     0x00000000000008fc      0xc67 build/default/production/_ext/60165182/plib_can1.o
 .debug_loc     0x0000000000001563       0x45 build/default/production/_ext/1984496892/plib_clock.o
 .debug_loc     0x00000000000015a8      0x110 build/default/production/_ext/60167341/plib_eic.o
 .debug_loc     0x00000000000016b8      0x265 build/default/production/_ext/1865468468/plib_nvic.o
 .debug_loc     0x000000000000191d      0x665 build/default/production/_ext/1593096446/plib_nvmctrl.o
 .debug_loc     0x0000000000001f82      0x2bb build/default/production/_ext/1865521619/plib_port.o
 .debug_loc     0x000000000000223d      0x5c8 build/default/production/_ext/17022449/plib_sercom3_spi_master.o
 .debug_loc     0x0000000000002805      0x5c8 build/default/production/_ext/17022449/plib_sercom0_spi_master.o
 .debug_loc     0x0000000000002dcd      0xd8f build/default/production/_ext/504274921/plib_sercom7_usart.o
 .debug_loc     0x0000000000003b5c      0xd8f build/default/production/_ext/504274921/plib_sercom5_usart.o
 .debug_loc     0x00000000000048eb       0x74 build/default/production/_ext/829342655/plib_tc2.o
 .debug_loc     0x000000000000495f       0x74 build/default/production/_ext/829342655/plib_tc4.o
 .debug_loc     0x00000000000049d3      0xb69 build/default/production/_ext/1832805299/sys_console.o
 .debug_loc     0x000000000000553c      0x83c build/default/production/_ext/1832805299/sys_console_uart.o
 .debug_loc     0x0000000000005d78       0xb5 build/default/production/_ext/944882569/sys_debug.o
 .debug_loc     0x0000000000005e2d       0x45 build/default/production/_ext/1171490990/initialization.o
 .debug_loc     0x0000000000005e72       0x40 build/default/production/_ext/1171490990/interrupts.o
 .debug_loc     0x0000000000005eb2       0x20 build/default/production/_ext/1171490990/startup_xc32.o
 .debug_loc     0x0000000000005ed2       0x76 build/default/production/_ext/1171490990/freertos_hooks.o
 .debug_loc     0x0000000000005f48      0x1ca build/default/production/_ext/1171490990/tasks.o
 .debug_loc     0x0000000000006112      0x44b build/default/production/_ext/1624415188/port.o
 .debug_loc     0x000000000000655d       0xd7 build/default/production/_ext/1665200909/heap_1.o
 .debug_loc     0x0000000000006634       0xa6 build/default/production/_ext/404212886/list.o
 .debug_loc     0x00000000000066da     0x1adc build/default/production/_ext/404212886/queue.o
 .debug_loc     0x00000000000081b6     0x2b3a build/default/production/_ext/404212886/FreeRTOS_tasks.o
 .debug_loc     0x000000000000acf0     0x1328 build/default/production/_ext/404212886/timers.o
 .debug_loc     0x000000000000c018       0x20 build/default/production/_ext/1360937237/main.o
 .debug_loc     0x000000000000c038       0x16 build/default/production/_ext/1360937237/health_task.o
 .debug_loc     0x000000000000c04e       0x16 build/default/production/_ext/1360937237/tmc4671_motion.o
 .debug_loc     0x000000000000c064       0x16 build/default/production/_ext/1360937237/tmc2209_motion.o
 .debug_loc     0x000000000000c07a       0x16 build/default/production/_ext/1360937237/can_task.o
 .debug_loc     0x000000000000c090       0x16 build/default/production/_ext/1360937237/cmd_parser.o
 .debug_loc     0x000000000000c0a6       0x16 build/default/production/_ext/1360937237/debug_logger.o
 .debug_loc     0x000000000000c0bc       0x14 d:/mplab x ide/xcompilers/bin/bin/../../lib/gcc/pic32c/8.3.1/../../../../pic32c/lib/thumb/v6-m/nofp\libpic32c.a(data_init.o)
 .debug_loc     0x000000000000c0d0      0x12d d:/mplab x ide/xcompilers/bin/bin/../../lib/gcc/pic32c/8.3.1/../../../../pic32c/lib/thumb/v6-m/nofp\libc-size-musl.a(memcpy.o)
 .debug_loc     0x000000000000c1fd       0xcd d:/mplab x ide/xcompilers/bin/bin/../../lib/gcc/pic32c/8.3.1/../../../../pic32c/lib/thumb/v6-m/nofp\libc-size-musl.a(memset.o)
 .debug_loc     0x000000000000c2ca       0x5e d:/mplab x ide/xcompilers/bin/bin/../../lib/gcc/pic32c/8.3.1/../../../../pic32c/lib/thumb/v6-m/nofp\libc-musl.a(__libc_start_main.o)
 .debug_loc     0x000000000000c328       0x40 d:/mplab x ide/xcompilers/bin/bin/../../lib/gcc/pic32c/8.3.1/../../../../pic32c/lib/thumb/v6-m/nofp\libc-musl.a(stdout.o)
 .debug_loc     0x000000000000c368       0x20 d:/mplab x ide/xcompilers/bin/bin/../../lib/gcc/pic32c/8.3.1/../../../../pic32c/lib/thumb/v6-m/nofp\libc-musl.a(__init_stdio.o)
 .debug_loc     0x000000000000c388       0x14 d:/mplab x ide/xcompilers/bin/bin/../../lib/gcc/pic32c/8.3.1/../../../../pic32c/lib/thumb/v6-m/nofp\libpic32c.a(pic32_data_init_copy.o)

.debug_aranges  0x0000000000000000     0x1078
 .debug_aranges
                0x0000000000000000       0x90 build/default/production/_ext/1529399856/osal_freertos.o
 .debug_aranges
                0x0000000000000090       0x80 build/default/production/_ext/60163342/plib_adc0.o
 .debug_aranges
                0x0000000000000110       0xa0 build/default/production/_ext/60165182/plib_can1.o
 .debug_aranges
                0x00000000000001b0       0x20 build/default/production/_ext/1984496892/plib_clock.o
 .debug_aranges
                0x00000000000001d0       0x40 build/default/production/_ext/60167341/plib_eic.o
 .debug_aranges
                0x0000000000000210       0x20 build/default/production/_ext/1986646378/plib_evsys.o
 .debug_aranges
                0x0000000000000230       0x48 build/default/production/_ext/1865468468/plib_nvic.o
 .debug_aranges
                0x0000000000000278       0xa0 build/default/production/_ext/1593096446/plib_nvmctrl.o
 .debug_aranges
                0x0000000000000318       0x70 build/default/production/_ext/1865521619/plib_port.o
 .debug_aranges
                0x0000000000000388       0x48 build/default/production/_ext/17022449/plib_sercom3_spi_master.o
 .debug_aranges
                0x00000000000003d0       0x48 build/default/production/_ext/17022449/plib_sercom0_spi_master.o
 .debug_aranges
                0x0000000000000418       0xe8 build/default/production/_ext/504274921/plib_sercom7_usart.o
 .debug_aranges
                0x0000000000000500       0xe8 build/default/production/_ext/504274921/plib_sercom5_usart.o
 .debug_aranges
                0x00000000000005e8       0x70 build/default/production/_ext/829342655/plib_tc2.o
 .debug_aranges
                0x0000000000000658       0x70 build/default/production/_ext/829342655/plib_tc4.o
 .debug_aranges
                0x00000000000006c8       0x88 build/default/production/_ext/1832805299/sys_console.o
 .debug_aranges
                0x0000000000000750       0x70 build/default/production/_ext/1832805299/sys_console_uart.o
 .debug_aranges
                0x00000000000007c0       0x48 build/default/production/_ext/944882569/sys_debug.o
 .debug_aranges
                0x0000000000000808       0x20 build/default/production/_ext/1171490990/initialization.o
 .debug_aranges
                0x0000000000000828       0x30 build/default/production/_ext/1171490990/interrupts.o
 .debug_aranges
                0x0000000000000858       0x28 build/default/production/_ext/1171490990/exceptions.o
 .debug_aranges
                0x0000000000000880       0x28 build/default/production/_ext/1171490990/startup_xc32.o
 .debug_aranges
                0x00000000000008a8       0x40 build/default/production/_ext/1171490990/freertos_hooks.o
 .debug_aranges
                0x00000000000008e8       0x50 build/default/production/_ext/1171490990/tasks.o
 .debug_aranges
                0x0000000000000938       0x70 build/default/production/_ext/1624415188/port.o
 .debug_aranges
                0x00000000000009a8       0x60 build/default/production/_ext/1624415188/portasm.o
 .debug_aranges
                0x0000000000000a08       0x40 build/default/production/_ext/1665200909/heap_1.o
 .debug_aranges
                0x0000000000000a48       0x40 build/default/production/_ext/404212886/list.o
 .debug_aranges
                0x0000000000000a88       0xe0 build/default/production/_ext/404212886/queue.o
 .debug_aranges
                0x0000000000000b68      0x1b0 build/default/production/_ext/404212886/FreeRTOS_tasks.o
 .debug_aranges
                0x0000000000000d18       0xd0 build/default/production/_ext/404212886/timers.o
 .debug_aranges
                0x0000000000000de8       0x20 build/default/production/_ext/1360937237/freertos_daemon.o
 .debug_aranges
                0x0000000000000e08       0x20 build/default/production/_ext/1360937237/main.o
 .debug_aranges
                0x0000000000000e28       0x28 build/default/production/_ext/1360937237/health_task.o
 .debug_aranges
                0x0000000000000e50       0x28 build/default/production/_ext/1360937237/tmc4671_motion.o
 .debug_aranges
                0x0000000000000e78       0x28 build/default/production/_ext/1360937237/tmc2209_motion.o
 .debug_aranges
                0x0000000000000ea0       0x28 build/default/production/_ext/1360937237/can_task.o
 .debug_aranges
                0x0000000000000ec8       0x28 build/default/production/_ext/1360937237/cmd_parser.o
 .debug_aranges
                0x0000000000000ef0       0x28 build/default/production/_ext/1360937237/debug_logger.o
 .debug_aranges
                0x0000000000000f18       0x30 d:/mplab x ide/xcompilers/bin/bin/../../lib/gcc/pic32c/8.3.1/../../../../pic32c/lib/thumb/v6-m/nofp\libpic32c.a(data_init.o)
 .debug_aranges
                0x0000000000000f48       0x20 d:/mplab x ide/xcompilers/bin/bin/../../lib/gcc/pic32c/8.3.1/../../../../pic32c/lib/thumb/v6-m/nofp\libc-size-musl.a(memcpy.o)
 .debug_aranges
                0x0000000000000f68       0x20 d:/mplab x ide/xcompilers/bin/bin/../../lib/gcc/pic32c/8.3.1/../../../../pic32c/lib/thumb/v6-m/nofp\libc-size-musl.a(memset.o)
 .debug_aranges
                0x0000000000000f88       0x28 d:/mplab x ide/xcompilers/bin/bin/../../lib/gcc/pic32c/8.3.1/../../../../pic32c/lib/thumb/v6-m/nofp\libc-musl.a(__libc_start_main.o)
 .debug_aranges
                0x0000000000000fb0       0x18 d:/mplab x ide/xcompilers/bin/bin/../../lib/gcc/pic32c/8.3.1/../../../../pic32c/lib/thumb/v6-m/nofp\libc-musl.a(libc.o)
 .debug_aranges
                0x0000000000000fc8       0x18 d:/mplab x ide/xcompilers/bin/bin/../../lib/gcc/pic32c/8.3.1/../../../../pic32c/lib/thumb/v6-m/nofp\libc-musl.a(__environ.o)
 .debug_aranges
                0x0000000000000fe0       0x30 d:/mplab x ide/xcompilers/bin/bin/../../lib/gcc/pic32c/8.3.1/../../../../pic32c/lib/thumb/v6-m/nofp\libc-musl.a(stdout.o)
 .debug_aranges
                0x0000000000001010       0x28 d:/mplab x ide/xcompilers/bin/bin/../../lib/gcc/pic32c/8.3.1/../../../../pic32c/lib/thumb/v6-m/nofp\libc-musl.a(__init_stdio.o)
 .debug_aranges
                0x0000000000001038       0x20 d:/mplab x ide/xcompilers/bin/bin/../../lib/gcc/pic32c/8.3.1/../../../../pic32c/lib/thumb/v6-m/nofp\libpic32c.a(pic32_data_init_clear.o)
 .debug_aranges
                0x0000000000001058       0x20 d:/mplab x ide/xcompilers/bin/bin/../../lib/gcc/pic32c/8.3.1/../../../../pic32c/lib/thumb/v6-m/nofp\libpic32c.a(pic32_data_init_copy.o)

.debug_ranges   0x0000000000000000     0x13f8
 .debug_ranges  0x0000000000000000       0x80 build/default/production/_ext/1529399856/osal_freertos.o
 .debug_ranges  0x0000000000000080       0x70 build/default/production/_ext/60163342/plib_adc0.o
 .debug_ranges  0x00000000000000f0       0x90 build/default/production/_ext/60165182/plib_can1.o
 .debug_ranges  0x0000000000000180       0x10 build/default/production/_ext/1984496892/plib_clock.o
 .debug_ranges  0x0000000000000190       0x30 build/default/production/_ext/60167341/plib_eic.o
 .debug_ranges  0x00000000000001c0       0x10 build/default/production/_ext/1986646378/plib_evsys.o
 .debug_ranges  0x00000000000001d0       0x50 build/default/production/_ext/1865468468/plib_nvic.o
 .debug_ranges  0x0000000000000220       0x90 build/default/production/_ext/1593096446/plib_nvmctrl.o
 .debug_ranges  0x00000000000002b0       0x60 build/default/production/_ext/1865521619/plib_port.o
 .debug_ranges  0x0000000000000310       0x38 build/default/production/_ext/17022449/plib_sercom3_spi_master.o
 .debug_ranges  0x0000000000000348       0x38 build/default/production/_ext/17022449/plib_sercom0_spi_master.o
 .debug_ranges  0x0000000000000380      0x1e8 build/default/production/_ext/504274921/plib_sercom7_usart.o
 .debug_ranges  0x0000000000000568      0x1e8 build/default/production/_ext/504274921/plib_sercom5_usart.o
 .debug_ranges  0x0000000000000750       0x60 build/default/production/_ext/829342655/plib_tc2.o
 .debug_ranges  0x00000000000007b0       0x60 build/default/production/_ext/829342655/plib_tc4.o
 .debug_ranges  0x0000000000000810       0x78 build/default/production/_ext/1832805299/sys_console.o
 .debug_ranges  0x0000000000000888       0x60 build/default/production/_ext/1832805299/sys_console_uart.o
 .debug_ranges  0x00000000000008e8       0x38 build/default/production/_ext/944882569/sys_debug.o
 .debug_ranges  0x0000000000000920       0x10 build/default/production/_ext/1171490990/initialization.o
 .debug_ranges  0x0000000000000930       0x20 build/default/production/_ext/1171490990/interrupts.o
 .debug_ranges  0x0000000000000950       0x18 build/default/production/_ext/1171490990/exceptions.o
 .debug_ranges  0x0000000000000968       0x18 build/default/production/_ext/1171490990/startup_xc32.o
 .debug_ranges  0x0000000000000980       0x30 build/default/production/_ext/1171490990/freertos_hooks.o
 .debug_ranges  0x00000000000009b0       0x40 build/default/production/_ext/1171490990/tasks.o
 .debug_ranges  0x00000000000009f0       0x60 build/default/production/_ext/1624415188/port.o
 .debug_ranges  0x0000000000000a50       0x50 build/default/production/_ext/1624415188/portasm.o
 .debug_ranges  0x0000000000000aa0       0x48 build/default/production/_ext/1665200909/heap_1.o
 .debug_ranges  0x0000000000000ae8       0x30 build/default/production/_ext/404212886/list.o
 .debug_ranges  0x0000000000000b18      0x208 build/default/production/_ext/404212886/queue.o
 .debug_ranges  0x0000000000000d20      0x438 build/default/production/_ext/404212886/FreeRTOS_tasks.o
 .debug_ranges  0x0000000000001158      0x128 build/default/production/_ext/404212886/timers.o
 .debug_ranges  0x0000000000001280       0x10 build/default/production/_ext/1360937237/freertos_daemon.o
 .debug_ranges  0x0000000000001290       0x10 build/default/production/_ext/1360937237/main.o
 .debug_ranges  0x00000000000012a0       0x18 build/default/production/_ext/1360937237/health_task.o
 .debug_ranges  0x00000000000012b8       0x18 build/default/production/_ext/1360937237/tmc4671_motion.o
 .debug_ranges  0x00000000000012d0       0x18 build/default/production/_ext/1360937237/tmc2209_motion.o
 .debug_ranges  0x00000000000012e8       0x18 build/default/production/_ext/1360937237/can_task.o
 .debug_ranges  0x0000000000001300       0x18 build/default/production/_ext/1360937237/cmd_parser.o
 .debug_ranges  0x0000000000001318       0x18 build/default/production/_ext/1360937237/debug_logger.o
 .debug_ranges  0x0000000000001330       0x20 d:/mplab x ide/xcompilers/bin/bin/../../lib/gcc/pic32c/8.3.1/../../../../pic32c/lib/thumb/v6-m/nofp\libpic32c.a(data_init.o)
 .debug_ranges  0x0000000000001350       0x10 d:/mplab x ide/xcompilers/bin/bin/../../lib/gcc/pic32c/8.3.1/../../../../pic32c/lib/thumb/v6-m/nofp\libc-size-musl.a(memcpy.o)
 .debug_ranges  0x0000000000001360       0x10 d:/mplab x ide/xcompilers/bin/bin/../../lib/gcc/pic32c/8.3.1/../../../../pic32c/lib/thumb/v6-m/nofp\libc-size-musl.a(memset.o)
 .debug_ranges  0x0000000000001370       0x30 d:/mplab x ide/xcompilers/bin/bin/../../lib/gcc/pic32c/8.3.1/../../../../pic32c/lib/thumb/v6-m/nofp\libc-musl.a(__libc_start_main.o)
 .debug_ranges  0x00000000000013a0       0x20 d:/mplab x ide/xcompilers/bin/bin/../../lib/gcc/pic32c/8.3.1/../../../../pic32c/lib/thumb/v6-m/nofp\libc-musl.a(stdout.o)
 .debug_ranges  0x00000000000013c0       0x18 d:/mplab x ide/xcompilers/bin/bin/../../lib/gcc/pic32c/8.3.1/../../../../pic32c/lib/thumb/v6-m/nofp\libc-musl.a(__init_stdio.o)
 .debug_ranges  0x00000000000013d8       0x10 d:/mplab x ide/xcompilers/bin/bin/../../lib/gcc/pic32c/8.3.1/../../../../pic32c/lib/thumb/v6-m/nofp\libpic32c.a(pic32_data_init_clear.o)
 .debug_ranges  0x00000000000013e8       0x10 d:/mplab x ide/xcompilers/bin/bin/../../lib/gcc/pic32c/8.3.1/../../../../pic32c/lib/thumb/v6-m/nofp\libpic32c.a(pic32_data_init_copy.o)

.debug_line     0x0000000000000000     0xb537
 .debug_line    0x0000000000000000      0x49e build/default/production/_ext/1529399856/osal_freertos.o
 .debug_line    0x000000000000049e      0x38e build/default/production/_ext/60163342/plib_adc0.o
 .debug_line    0x000000000000082c      0x78e build/default/production/_ext/60165182/plib_can1.o
 .debug_line    0x0000000000000fba      0x3ca build/default/production/_ext/1984496892/plib_clock.o
 .debug_line    0x0000000000001384      0x2bd build/default/production/_ext/60167341/plib_eic.o
 .debug_line    0x0000000000001641       0x66 build/default/production/_ext/1986646378/plib_evsys.o
 .debug_line    0x00000000000016a7      0x48c build/default/production/_ext/1865468468/plib_nvic.o
 .debug_line    0x0000000000001b33      0x442 build/default/production/_ext/1593096446/plib_nvmctrl.o
 .debug_line    0x0000000000001f75      0x478 build/default/production/_ext/1865521619/plib_port.o
 .debug_line    0x00000000000023ed      0x4b5 build/default/production/_ext/17022449/plib_sercom3_spi_master.o
 .debug_line    0x00000000000028a2      0x4b5 build/default/production/_ext/17022449/plib_sercom0_spi_master.o
 .debug_line    0x0000000000002d57      0xd09 build/default/production/_ext/504274921/plib_sercom7_usart.o
 .debug_line    0x0000000000003a60      0xd0b build/default/production/_ext/504274921/plib_sercom5_usart.o
 .debug_line    0x000000000000476b      0x337 build/default/production/_ext/829342655/plib_tc2.o
 .debug_line    0x0000000000004aa2      0x337 build/default/production/_ext/829342655/plib_tc4.o
 .debug_line    0x0000000000004dd9      0x690 build/default/production/_ext/1832805299/sys_console.o
 .debug_line    0x0000000000005469      0x4f6 build/default/production/_ext/1832805299/sys_console_uart.o
 .debug_line    0x000000000000595f      0x1e5 build/default/production/_ext/944882569/sys_debug.o
 .debug_line    0x0000000000005b44      0x559 build/default/production/_ext/1171490990/initialization.o
 .debug_line    0x000000000000609d       0xf0 build/default/production/_ext/1171490990/interrupts.o
 .debug_line    0x000000000000618d       0x6f build/default/production/_ext/1171490990/exceptions.o
 .debug_line    0x00000000000061fc      0x13f build/default/production/_ext/1171490990/startup_xc32.o
 .debug_line    0x000000000000633b      0x15d build/default/production/_ext/1171490990/freertos_hooks.o
 .debug_line    0x0000000000006498      0x23f build/default/production/_ext/1171490990/tasks.o
 .debug_line    0x00000000000066d7      0x3aa build/default/production/_ext/1624415188/port.o
 .debug_line    0x0000000000006a81      0x1a9 build/default/production/_ext/1624415188/portasm.o
 .debug_line    0x0000000000006c2a      0x247 build/default/production/_ext/1665200909/heap_1.o
 .debug_line    0x0000000000006e71      0x2e6 build/default/production/_ext/404212886/list.o
 .debug_line    0x0000000000007157      0xf61 build/default/production/_ext/404212886/queue.o
 .debug_line    0x00000000000080b8     0x1caf build/default/production/_ext/404212886/FreeRTOS_tasks.o
 .debug_line    0x0000000000009d67      0x967 build/default/production/_ext/404212886/timers.o
 .debug_line    0x000000000000a6ce      0x15c build/default/production/_ext/1360937237/freertos_daemon.o
 .debug_line    0x000000000000a82a       0x6d build/default/production/_ext/1360937237/main.o
 .debug_line    0x000000000000a897       0x90 build/default/production/_ext/1360937237/health_task.o
 .debug_line    0x000000000000a927       0x96 build/default/production/_ext/1360937237/tmc4671_motion.o
 .debug_line    0x000000000000a9bd       0x96 build/default/production/_ext/1360937237/tmc2209_motion.o
 .debug_line    0x000000000000aa53       0x8a build/default/production/_ext/1360937237/can_task.o
 .debug_line    0x000000000000aadd       0x8e build/default/production/_ext/1360937237/cmd_parser.o
 .debug_line    0x000000000000ab6b       0x92 build/default/production/_ext/1360937237/debug_logger.o
 .debug_line    0x000000000000abfd       0xa5 d:/mplab x ide/xcompilers/bin/bin/../../lib/gcc/pic32c/8.3.1/../../../../pic32c/lib/thumb/v6-m/nofp\libpic32c.a(data_init.o)
 .debug_line    0x000000000000aca2       0xee d:/mplab x ide/xcompilers/bin/bin/../../lib/gcc/pic32c/8.3.1/../../../../pic32c/lib/thumb/v6-m/nofp\libc-size-musl.a(memcpy.o)
 .debug_line    0x000000000000ad90       0xe3 d:/mplab x ide/xcompilers/bin/bin/../../lib/gcc/pic32c/8.3.1/../../../../pic32c/lib/thumb/v6-m/nofp\libc-size-musl.a(memset.o)
 .debug_line    0x000000000000ae73      0x1bc d:/mplab x ide/xcompilers/bin/bin/../../lib/gcc/pic32c/8.3.1/../../../../pic32c/lib/thumb/v6-m/nofp\libc-musl.a(__libc_start_main.o)
 .debug_line    0x000000000000b02f       0xb5 d:/mplab x ide/xcompilers/bin/bin/../../lib/gcc/pic32c/8.3.1/../../../../pic32c/lib/thumb/v6-m/nofp\libc-musl.a(libc.o)
 .debug_line    0x000000000000b0e4       0xfb d:/mplab x ide/xcompilers/bin/bin/../../lib/gcc/pic32c/8.3.1/../../../../pic32c/lib/thumb/v6-m/nofp\libc-musl.a(__environ.o)
 .debug_line    0x000000000000b1df      0x191 d:/mplab x ide/xcompilers/bin/bin/../../lib/gcc/pic32c/8.3.1/../../../../pic32c/lib/thumb/v6-m/nofp\libc-musl.a(stdout.o)
 .debug_line    0x000000000000b370       0xd0 d:/mplab x ide/xcompilers/bin/bin/../../lib/gcc/pic32c/8.3.1/../../../../pic32c/lib/thumb/v6-m/nofp\libc-musl.a(__init_stdio.o)
 .debug_line    0x000000000000b440       0x6f d:/mplab x ide/xcompilers/bin/bin/../../lib/gcc/pic32c/8.3.1/../../../../pic32c/lib/thumb/v6-m/nofp\libpic32c.a(pic32_data_init_clear.o)
 .debug_line    0x000000000000b4af       0x88 d:/mplab x ide/xcompilers/bin/bin/../../lib/gcc/pic32c/8.3.1/../../../../pic32c/lib/thumb/v6-m/nofp\libpic32c.a(pic32_data_init_copy.o)

.debug_str      0x0000000000000000    0x122d7
 .debug_str     0x0000000000000000      0x698 build/default/production/_ext/1529399856/osal_freertos.o
 .debug_str     0x0000000000000698      0x815 build/default/production/_ext/60163342/plib_adc0.o
 .debug_str     0x0000000000000ead      0xe3d build/default/production/_ext/60165182/plib_can1.o
 .debug_str     0x0000000000001cea      0x684 build/default/production/_ext/1984496892/plib_clock.o
 .debug_str     0x000000000000236e      0x44a build/default/production/_ext/60167341/plib_eic.o
 .debug_str     0x00000000000027b8      0x2ad build/default/production/_ext/1986646378/plib_evsys.o
 .debug_str     0x0000000000002a65      0x676 build/default/production/_ext/1865468468/plib_nvic.o
 .debug_str     0x00000000000030db      0x591 build/default/production/_ext/1593096446/plib_nvmctrl.o
 .debug_str     0x000000000000366c      0xa1f build/default/production/_ext/1865521619/plib_port.o
 .debug_str     0x000000000000408b      0x709 build/default/production/_ext/17022449/plib_sercom3_spi_master.o
 .debug_str     0x0000000000004794      0x709 build/default/production/_ext/17022449/plib_sercom0_spi_master.o
 .debug_str     0x0000000000004e9d      0xd8b build/default/production/_ext/504274921/plib_sercom7_usart.o
 .debug_str     0x0000000000005c28      0xd8b build/default/production/_ext/504274921/plib_sercom5_usart.o
 .debug_str     0x00000000000069b3      0x5ca build/default/production/_ext/829342655/plib_tc2.o
 .debug_str     0x0000000000006f7d      0x5ca build/default/production/_ext/829342655/plib_tc4.o
 .debug_str     0x0000000000007547      0xa67 build/default/production/_ext/1832805299/sys_console.o
 .debug_str     0x0000000000007fae      0xa80 build/default/production/_ext/1832805299/sys_console_uart.o
 .debug_str     0x0000000000008a2e      0x4bc build/default/production/_ext/944882569/sys_debug.o
 .debug_str     0x0000000000008eea      0xb47 build/default/production/_ext/1171490990/initialization.o
 .debug_str     0x0000000000009a31      0x661 build/default/production/_ext/1171490990/interrupts.o
 .debug_str     0x000000000000a092      0x2c0 build/default/production/_ext/1171490990/exceptions.o
 .debug_str     0x000000000000a352      0x326 build/default/production/_ext/1171490990/startup_xc32.o
 .debug_str     0x000000000000a678      0x367 build/default/production/_ext/1171490990/freertos_hooks.o
 .debug_str     0x000000000000a9df      0x464 build/default/production/_ext/1171490990/tasks.o
 .debug_str     0x000000000000ae43      0x4c5 build/default/production/_ext/1624415188/port.o
 .debug_str     0x000000000000b308      0x368 build/default/production/_ext/1624415188/portasm.o
 .debug_str     0x000000000000b670      0x3a5 build/default/production/_ext/1665200909/heap_1.o
 .debug_str     0x000000000000ba15      0x3da build/default/production/_ext/404212886/list.o
 .debug_str     0x000000000000bdef      0xb03 build/default/production/_ext/404212886/queue.o
 .debug_str     0x000000000000c8f2     0x11a6 build/default/production/_ext/404212886/FreeRTOS_tasks.o
 .debug_str     0x000000000000da98      0xaae build/default/production/_ext/404212886/timers.o
 .debug_str     0x000000000000e546      0xf21 build/default/production/_ext/1360937237/freertos_daemon.o
 .debug_str     0x000000000000f467      0x2a0 build/default/production/_ext/1360937237/main.o
 .debug_str     0x000000000000f707      0x32c build/default/production/_ext/1360937237/health_task.o
 .debug_str     0x000000000000fa33      0x344 build/default/production/_ext/1360937237/tmc4671_motion.o
 .debug_str     0x000000000000fd77      0x344 build/default/production/_ext/1360937237/tmc2209_motion.o
 .debug_str     0x00000000000100bb      0x314 build/default/production/_ext/1360937237/can_task.o
 .debug_str     0x00000000000103cf      0x324 build/default/production/_ext/1360937237/cmd_parser.o
 .debug_str     0x00000000000106f3      0x334 build/default/production/_ext/1360937237/debug_logger.o
 .debug_str     0x0000000000010a27      0x1fc d:/mplab x ide/xcompilers/bin/bin/../../lib/gcc/pic32c/8.3.1/../../../../pic32c/lib/thumb/v6-m/nofp\libpic32c.a(data_init.o)
 .debug_str     0x0000000000010c23      0x225 d:/mplab x ide/xcompilers/bin/bin/../../lib/gcc/pic32c/8.3.1/../../../../pic32c/lib/thumb/v6-m/nofp\libc-size-musl.a(memcpy.o)
 .debug_str     0x0000000000010e48      0x211 d:/mplab x ide/xcompilers/bin/bin/../../lib/gcc/pic32c/8.3.1/../../../../pic32c/lib/thumb/v6-m/nofp\libc-size-musl.a(memset.o)
 .debug_str     0x0000000000011059      0x3ca d:/mplab x ide/xcompilers/bin/bin/../../lib/gcc/pic32c/8.3.1/../../../../pic32c/lib/thumb/v6-m/nofp\libc-musl.a(__libc_start_main.o)
 .debug_str     0x0000000000011423      0x335 d:/mplab x ide/xcompilers/bin/bin/../../lib/gcc/pic32c/8.3.1/../../../../pic32c/lib/thumb/v6-m/nofp\libc-musl.a(libc.o)
 .debug_str     0x0000000000011758      0x235 d:/mplab x ide/xcompilers/bin/bin/../../lib/gcc/pic32c/8.3.1/../../../../pic32c/lib/thumb/v6-m/nofp\libc-musl.a(__environ.o)
 .debug_str     0x000000000001198d      0x308 d:/mplab x ide/xcompilers/bin/bin/../../lib/gcc/pic32c/8.3.1/../../../../pic32c/lib/thumb/v6-m/nofp\libc-musl.a(stdout.o)
 .debug_str     0x0000000000011c95      0x29a d:/mplab x ide/xcompilers/bin/bin/../../lib/gcc/pic32c/8.3.1/../../../../pic32c/lib/thumb/v6-m/nofp\libc-musl.a(__init_stdio.o)
 .debug_str     0x0000000000011f2f      0x1d5 d:/mplab x ide/xcompilers/bin/bin/../../lib/gcc/pic32c/8.3.1/../../../../pic32c/lib/thumb/v6-m/nofp\libpic32c.a(pic32_data_init_clear.o)
 .debug_str     0x0000000000012104      0x1d3 d:/mplab x ide/xcompilers/bin/bin/../../lib/gcc/pic32c/8.3.1/../../../../pic32c/lib/thumb/v6-m/nofp\libpic32c.a(pic32_data_init_copy.o)

.debug_frame    0x0000000000000000     0x2300
 .debug_frame   0x0000000000000000      0x174 build/default/production/_ext/1529399856/osal_freertos.o
 .debug_frame   0x0000000000000174       0xe0 build/default/production/_ext/60163342/plib_adc0.o
 .debug_frame   0x0000000000000254      0x174 build/default/production/_ext/60165182/plib_can1.o
 .debug_frame   0x00000000000003c8       0x20 build/default/production/_ext/1984496892/plib_clock.o
 .debug_frame   0x00000000000003e8       0x84 build/default/production/_ext/60167341/plib_eic.o
 .debug_frame   0x000000000000046c       0x20 build/default/production/_ext/1986646378/plib_evsys.o
 .debug_frame   0x000000000000048c       0x84 build/default/production/_ext/1865468468/plib_nvic.o
 .debug_frame   0x0000000000000510      0x148 build/default/production/_ext/1593096446/plib_nvmctrl.o
 .debug_frame   0x0000000000000658       0xe8 build/default/production/_ext/1865521619/plib_port.o
 .debug_frame   0x0000000000000740       0xa8 build/default/production/_ext/17022449/plib_sercom3_spi_master.o
 .debug_frame   0x00000000000007e8       0xa8 build/default/production/_ext/17022449/plib_sercom0_spi_master.o
 .debug_frame   0x0000000000000890      0x250 build/default/production/_ext/504274921/plib_sercom7_usart.o
 .debug_frame   0x0000000000000ae0      0x250 build/default/production/_ext/504274921/plib_sercom5_usart.o
 .debug_frame   0x0000000000000d30       0xc8 build/default/production/_ext/829342655/plib_tc2.o
 .debug_frame   0x0000000000000df8       0xc8 build/default/production/_ext/829342655/plib_tc4.o
 .debug_frame   0x0000000000000ec0      0x15c build/default/production/_ext/1832805299/sys_console.o
 .debug_frame   0x000000000000101c      0x118 build/default/production/_ext/1832805299/sys_console_uart.o
 .debug_frame   0x0000000000001134       0x70 build/default/production/_ext/944882569/sys_debug.o
 .debug_frame   0x00000000000011a4       0x28 build/default/production/_ext/1171490990/initialization.o
 .debug_frame   0x00000000000011cc       0x50 build/default/production/_ext/1171490990/interrupts.o
 .debug_frame   0x000000000000121c       0x30 build/default/production/_ext/1171490990/exceptions.o
 .debug_frame   0x000000000000124c       0x38 build/default/production/_ext/1171490990/startup_xc32.o
 .debug_frame   0x0000000000001284       0x68 build/default/production/_ext/1171490990/freertos_hooks.o
 .debug_frame   0x00000000000012ec       0xbc build/default/production/_ext/1171490990/tasks.o
 .debug_frame   0x00000000000013a8       0xe4 build/default/production/_ext/1624415188/port.o
 .debug_frame   0x000000000000148c       0xa0 build/default/production/_ext/1624415188/portasm.o
 .debug_frame   0x000000000000152c       0x6c build/default/production/_ext/1665200909/heap_1.o
 .debug_frame   0x0000000000001598       0x6c build/default/production/_ext/404212886/list.o
 .debug_frame   0x0000000000001604      0x2ac build/default/production/_ext/404212886/queue.o
 .debug_frame   0x00000000000018b0      0x4fc build/default/production/_ext/404212886/FreeRTOS_tasks.o
 .debug_frame   0x0000000000001dac      0x254 build/default/production/_ext/404212886/timers.o
 .debug_frame   0x0000000000002000       0x20 build/default/production/_ext/1360937237/freertos_daemon.o
 .debug_frame   0x0000000000002020       0x28 build/default/production/_ext/1360937237/main.o
 .debug_frame   0x0000000000002048       0x30 build/default/production/_ext/1360937237/health_task.o
 .debug_frame   0x0000000000002078       0x30 build/default/production/_ext/1360937237/tmc4671_motion.o
 .debug_frame   0x00000000000020a8       0x30 build/default/production/_ext/1360937237/tmc2209_motion.o
 .debug_frame   0x00000000000020d8       0x30 build/default/production/_ext/1360937237/can_task.o
 .debug_frame   0x0000000000002108       0x30 build/default/production/_ext/1360937237/cmd_parser.o
 .debug_frame   0x0000000000002138       0x30 build/default/production/_ext/1360937237/debug_logger.o
 .debug_frame   0x0000000000002168       0x48 d:/mplab x ide/xcompilers/bin/bin/../../lib/gcc/pic32c/8.3.1/../../../../pic32c/lib/thumb/v6-m/nofp\libpic32c.a(data_init.o)
 .debug_frame   0x00000000000021b0       0x28 d:/mplab x ide/xcompilers/bin/bin/../../lib/gcc/pic32c/8.3.1/../../../../pic32c/lib/thumb/v6-m/nofp\libc-size-musl.a(memcpy.o)
 .debug_frame   0x00000000000021d8       0x20 d:/mplab x ide/xcompilers/bin/bin/../../lib/gcc/pic32c/8.3.1/../../../../pic32c/lib/thumb/v6-m/nofp\libc-size-musl.a(memset.o)
 .debug_frame   0x00000000000021f8       0x38 d:/mplab x ide/xcompilers/bin/bin/../../lib/gcc/pic32c/8.3.1/../../../../pic32c/lib/thumb/v6-m/nofp\libc-musl.a(__libc_start_main.o)
 .debug_frame   0x0000000000002230       0x50 d:/mplab x ide/xcompilers/bin/bin/../../lib/gcc/pic32c/8.3.1/../../../../pic32c/lib/thumb/v6-m/nofp\libc-musl.a(stdout.o)
 .debug_frame   0x0000000000002280       0x38 d:/mplab x ide/xcompilers/bin/bin/../../lib/gcc/pic32c/8.3.1/../../../../pic32c/lib/thumb/v6-m/nofp\libc-musl.a(__init_stdio.o)
 .debug_frame   0x00000000000022b8       0x20 d:/mplab x ide/xcompilers/bin/bin/../../lib/gcc/pic32c/8.3.1/../../../../pic32c/lib/thumb/v6-m/nofp\libpic32c.a(pic32_data_init_clear.o)
 .debug_frame   0x00000000000022d8       0x28 d:/mplab x ide/xcompilers/bin/bin/../../lib/gcc/pic32c/8.3.1/../../../../pic32c/lib/thumb/v6-m/nofp\libpic32c.a(pic32_data_init_copy.o)

.note.GNU-stack
                0x0000000000000000        0x0
 .note.GNU-stack
                0x0000000000000000        0x0 d:/mplab x ide/xcompilers/bin/bin/../../lib/gcc/pic32c/8.3.1/../../../../pic32c/lib/thumb/v6-m/nofp\libc-size-musl.a(memcpy.o)
 .note.GNU-stack
                0x0000000000000000        0x0 d:/mplab x ide/xcompilers/bin/bin/../../lib/gcc/pic32c/8.3.1/../../../../pic32c/lib/thumb/v6-m/nofp\libc-size-musl.a(memset.o)
 .note.GNU-stack
                0x0000000000000000        0x0 d:/mplab x ide/xcompilers/bin/bin/../../lib/gcc/pic32c/8.3.1/../../../../pic32c/lib/thumb/v6-m/nofp\libc-musl.a(__libc_start_main.o)
 .note.GNU-stack
                0x0000000000000000        0x0 d:/mplab x ide/xcompilers/bin/bin/../../lib/gcc/pic32c/8.3.1/../../../../pic32c/lib/thumb/v6-m/nofp\libc-musl.a(libc.o)
 .note.GNU-stack
                0x0000000000000000        0x0 d:/mplab x ide/xcompilers/bin/bin/../../lib/gcc/pic32c/8.3.1/../../../../pic32c/lib/thumb/v6-m/nofp\libc-musl.a(__environ.o)
 .note.GNU-stack
                0x0000000000000000        0x0 d:/mplab x ide/xcompilers/bin/bin/../../lib/gcc/pic32c/8.3.1/../../../../pic32c/lib/thumb/v6-m/nofp\libc-musl.a(stdout.o)
 .note.GNU-stack
                0x0000000000000000        0x0 d:/mplab x ide/xcompilers/bin/bin/../../lib/gcc/pic32c/8.3.1/../../../../pic32c/lib/thumb/v6-m/nofp\libc-musl.a(__init_stdio.o)

__xc_reference_data
                0x0000000000000000       0x28
 __xc_reference_data
                0x0000000000000000        0x8 d:/mplab x ide/xcompilers/bin/bin/../../lib/gcc/pic32c/8.3.1/../../../../pic32c/lib/thumb/v6-m/nofp\libc-musl.a(stdout.o)
                0x0000000000000000                __stdout_needs_init
 __xc_reference_data
                0x0000000000000008       0x14 d:/mplab x ide/xcompilers/bin/bin/../../lib/gcc/pic32c/8.3.1/../../../../pic32c/lib/thumb/v6-m/nofp\libc-musl.a(__io_init_needed.o)
                0x0000000000000008                __io_init_needed
                0x0000000000000014                __io_init_needs_file
 __xc_reference_data
                0x000000000000001c        0xc d:/mplab x ide/xcompilers/bin/bin/../../lib/gcc/pic32c/8.3.1/../../../../pic32c/lib/thumb/v6-m/nofp\libc-musl.a(__io_file_needed.o)
                0x000000000000001c                __io_file_needed

.stack          0x00000000200048d8      0x100
 .stack         0x00000000200048d8      0x100 stack

.bss.ucHeap%1   0x000000002000003c     0x4000
 .bss.ucHeap    0x000000002000003c     0x4000 build/default/production/_ext/1665200909/heap_1.o

.bss.SERCOM5_USART_ReadBuffer%2
                0x000000002000403c      0x100
 .bss.SERCOM5_USART_ReadBuffer
                0x000000002000403c      0x100 build/default/production/_ext/504274921/plib_sercom5_usart.o

.bss.SERCOM5_USART_WriteBuffer%3
                0x000000002000413c      0x100
 .bss.SERCOM5_USART_WriteBuffer
                0x000000002000413c      0x100 build/default/production/_ext/504274921/plib_sercom5_usart.o

.bss.eicCallbackObject%4
                0x000000002000423c       0xc0
 .bss.eicCallbackObject
                0x000000002000423c       0xc0 build/default/production/_ext/60167341/plib_eic.o

.bss.SERCOM7_USART_ReadBuffer%5
                0x00000000200042fc       0x80
 .bss.SERCOM7_USART_ReadBuffer
                0x00000000200042fc       0x80 build/default/production/_ext/504274921/plib_sercom7_usart.o

.bss.SERCOM7_USART_WriteBuffer%6
                0x000000002000437c       0x80
 .bss.SERCOM7_USART_WriteBuffer
                0x000000002000437c       0x80 build/default/production/_ext/504274921/plib_sercom7_usart.o

.bss.pxReadyTasksLists%7
                0x00000000200043fc       0x64
 .bss.pxReadyTasksLists
                0x00000000200043fc       0x64 build/default/production/_ext/404212886/FreeRTOS_tasks.o

.bss%8          0x0000000020004460       0x50
 .bss           0x0000000020004460       0x50 d:/mplab x ide/xcompilers/bin/bin/../../lib/gcc/pic32c/8.3.1/../../../../pic32c/lib/thumb/v6-m/nofp\libc-musl.a(libc.o)
                0x0000000020004460                __progname_full
                0x0000000020004460                program_invocation_name
                0x0000000020004464                program_invocation_short_name
                0x0000000020004464                __progname
                0x0000000020004468                __sysinfo
                0x000000002000446c                __hwcap
                0x0000000020004470                __libc

.bss.sercom7USARTObj%9
                0x00000000200044b0       0x40
 .bss.sercom7USARTObj
                0x00000000200044b0       0x40 build/default/production/_ext/504274921/plib_sercom7_usart.o

.bss.sercom5USARTObj%10
                0x00000000200044f0       0x40
 .bss.sercom5USARTObj
                0x00000000200044f0       0x40 build/default/production/_ext/504274921/plib_sercom5_usart.o

.bss%11         0x0000000020004530       0x1c
 .bss           0x0000000020004530       0x1c d:/mplab x ide/xcompilers/bin/bin/../../lib/gcc/pic32c/8.3.1/thumb/v6-m/nofp/crtbegin.o

.bss.can1Obj%12
                0x000000002000454c       0x1c
 .bss.can1Obj   0x000000002000454c       0x1c build/default/production/_ext/60165182/plib_can1.o

.bss.xDelayedTaskList1%13
                0x0000000020004568       0x14
 .bss.xDelayedTaskList1
                0x0000000020004568       0x14 build/default/production/_ext/404212886/FreeRTOS_tasks.o

.bss.xDelayedTaskList2%14
                0x000000002000457c       0x14
 .bss.xDelayedTaskList2
                0x000000002000457c       0x14 build/default/production/_ext/404212886/FreeRTOS_tasks.o

.bss.xPendingReadyList%15
                0x0000000020004590       0x14
 .bss.xPendingReadyList
                0x0000000020004590       0x14 build/default/production/_ext/404212886/FreeRTOS_tasks.o

.bss.xSuspendedTaskList%16
                0x00000000200045a4       0x14
 .bss.xSuspendedTaskList
                0x00000000200045a4       0x14 build/default/production/_ext/404212886/FreeRTOS_tasks.o

.bss.xTasksWaitingTermination%17
                0x00000000200045b8       0x14
 .bss.xTasksWaitingTermination
                0x00000000200045b8       0x14 build/default/production/_ext/404212886/FreeRTOS_tasks.o

.bss.xActiveTimerList1%18
                0x00000000200045cc       0x14
 .bss.xActiveTimerList1
                0x00000000200045cc       0x14 build/default/production/_ext/404212886/timers.o

.bss.xActiveTimerList2%19
                0x00000000200045e0       0x14
 .bss.xActiveTimerList2
                0x00000000200045e0       0x14 build/default/production/_ext/404212886/timers.o

.bss.consoleDeviceInstance%20
                0x00000000200045f4        0xc
 .bss.consoleDeviceInstance
                0x00000000200045f4        0xc build/default/production/_ext/1832805299/sys_console.o

.bss.gConsoleUartData%21
                0x0000000020004600        0xc
 .bss.gConsoleUartData
                0x0000000020004600        0xc build/default/production/_ext/1832805299/sys_console_uart.o

.bss.TC2_CallbackObject%22
                0x000000002000460c        0x8
 .bss.TC2_CallbackObject
                0x000000002000460c        0x8 build/default/production/_ext/829342655/plib_tc2.o

.bss.TC4_CallbackObject%23
                0x0000000020004614        0x8
 .bss.TC4_CallbackObject
                0x0000000020004614        0x8 build/default/production/_ext/829342655/plib_tc4.o

.bss%24         0x000000002000461c        0x8
 .bss           0x000000002000461c        0x8 d:/mplab x ide/xcompilers/bin/bin/../../lib/gcc/pic32c/8.3.1/../../../../pic32c/lib/thumb/v6-m/nofp\libc-musl.a(stdout.o)
                0x0000000020004620                __stdout_used

.bss.consolePrintBufferMutex%25
                0x0000000020004624        0x4
 .bss.consolePrintBufferMutex
                0x0000000020004624        0x4 build/default/production/_ext/1832805299/sys_console.o

.bss.sysDebugInstance%26
                0x0000000020004628        0x4
 .bss.sysDebugInstance
                0x0000000020004628        0x4 build/default/production/_ext/944882569/sys_debug.o

.bss.pucAlignedHeap.4815%27
                0x000000002000462c        0x4
 .bss.pucAlignedHeap.4815
                0x000000002000462c        0x4 build/default/production/_ext/1665200909/heap_1.o

.bss.xNextFreeByte%28
                0x0000000020004630        0x4
 .bss.xNextFreeByte
                0x0000000020004630        0x4 build/default/production/_ext/1665200909/heap_1.o

.bss.pxCurrentTCB%29
                0x0000000020004634        0x4
 .bss.pxCurrentTCB
                0x0000000020004634        0x4 build/default/production/_ext/404212886/FreeRTOS_tasks.o
                0x0000000020004634                pxCurrentTCB

.bss.pxDelayedTaskList%30
                0x0000000020004638        0x4
 .bss.pxDelayedTaskList
                0x0000000020004638        0x4 build/default/production/_ext/404212886/FreeRTOS_tasks.o

.bss.pxOverflowDelayedTaskList%31
                0x000000002000463c        0x4
 .bss.pxOverflowDelayedTaskList
                0x000000002000463c        0x4 build/default/production/_ext/404212886/FreeRTOS_tasks.o

.bss.uxCurrentNumberOfTasks%32
                0x0000000020004640        0x4
 .bss.uxCurrentNumberOfTasks
                0x0000000020004640        0x4 build/default/production/_ext/404212886/FreeRTOS_tasks.o

.bss.uxDeletedTasksWaitingCleanUp%33
                0x0000000020004644        0x4
 .bss.uxDeletedTasksWaitingCleanUp
                0x0000000020004644        0x4 build/default/production/_ext/404212886/FreeRTOS_tasks.o

.bss.uxSchedulerSuspended%34
                0x0000000020004648        0x4
 .bss.uxSchedulerSuspended
                0x0000000020004648        0x4 build/default/production/_ext/404212886/FreeRTOS_tasks.o

.bss.uxTaskNumber%35
                0x000000002000464c        0x4
 .bss.uxTaskNumber
                0x000000002000464c        0x4 build/default/production/_ext/404212886/FreeRTOS_tasks.o

.bss.uxTopReadyPriority%36
                0x0000000020004650        0x4
 .bss.uxTopReadyPriority
                0x0000000020004650        0x4 build/default/production/_ext/404212886/FreeRTOS_tasks.o

.bss.xIdleTaskHandles%37
                0x0000000020004654        0x4
 .bss.xIdleTaskHandles
                0x0000000020004654        0x4 build/default/production/_ext/404212886/FreeRTOS_tasks.o

.bss.xNextTaskUnblockTime%38
                0x0000000020004658        0x4
 .bss.xNextTaskUnblockTime
                0x0000000020004658        0x4 build/default/production/_ext/404212886/FreeRTOS_tasks.o

.bss.xNumOfOverflows%39
                0x000000002000465c        0x4
 .bss.xNumOfOverflows
                0x000000002000465c        0x4 build/default/production/_ext/404212886/FreeRTOS_tasks.o

.bss.xPendedTicks%40
                0x0000000020004660        0x4
 .bss.xPendedTicks
                0x0000000020004660        0x4 build/default/production/_ext/404212886/FreeRTOS_tasks.o

.bss.xSchedulerRunning%41
                0x0000000020004664        0x4
 .bss.xSchedulerRunning
                0x0000000020004664        0x4 build/default/production/_ext/404212886/FreeRTOS_tasks.o

.bss.xTickCount%42
                0x0000000020004668        0x4
 .bss.xTickCount
                0x0000000020004668        0x4 build/default/production/_ext/404212886/FreeRTOS_tasks.o

.bss.xYieldPendings%43
                0x000000002000466c        0x4
 .bss.xYieldPendings
                0x000000002000466c        0x4 build/default/production/_ext/404212886/FreeRTOS_tasks.o

.bss.pxCurrentTimerList%44
                0x0000000020004670        0x4
 .bss.pxCurrentTimerList
                0x0000000020004670        0x4 build/default/production/_ext/404212886/timers.o

.bss.pxOverflowTimerList%45
                0x0000000020004674        0x4
 .bss.pxOverflowTimerList
                0x0000000020004674        0x4 build/default/production/_ext/404212886/timers.o

.bss.xLastTime.5109%46
                0x0000000020004678        0x4
 .bss.xLastTime.5109
                0x0000000020004678        0x4 build/default/production/_ext/404212886/timers.o

.bss.xTimerQueue%47
                0x000000002000467c        0x4
 .bss.xTimerQueue
                0x000000002000467c        0x4 build/default/production/_ext/404212886/timers.o

.bss.xTimerTaskHandle%48
                0x0000000020004680        0x4
 .bss.xTimerTaskHandle
                0x0000000020004680        0x4 build/default/production/_ext/404212886/timers.o

.bss%49         0x0000000020004684        0x4
 .bss           0x0000000020004684        0x4 d:/mplab x ide/xcompilers/bin/bin/../../lib/gcc/pic32c/8.3.1/../../../../pic32c/lib/thumb/v6-m/nofp\libpic32c.a(data_init.o)

.bss%50         0x0000000020004688        0x4
 .bss           0x0000000020004688        0x4 d:/mplab x ide/xcompilers/bin/bin/../../lib/gcc/pic32c/8.3.1/../../../../pic32c/lib/thumb/v6-m/nofp\libc-musl.a(__environ.o)
                0x0000000020004688                __environ
                0x0000000020004688                environ
                0x0000000020004688                ___environ
                0x0000000020004688                _environ

.bss.isConsoleMutexCreated%51
                0x000000002000468c        0x1
 .bss.isConsoleMutexCreated
                0x000000002000468c        0x1 build/default/production/_ext/1832805299/sys_console.o

.data%52        0x0000000020004690       0x20
 .data          0x0000000020004690       0x20 d:/mplab x ide/xcompilers/bin/bin/../../lib/gcc/pic32c/8.3.1/../../../../pic32c/lib/thumb/v6-m/nofp\libc-musl.a(stdout.o)
                0x00000000200046ac                _stdout

.data.ulCriticalNesting%53
                0x00000000200046b0        0x4
 .data.ulCriticalNesting
                0x00000000200046b0        0x4 build/default/production/_ext/1624415188/port.o

.data.uxTopUsedPriority%54
                0x00000000200046b4        0x4
 .data.uxTopUsedPriority
                0x00000000200046b4        0x4 build/default/production/_ext/404212886/FreeRTOS_tasks.o

.eh_frame%z1    0x0000000000000000        0x0
 .eh_frame      0x0000000000000000        0x0 d:/mplab x ide/xcompilers/bin/bin/../../lib/gcc/pic32c/8.3.1/thumb/v6-m/nofp/crtbegin.o

.config_00804000.__config_00804000%55
                0x0000000000804000        0x4
 .config_00804000.__config_00804000
                0x0000000000804000        0x4 build/default/production/_ext/1171490990/initialization.o
                0x0000000000804000                __config_00804000

.config_00804004.__config_00804004%56
                0x0000000000804004        0x4
 .config_00804004.__config_00804004
                0x0000000000804004        0x4 build/default/production/_ext/1171490990/initialization.o
                0x0000000000804004                __config_00804004

.dinit%57       0x00000000000000dc      0x210
 .dinit         0x00000000000000dc      0x210 data_init

.text.xTaskCreate%58
                0x00000000000002ec      0x1d8
 .text.xTaskCreate
                0x00000000000002ec      0x1d8 build/default/production/_ext/404212886/FreeRTOS_tasks.o
                0x00000000000002ec                xTaskCreate

.text.CLOCK_Initialize%59
                0x00000000000004c4      0x1c4
 .text.CLOCK_Initialize
                0x00000000000004c4      0x1c4 build/default/production/_ext/1984496892/plib_clock.o
                0x00000000000004c4                CLOCK_Initialize

.text.xTaskIncrementTick%60
                0x0000000000000688      0x188
 .text.xTaskIncrementTick
                0x0000000000000688      0x188 build/default/production/_ext/404212886/FreeRTOS_tasks.o
                0x0000000000000688                xTaskIncrementTick

.text.prvTimerTask%61
                0x0000000000000810      0x188
 .text.prvTimerTask
                0x0000000000000810      0x188 build/default/production/_ext/404212886/timers.o

.text.xTaskResumeAll%62
                0x0000000000000998      0x158
 .text.xTaskResumeAll
                0x0000000000000998      0x158 build/default/production/_ext/404212886/FreeRTOS_tasks.o
                0x0000000000000998                xTaskResumeAll

.text.xQueueSemaphoreTake%63
                0x0000000000000af0      0x136
 .text.xQueueSemaphoreTake
                0x0000000000000af0      0x136 build/default/production/_ext/404212886/queue.o
                0x0000000000000af0                xQueueSemaphoreTake

.text.PORT_Initialize%64
                0x0000000000000c28      0x12c
 .text.PORT_Initialize
                0x0000000000000c28      0x12c build/default/production/_ext/1865521619/plib_port.o
                0x0000000000000c28                PORT_Initialize

.text.SERCOM7_USART_Write%65
                0x0000000000000d54      0x104
 .text.SERCOM7_USART_Write
                0x0000000000000d54      0x104 build/default/production/_ext/504274921/plib_sercom7_usart.o
                0x0000000000000d54                SERCOM7_USART_Write

.text.xQueueGenericSend%66
                0x0000000000000e58      0x100
 .text.xQueueGenericSend
                0x0000000000000e58      0x100 build/default/production/_ext/404212886/queue.o
                0x0000000000000e58                xQueueGenericSend

.text.xQueueReceive%67
                0x0000000000000f58       0xf8
 .text.xQueueReceive
                0x0000000000000f58       0xf8 build/default/production/_ext/404212886/queue.o
                0x0000000000000f58                xQueueReceive

.text.SERCOM7_USART_ISR_RX_Handler%68
                0x0000000000001050       0xec
 .text.SERCOM7_USART_ISR_RX_Handler
                0x0000000000001050       0xec build/default/production/_ext/504274921/plib_sercom7_usart.o

.text.SERCOM5_USART_ISR_RX_Handler%69
                0x000000000000113c       0xec
 .text.SERCOM5_USART_ISR_RX_Handler
                0x000000000000113c       0xec build/default/production/_ext/504274921/plib_sercom5_usart.o

.text.SERCOM7_USART_ISR_TX_Handler%70
                0x0000000000001228       0xe0
 .text.SERCOM7_USART_ISR_TX_Handler
                0x0000000000001228       0xe0 build/default/production/_ext/504274921/plib_sercom7_usart.o

.text.SERCOM5_USART_ISR_TX_Handler%71
                0x0000000000001308       0xe0
 .text.SERCOM5_USART_ISR_TX_Handler
                0x0000000000001308       0xe0 build/default/production/_ext/504274921/plib_sercom5_usart.o

.text.xTaskRemoveFromEventList%72
                0x00000000000013e8       0xdc
 .text.xTaskRemoveFromEventList
                0x00000000000013e8       0xdc build/default/production/_ext/404212886/FreeRTOS_tasks.o
                0x00000000000013e8                xTaskRemoveFromEventList

.text.vTaskSwitchContext%73
                0x00000000000014c4       0xd8
 .text.vTaskSwitchContext
                0x00000000000014c4       0xd8 build/default/production/_ext/404212886/FreeRTOS_tasks.o
                0x00000000000014c4                vTaskSwitchContext

.text.SYS_Tasks%74
                0x000000000000159c       0xc8
 .text.SYS_Tasks
                0x000000000000159c       0xc8 build/default/production/_ext/1171490990/tasks.o
                0x000000000000159c                SYS_Tasks

.text.xQueueGenericReset%75
                0x0000000000001664       0xb2
 .text.xQueueGenericReset
                0x0000000000001664       0xb2 build/default/production/_ext/404212886/queue.o
                0x0000000000001664                xQueueGenericReset

.text.xTaskPriorityInherit%76
                0x0000000000001718       0xac
 .text.xTaskPriorityInherit
                0x0000000000001718       0xac build/default/production/_ext/404212886/FreeRTOS_tasks.o
                0x0000000000001718                xTaskPriorityInherit

.text.EIC_Initialize%77
                0x00000000000017c4       0xa4
 .text.EIC_Initialize
                0x00000000000017c4       0xa4 build/default/production/_ext/60167341/plib_eic.o
                0x00000000000017c4                EIC_Initialize

.text.pxPortInitialiseStack%78
                0x0000000000001868       0xa0
 .text.pxPortInitialiseStack
                0x0000000000001868       0xa0 build/default/production/_ext/1624415188/port.o
                0x0000000000001868                pxPortInitialiseStack

.text.prvAddCurrentTaskToDelayedList%79
                0x0000000000001908       0xa0
 .text.prvAddCurrentTaskToDelayedList
                0x0000000000001908       0xa0 build/default/production/_ext/404212886/FreeRTOS_tasks.o

.text.SERCOM7_USART_Read%80
                0x00000000000019a8       0x94
 .text.SERCOM7_USART_Read
                0x00000000000019a8       0x94 build/default/production/_ext/504274921/plib_sercom7_usart.o
                0x00000000000019a8                SERCOM7_USART_Read

.text.pvPortMalloc%81
                0x0000000000001a3c       0x90
 .text.pvPortMalloc
                0x0000000000001a3c       0x90 build/default/production/_ext/1665200909/heap_1.o
                0x0000000000001a3c                pvPortMalloc

.text.SERCOM7_USART_Initialize%82
                0x0000000000001acc       0x88
 .text.SERCOM7_USART_Initialize
                0x0000000000001acc       0x88 build/default/production/_ext/504274921/plib_sercom7_usart.o
                0x0000000000001acc                SERCOM7_USART_Initialize

.text.SERCOM5_USART_Initialize%83
                0x0000000000001b54       0x88
 .text.SERCOM5_USART_Initialize
                0x0000000000001b54       0x88 build/default/production/_ext/504274921/plib_sercom5_usart.o
                0x0000000000001b54                SERCOM5_USART_Initialize

.text.vTaskPriorityDisinheritAfterTimeout%84
                0x0000000000001bdc       0x88
 .text.vTaskPriorityDisinheritAfterTimeout
                0x0000000000001bdc       0x88 build/default/production/_ext/404212886/FreeRTOS_tasks.o
                0x0000000000001bdc                vTaskPriorityDisinheritAfterTimeout

.text.prvUnlockQueue%85
                0x0000000000001c64       0x86
 .text.prvUnlockQueue
                0x0000000000001c64       0x86 build/default/production/_ext/404212886/queue.o

.text.SYS_Initialize%86
                0x0000000000001cec       0x80
 .text.SYS_Initialize
                0x0000000000001cec       0x80 build/default/production/_ext/1171490990/initialization.o
                0x0000000000001cec                SYS_Initialize

.text.xQueueGenericCreate%87
                0x0000000000001d6c       0x7e
 .text.xQueueGenericCreate
                0x0000000000001d6c       0x7e build/default/production/_ext/404212886/queue.o
                0x0000000000001d6c                xQueueGenericCreate

.rodata.SYS_Tasks.str1.4%88
                0x0000000000001dec       0x7c
 .rodata.SYS_Tasks.str1.4
                0x0000000000001dec       0x7c build/default/production/_ext/1171490990/tasks.o

.text.xTaskPriorityDisinherit%89
                0x0000000000001e68       0x7c
 .text.xTaskPriorityDisinherit
                0x0000000000001e68       0x7c build/default/production/_ext/404212886/FreeRTOS_tasks.o
                0x0000000000001e68                xTaskPriorityDisinherit

.text.NVIC_Initialize%90
                0x0000000000001ee4       0x78
 .text.NVIC_Initialize
                0x0000000000001ee4       0x78 build/default/production/_ext/1865468468/plib_nvic.o
                0x0000000000001ee4                NVIC_Initialize

.text.prvCopyDataToQueue%91
                0x0000000000001f5c       0x76
 .text.prvCopyDataToQueue
                0x0000000000001f5c       0x76 build/default/production/_ext/404212886/queue.o

.text.vTaskStartScheduler%92
                0x0000000000001fd4       0x74
 .text.vTaskStartScheduler
                0x0000000000001fd4       0x74 build/default/production/_ext/404212886/FreeRTOS_tasks.o
                0x0000000000001fd4                vTaskStartScheduler

.text.SYS_CONSOLE_Initialize%93
                0x0000000000002048       0x70
 .text.SYS_CONSOLE_Initialize
                0x0000000000002048       0x70 build/default/production/_ext/1832805299/sys_console.o
                0x0000000000002048                SYS_CONSOLE_Initialize

.text.EIC_InterruptHandler%94
                0x00000000000020b8       0x60
 .text.EIC_InterruptHandler
                0x00000000000020b8       0x60 build/default/production/_ext/60167341/plib_eic.o
                0x00000000000020b8                EIC_InterruptHandler

.text.xTaskCheckForTimeOut%95
                0x0000000000002118       0x5c
 .text.xTaskCheckForTimeOut
                0x0000000000002118       0x5c build/default/production/_ext/404212886/FreeRTOS_tasks.o
                0x0000000000002118                xTaskCheckForTimeOut

.text.prvSampleTimeNow%96
                0x0000000000002174       0x5c
 .text.prvSampleTimeNow
                0x0000000000002174       0x5c build/default/production/_ext/404212886/timers.o

.text.__libc_start_init%97
                0x00000000000021d0       0x5c
 .text.__libc_start_init
                0x00000000000021d0       0x5c d:/mplab x ide/xcompilers/bin/bin/../../lib/gcc/pic32c/8.3.1/../../../../pic32c/lib/thumb/v6-m/nofp\libc-musl.a(__libc_start_main.o)
                0x00000000000021d0                __libc_init_array

.text.CAN1_Initialize%98
                0x000000000000222c       0x54
 .text.CAN1_Initialize
                0x000000000000222c       0x54 build/default/production/_ext/60165182/plib_can1.o
                0x000000000000222c                CAN1_Initialize

.text.SERCOM7_USART_InterruptHandler%99
                0x0000000000002280       0x54
 .text.SERCOM7_USART_InterruptHandler
                0x0000000000002280       0x54 build/default/production/_ext/504274921/plib_sercom7_usart.o
                0x0000000000002280                SERCOM7_USART_InterruptHandler

.text.SERCOM5_USART_InterruptHandler%100
                0x00000000000022d4       0x54
 .text.SERCOM5_USART_InterruptHandler
                0x00000000000022d4       0x54 build/default/production/_ext/504274921/plib_sercom5_usart.o
                0x00000000000022d4                SERCOM5_USART_InterruptHandler

.text.ADC0_Initialize%101
                0x0000000000002328       0x50
 .text.ADC0_Initialize
                0x0000000000002328       0x50 build/default/production/_ext/60163342/plib_adc0.o
                0x0000000000002328                ADC0_Initialize

.text.vQueueWaitForMessageRestricted%102
                0x0000000000002378       0x50
 .text.vQueueWaitForMessageRestricted
                0x0000000000002378       0x50 build/default/production/_ext/404212886/queue.o
                0x0000000000002378                vQueueWaitForMessageRestricted

.text.prvCheckTasksWaitingTermination%103
                0x00000000000023c8       0x50
 .text.prvCheckTasksWaitingTermination
                0x00000000000023c8       0x50 build/default/production/_ext/404212886/FreeRTOS_tasks.o

.text.prvCheckForValidListAndQueue%104
                0x0000000000002418       0x50
 .text.prvCheckForValidListAndQueue
                0x0000000000002418       0x50 build/default/production/_ext/404212886/timers.o

.text.SERCOM7_USART_ISR_ERR_Handler%105
                0x0000000000002468       0x4c
 .text.SERCOM7_USART_ISR_ERR_Handler
                0x0000000000002468       0x4c build/default/production/_ext/504274921/plib_sercom7_usart.o

.text.SERCOM5_USART_ISR_ERR_Handler%106
                0x00000000000024b4       0x4c
 .text.SERCOM5_USART_ISR_ERR_Handler
                0x00000000000024b4       0x4c build/default/production/_ext/504274921/plib_sercom5_usart.o

.text%107       0x0000000000002500       0x48
 .text          0x0000000000002500       0x48 d:/mplab x ide/xcompilers/bin/bin/../../lib/gcc/pic32c/8.3.1/thumb/v6-m/nofp/crtbegin.o

.text.Reset_Handler%108
                0x0000000000002548       0x48
 .text.Reset_Handler
                0x0000000000002548       0x48 build/default/production/_ext/1171490990/startup_xc32.o
                0x0000000000002548                Reset_Handler

.text.prvInsertTimerInActiveList%109
                0x0000000000002590       0x48
 .text.prvInsertTimerInActiveList
                0x0000000000002590       0x48 build/default/production/_ext/404212886/timers.o

.text.TC2_TimerInitialize%110
                0x00000000000025d8       0x44
 .text.TC2_TimerInitialize
                0x00000000000025d8       0x44 build/default/production/_ext/829342655/plib_tc2.o
                0x00000000000025d8                TC2_TimerInitialize

.text.TC4_TimerInitialize%111
                0x000000000000261c       0x44
 .text.TC4_TimerInitialize
                0x000000000000261c       0x44 build/default/production/_ext/829342655/plib_tc4.o
                0x000000000000261c                TC4_TimerInitialize

.text.xPortStartScheduler%112
                0x0000000000002660       0x44
 .text.xPortStartScheduler
                0x0000000000002660       0x44 build/default/production/_ext/1624415188/port.o
                0x0000000000002660                xPortStartScheduler

.text.xPortPendSVHandler%113
                0x00000000000026b0       0x44
 .text.xPortPendSVHandler
                0x00000000000026b0       0x44 build/default/production/_ext/1624415188/portasm.o
                0x00000000000026b0                xPortPendSVHandler

.text.Console_UART_Read%114
                0x00000000000026f4       0x40
 .text.Console_UART_Read
                0x00000000000026f4       0x40 build/default/production/_ext/1832805299/sys_console_uart.o
                0x00000000000026f4                Console_UART_Read

.text.Console_UART_Write%115
                0x0000000000002734       0x40
 .text.Console_UART_Write
                0x0000000000002734       0x40 build/default/production/_ext/1832805299/sys_console_uart.o
                0x0000000000002734                Console_UART_Write

.text.vTaskPlaceOnEventListRestricted%116
                0x0000000000002774       0x40
 .text.vTaskPlaceOnEventListRestricted
                0x0000000000002774       0x40 build/default/production/_ext/404212886/FreeRTOS_tasks.o
                0x0000000000002774                vTaskPlaceOnEventListRestricted

.text.prvProcessExpiredTimer%117
                0x00000000000027b4       0x3c
 .text.prvProcessExpiredTimer
                0x00000000000027b4       0x3c build/default/production/_ext/404212886/timers.o

.text.xTimerCreateTimerTask%118
                0x00000000000027f0       0x3c
 .text.xTimerCreateTimerTask
                0x00000000000027f0       0x3c build/default/production/_ext/404212886/timers.o
                0x00000000000027f0                xTimerCreateTimerTask

.text.Console_UART_WriteCountGet%119
                0x000000000000282c       0x38
 .text.Console_UART_WriteCountGet
                0x000000000000282c       0x38 build/default/production/_ext/1832805299/sys_console_uart.o
                0x000000000000282c                Console_UART_WriteCountGet

.text.Console_UART_WriteFreeBufferCountGet%120
                0x0000000000002864       0x38
 .text.Console_UART_WriteFreeBufferCountGet
                0x0000000000002864       0x38 build/default/production/_ext/1832805299/sys_console_uart.o
                0x0000000000002864                Console_UART_WriteFreeBufferCountGet

.text.Console_UART_ReadFreeBufferCountGet%121
                0x000000000000289c       0x38
 .text.Console_UART_ReadFreeBufferCountGet
                0x000000000000289c       0x38 build/default/production/_ext/1832805299/sys_console_uart.o
                0x000000000000289c                Console_UART_ReadFreeBufferCountGet

.text.Console_UART_ReadCountGet%122
                0x00000000000028d4       0x38
 .text.Console_UART_ReadCountGet
                0x00000000000028d4       0x38 build/default/production/_ext/1832805299/sys_console_uart.o
                0x00000000000028d4                Console_UART_ReadCountGet

.text.__pic32c_data_initialization%123
                0x000000000000290c       0x38
 .text.__pic32c_data_initialization
                0x000000000000290c       0x38 d:/mplab x ide/xcompilers/bin/bin/../../lib/gcc/pic32c/8.3.1/../../../../pic32c/lib/thumb/v6-m/nofp\libpic32c.a(data_init.o)
                0x000000000000290c                __pic32c_data_initialization

.text.TC2_TimerInterruptHandler%124
                0x0000000000002944       0x34
 .text.TC2_TimerInterruptHandler
                0x0000000000002944       0x34 build/default/production/_ext/829342655/plib_tc2.o
                0x0000000000002944                TC2_TimerInterruptHandler

.text.TC4_TimerInterruptHandler%125
                0x0000000000002978       0x34
 .text.TC4_TimerInterruptHandler
                0x0000000000002978       0x34 build/default/production/_ext/829342655/plib_tc4.o
                0x0000000000002978                TC4_TimerInterruptHandler

.text.vListInsert%126
                0x00000000000029ac       0x2e
 .text.vListInsert
                0x00000000000029ac       0x2e build/default/production/_ext/404212886/list.o
                0x00000000000029ac                vListInsert

.text.SERCOM3_SPI_Initialize%127
                0x00000000000029dc       0x2c
 .text.SERCOM3_SPI_Initialize
                0x00000000000029dc       0x2c build/default/production/_ext/17022449/plib_sercom3_spi_master.o
                0x00000000000029dc                SERCOM3_SPI_Initialize

.text.SERCOM0_SPI_Initialize%128
                0x0000000000002a08       0x2c
 .text.SERCOM0_SPI_Initialize
                0x0000000000002a08       0x2c build/default/production/_ext/17022449/plib_sercom0_spi_master.o
                0x0000000000002a08                SERCOM0_SPI_Initialize

.rodata.sysConsoleUARTDevDesc%129
                0x0000000000002a34       0x2c
 .rodata.sysConsoleUARTDevDesc
                0x0000000000002a34       0x2c build/default/production/_ext/1832805299/sys_console_uart.o
                0x0000000000002a34                sysConsoleUARTDevDesc

.text.prvResetNextTaskUnblockTime%130
                0x0000000000002a60       0x2c
 .text.prvResetNextTaskUnblockTime
                0x0000000000002a60       0x2c build/default/production/_ext/404212886/FreeRTOS_tasks.o

.text.prvReloadTimer%131
                0x0000000000002a8c       0x2a
 .text.prvReloadTimer
                0x0000000000002a8c       0x2a build/default/production/_ext/404212886/timers.o

.text.OSAL_MUTEX_Unlock%132
                0x0000000000002ab6       0x28
 .text.OSAL_MUTEX_Unlock
                0x0000000000002ab6       0x28 build/default/production/_ext/1529399856/osal_freertos.o
                0x0000000000002ab6                OSAL_MUTEX_Unlock

.text.vPortSetupTimerInterrupt%133
                0x0000000000002ae0       0x28
 .text.vPortSetupTimerInterrupt
                0x0000000000002ae0       0x28 build/default/production/_ext/1624415188/port.o
                0x0000000000002ae0                vPortSetupTimerInterrupt

.rodata.prvTimerTask%134
                0x0000000000002b08       0x28
 .rodata.prvTimerTask
                0x0000000000002b08       0x28 build/default/production/_ext/404212886/timers.o

.text.OSAL_MUTEX_Create%135
                0x0000000000002b30       0x24
 .text.OSAL_MUTEX_Create
                0x0000000000002b30       0x24 build/default/production/_ext/1529399856/osal_freertos.o
                0x0000000000002b30                OSAL_MUTEX_Create

.text.Console_UART_Initialize%136
                0x0000000000002b54       0x24
 .text.Console_UART_Initialize
                0x0000000000002b54       0x24 build/default/production/_ext/1832805299/sys_console_uart.o
                0x0000000000002b54                Console_UART_Initialize

.text.xPortSysTickHandler%137
                0x0000000000002b78       0x24
 .text.xPortSysTickHandler
                0x0000000000002b78       0x24 build/default/production/_ext/1624415188/port.o
                0x0000000000002b78                xPortSysTickHandler

.text.vRestoreContextOfFirstTask%138
                0x0000000000002ba0       0x24
 .text.vRestoreContextOfFirstTask
                0x0000000000002ba0       0x24 build/default/production/_ext/1624415188/portasm.o
                0x0000000000002ba0                vRestoreContextOfFirstTask

.text.uxListRemove%139
                0x0000000000002bc4       0x24
 .text.uxListRemove
                0x0000000000002bc4       0x24 build/default/production/_ext/404212886/list.o
                0x0000000000002bc4                uxListRemove

.text.prvCopyDataFromQueue%140
                0x0000000000002be8       0x24
 .text.prvCopyDataFromQueue
                0x0000000000002be8       0x24 build/default/production/_ext/404212886/queue.o

.text.xQueueCreateMutex%141
                0x0000000000002c0c       0x24
 .text.xQueueCreateMutex
                0x0000000000002c0c       0x24 build/default/production/_ext/404212886/queue.o
                0x0000000000002c0c                xQueueCreateMutex

.text.OSAL_MUTEX_Lock%142
                0x0000000000002c30       0x22
 .text.OSAL_MUTEX_Lock
                0x0000000000002c30       0x22 build/default/production/_ext/1529399856/osal_freertos.o
                0x0000000000002c30                OSAL_MUTEX_Lock

.text.vPortSVCHandler%143
                0x0000000000002c60       0x20
 .text.vPortSVCHandler
                0x0000000000002c60       0x20 build/default/production/_ext/1624415188/portasm.o
                0x0000000000002c60                vPortSVCHandler

.text.__dinit_copy%144
                0x0000000000002c80       0x1e
 .text.__dinit_copy
                0x0000000000002c80       0x1e d:/mplab x ide/xcompilers/bin/bin/../../lib/gcc/pic32c/8.3.1/../../../../pic32c/lib/thumb/v6-m/nofp\libpic32c.a(pic32_data_init_copy.o)
                0x0000000000002c80                __dinit_copy_needed
                0x0000000000002c80                __dinit_copy

.text.SERCOM7_USART_WritePendingBytesGet%145
                0x0000000000002ca0       0x1c
 .text.SERCOM7_USART_WritePendingBytesGet
                0x0000000000002ca0       0x1c build/default/production/_ext/504274921/plib_sercom7_usart.o

.text.SERCOM7_USART_ReadCountGet%146
                0x0000000000002cbc       0x1c
 .text.SERCOM7_USART_ReadCountGet
                0x0000000000002cbc       0x1c build/default/production/_ext/504274921/plib_sercom7_usart.o
                0x0000000000002cbc                SERCOM7_USART_ReadCountGet

.text.SERCOM5_USART_WritePendingBytesGet%147
                0x0000000000002cd8       0x1c
 .text.SERCOM5_USART_WritePendingBytesGet
                0x0000000000002cd8       0x1c build/default/production/_ext/504274921/plib_sercom5_usart.o

.text.SERCOM5_USART_ReadCountGet%148
                0x0000000000002cf4       0x1c
 .text.SERCOM5_USART_ReadCountGet
                0x0000000000002cf4       0x1c build/default/production/_ext/504274921/plib_sercom5_usart.o
                0x0000000000002cf4                SERCOM5_USART_ReadCountGet

.text.SYS_DEBUG_Initialize%149
                0x0000000000002d10       0x1c
 .text.SYS_DEBUG_Initialize
                0x0000000000002d10       0x1c build/default/production/_ext/944882569/sys_debug.o
                0x0000000000002d10                SYS_DEBUG_Initialize

.text.vTaskPlaceOnEventList%150
                0x0000000000002d2c       0x1c
 .text.vTaskPlaceOnEventList
                0x0000000000002d2c       0x1c build/default/production/_ext/404212886/FreeRTOS_tasks.o
                0x0000000000002d2c                vTaskPlaceOnEventList

.rodata.sysConsole0UARTPlibAPI%151
                0x0000000000002d48       0x18
 .rodata.sysConsole0UARTPlibAPI
                0x0000000000002d48       0x18 build/default/production/_ext/1171490990/initialization.o

.text.vPortYield%152
                0x0000000000002d60       0x18
 .text.vPortYield
                0x0000000000002d60       0x18 build/default/production/_ext/1624415188/port.o
                0x0000000000002d60                vPortYield

.text.vPortEnterCritical%153
                0x0000000000002d78       0x18
 .text.vPortEnterCritical
                0x0000000000002d78       0x18 build/default/production/_ext/1624415188/port.o
                0x0000000000002d78                vPortEnterCritical

.text.vPortExitCritical%154
                0x0000000000002d90       0x18
 .text.vPortExitCritical
                0x0000000000002d90       0x18 build/default/production/_ext/1624415188/port.o
                0x0000000000002d90                vPortExitCritical

.text.prvIdleTask%155
                0x0000000000002da8       0x18
 .text.prvIdleTask
                0x0000000000002da8       0x18 build/default/production/_ext/404212886/FreeRTOS_tasks.o

.text.vTaskInternalSetTimeOutState%156
                0x0000000000002dc0       0x18
 .text.vTaskInternalSetTimeOutState
                0x0000000000002dc0       0x18 build/default/production/_ext/404212886/FreeRTOS_tasks.o
                0x0000000000002dc0                vTaskInternalSetTimeOutState

.text.vListInitialise%157
                0x0000000000002dd8       0x16
 .text.vListInitialise
                0x0000000000002dd8       0x16 build/default/production/_ext/404212886/list.o
                0x0000000000002dd8                vListInitialise

.text.SERCOM7_USART_ReadFreeBufferCountGet%158
                0x0000000000002df0       0x14
 .text.SERCOM7_USART_ReadFreeBufferCountGet
                0x0000000000002df0       0x14 build/default/production/_ext/504274921/plib_sercom7_usart.o
                0x0000000000002df0                SERCOM7_USART_ReadFreeBufferCountGet

.text.SERCOM7_USART_WriteFreeBufferCountGet%159
                0x0000000000002e04       0x14
 .text.SERCOM7_USART_WriteFreeBufferCountGet
                0x0000000000002e04       0x14 build/default/production/_ext/504274921/plib_sercom7_usart.o
                0x0000000000002e04                SERCOM7_USART_WriteFreeBufferCountGet

.text.SERCOM5_USART_WriteFreeBufferCountGet%160
                0x0000000000002e18       0x14
 .text.SERCOM5_USART_WriteFreeBufferCountGet
                0x0000000000002e18       0x14 build/default/production/_ext/504274921/plib_sercom5_usart.o
                0x0000000000002e18                SERCOM5_USART_WriteFreeBufferCountGet

.text.Console_UART_Status%161
                0x0000000000002e2c       0x14
 .text.Console_UART_Status
                0x0000000000002e2c       0x14 build/default/production/_ext/1832805299/sys_console_uart.o
                0x0000000000002e2c                Console_UART_Status

.text.Console_UART_ResourceLock%162
                0x0000000000002e40       0x14
 .text.Console_UART_ResourceLock
                0x0000000000002e40       0x14 build/default/production/_ext/1832805299/sys_console_uart.o

.text.vPortSVCHandler_C%163
                0x0000000000002e54       0x14
 .text.vPortSVCHandler_C
                0x0000000000002e54       0x14 build/default/production/_ext/1624415188/port.o
                0x0000000000002e54                vPortSVCHandler_C

.text.prvIsQueueEmpty%164
                0x0000000000002e68       0x14
 .text.prvIsQueueEmpty
                0x0000000000002e68       0x14 build/default/production/_ext/404212886/queue.o

.text.pvTaskIncrementMutexHeldCount%165
                0x0000000000002e7c       0x14
 .text.pvTaskIncrementMutexHeldCount
                0x0000000000002e7c       0x14 build/default/production/_ext/404212886/FreeRTOS_tasks.o
                0x0000000000002e7c                pvTaskIncrementMutexHeldCount

.text.HEALTH_TASK_Tasks%166
                0x0000000000002e90       0x14
 .text.HEALTH_TASK_Tasks
                0x0000000000002e90       0x14 build/default/production/_ext/1360937237/health_task.o
                0x0000000000002e90                HEALTH_TASK_Tasks

.text.TMC4671_MOTION_Tasks%167
                0x0000000000002ea4       0x14
 .text.TMC4671_MOTION_Tasks
                0x0000000000002ea4       0x14 build/default/production/_ext/1360937237/tmc4671_motion.o
                0x0000000000002ea4                TMC4671_MOTION_Tasks

.text.TMC2209_MOTION_Tasks%168
                0x0000000000002eb8       0x14
 .text.TMC2209_MOTION_Tasks
                0x0000000000002eb8       0x14 build/default/production/_ext/1360937237/tmc2209_motion.o
                0x0000000000002eb8                TMC2209_MOTION_Tasks

.text.CAN_TASK_Tasks%169
                0x0000000000002ecc       0x14
 .text.CAN_TASK_Tasks
                0x0000000000002ecc       0x14 build/default/production/_ext/1360937237/can_task.o
                0x0000000000002ecc                CAN_TASK_Tasks

.text.CMD_PARSER_Tasks%170
                0x0000000000002ee0       0x14
 .text.CMD_PARSER_Tasks
                0x0000000000002ee0       0x14 build/default/production/_ext/1360937237/cmd_parser.o
                0x0000000000002ee0                CMD_PARSER_Tasks

.text.DEBUG_LOGGER_Tasks%171
                0x0000000000002ef4       0x14
 .text.DEBUG_LOGGER_Tasks
                0x0000000000002ef4       0x14 build/default/production/_ext/1360937237/debug_logger.o
                0x0000000000002ef4                DEBUG_LOGGER_Tasks

.rodata%172     0x0000000000002f08       0x14
 .rodata        0x0000000000002f08       0x14 d:/mplab x ide/xcompilers/bin/bin/../../lib/gcc/pic32c/8.3.1/../../../../pic32c/lib/thumb/v6-m/nofp\libpic32c.a(data_init.o)

.text.memcpy%173
                0x0000000000002f1c       0x14
 .text.memcpy   0x0000000000002f1c       0x14 d:/mplab x ide/xcompilers/bin/bin/../../lib/gcc/pic32c/8.3.1/../../../../pic32c/lib/thumb/v6-m/nofp\libc-size-musl.a(memcpy.o)
                0x0000000000002f1c                memcpy

.text.memset%174
                0x0000000000002f30       0x14
 .text.memset   0x0000000000002f30       0x14 d:/mplab x ide/xcompilers/bin/bin/../../lib/gcc/pic32c/8.3.1/../../../../pic32c/lib/thumb/v6-m/nofp\libc-size-musl.a(memset.o)
                0x0000000000002f30                memset

.text.__init_stdout%175
                0x0000000000002f44       0x14
 .text.__init_stdout
                0x0000000000002f44       0x14 d:/mplab x ide/xcompilers/bin/bin/../../lib/gcc/pic32c/8.3.1/../../../../pic32c/lib/thumb/v6-m/nofp\libc-musl.a(stdout.o)
                0x0000000000002f44                __init_stdout

.text.prvTaskExitError%176
                0x0000000000002f58       0x12
 .text.prvTaskExitError
                0x0000000000002f58       0x12 build/default/production/_ext/1624415188/port.o

.text.__dinit_clear%177
                0x0000000000002f6a       0x12
 .text.__dinit_clear
                0x0000000000002f6a       0x12 d:/mplab x ide/xcompilers/bin/bin/../../lib/gcc/pic32c/8.3.1/../../../../pic32c/lib/thumb/v6-m/nofp\libpic32c.a(pic32_data_init_clear.o)
                0x0000000000002f6a                __dinit_clear
                0x0000000000002f6a                __dinit_clear_needed

.text.vStartFirstTask%178
                0x0000000000002f80       0x10
 .text.vStartFirstTask
                0x0000000000002f80       0x10 build/default/production/_ext/1624415188/portasm.o
                0x0000000000002f80                vStartFirstTask

.text.vTaskSuspendAll%179
                0x0000000000002f90       0x10
 .text.vTaskSuspendAll
                0x0000000000002f90       0x10 build/default/production/_ext/404212886/FreeRTOS_tasks.o
                0x0000000000002f90                vTaskSuspendAll

.text.__init_stdio%180
                0x0000000000002fa0       0x10
 .text.__init_stdio
                0x0000000000002fa0       0x10 d:/mplab x ide/xcompilers/bin/bin/../../lib/gcc/pic32c/8.3.1/../../../../pic32c/lib/thumb/v6-m/nofp\libc-musl.a(__init_stdio.o)
                0x0000000000002fa0                __init_stdio_needed
                0x0000000000002fa0                __init_stdio

.text.main%181  0x0000000000002c52        0xe
 .text.main     0x0000000000002c52        0xe build/default/production/_ext/1360937237/main.o
                0x0000000000002c52                main

.text.NVMCTRL_Initialize%182
                0x00000000000026a4        0xc
 .text.NVMCTRL_Initialize
                0x00000000000026a4        0xc build/default/production/_ext/1593096446/plib_nvmctrl.o
                0x00000000000026a4                NVMCTRL_Initialize

.rodata.debugInit%183
                0x0000000000002fb0        0xc
 .rodata.debugInit
                0x0000000000002fb0        0xc build/default/production/_ext/1171490990/initialization.o

.rodata.sysConsole0Init%184
                0x0000000000002fbc        0xc
 .rodata.sysConsole0Init
                0x0000000000002fbc        0xc build/default/production/_ext/1171490990/initialization.o

.text.xTaskGetTickCount%185
                0x0000000000002fc8        0xc
 .text.xTaskGetTickCount
                0x0000000000002fc8        0xc build/default/production/_ext/404212886/FreeRTOS_tasks.o
                0x0000000000002fc8                xTaskGetTickCount

.text.vTaskMissedYield%186
                0x0000000000002fd4        0xc
 .text.vTaskMissedYield
                0x0000000000002fd4        0xc build/default/production/_ext/404212886/FreeRTOS_tasks.o
                0x0000000000002fd4                vTaskMissedYield

.text.HEALTH_TASK_Initialize%187
                0x0000000000002fe0        0xc
 .text.HEALTH_TASK_Initialize
                0x0000000000002fe0        0xc build/default/production/_ext/1360937237/health_task.o
                0x0000000000002fe0                HEALTH_TASK_Initialize

.text.TMC4671_MOTION_Initialize%188
                0x0000000000002fec        0xc
 .text.TMC4671_MOTION_Initialize
                0x0000000000002fec        0xc build/default/production/_ext/1360937237/tmc4671_motion.o
                0x0000000000002fec                TMC4671_MOTION_Initialize

.text.TMC2209_MOTION_Initialize%189
                0x0000000000002ff8        0xc
 .text.TMC2209_MOTION_Initialize
                0x0000000000002ff8        0xc build/default/production/_ext/1360937237/tmc2209_motion.o
                0x0000000000002ff8                TMC2209_MOTION_Initialize

.text.CAN_TASK_Initialize%190
                0x0000000000003004        0xc
 .text.CAN_TASK_Initialize
                0x0000000000003004        0xc build/default/production/_ext/1360937237/can_task.o
                0x0000000000003004                CAN_TASK_Initialize

.text.CMD_PARSER_Initialize%191
                0x0000000000003010        0xc
 .text.CMD_PARSER_Initialize
                0x0000000000003010        0xc build/default/production/_ext/1360937237/cmd_parser.o
                0x0000000000003010                CMD_PARSER_Initialize

.text.DEBUG_LOGGER_Initialize%192
                0x000000000000301c        0xc
 .text.DEBUG_LOGGER_Initialize
                0x000000000000301c        0xc build/default/production/_ext/1360937237/debug_logger.o
                0x000000000000301c                DEBUG_LOGGER_Initialize

.text.SERCOM7_USART_WriteCountGet%193
                0x0000000000003028        0x8
 .text.SERCOM7_USART_WriteCountGet
                0x0000000000003028        0x8 build/default/production/_ext/504274921/plib_sercom7_usart.o
                0x0000000000003028                SERCOM7_USART_WriteCountGet

.text.TC2_7_Handler%194
                0x0000000000003030        0x8
 .text.TC2_7_Handler
                0x0000000000003030        0x8 build/default/production/_ext/1171490990/interrupts.o

.text.SERCOM1_7_Handler%195
                0x0000000000003038        0x8
 .text.SERCOM1_7_Handler
                0x0000000000003038        0x8 build/default/production/_ext/1171490990/interrupts.o

.text.lDEBUG_LOGGER_Tasks%196
                0x0000000000003040        0x8
 .text.lDEBUG_LOGGER_Tasks
                0x0000000000003040        0x8 build/default/production/_ext/1171490990/tasks.o

.text.lCMD_PARSER_Tasks%197
                0x0000000000003048        0x8
 .text.lCMD_PARSER_Tasks
                0x0000000000003048        0x8 build/default/production/_ext/1171490990/tasks.o

.text.lCAN_TASK_Tasks%198
                0x0000000000003050        0x8
 .text.lCAN_TASK_Tasks
                0x0000000000003050        0x8 build/default/production/_ext/1171490990/tasks.o

.text.lTMC2209_MOTION_Tasks%199
                0x0000000000003058        0x8
 .text.lTMC2209_MOTION_Tasks
                0x0000000000003058        0x8 build/default/production/_ext/1171490990/tasks.o

.text.lTMC4671_MOTION_Tasks%200
                0x0000000000003060        0x8
 .text.lTMC4671_MOTION_Tasks
                0x0000000000003060        0x8 build/default/production/_ext/1171490990/tasks.o

.text.lHEALTH_TASK_Tasks%201
                0x0000000000003068        0x8
 .text.lHEALTH_TASK_Tasks
                0x0000000000003068        0x8 build/default/production/_ext/1171490990/tasks.o

.text.ulSetInterruptMask%202
                0x0000000000003070        0x8
 .text.ulSetInterruptMask
                0x0000000000003070        0x8 build/default/production/_ext/1624415188/portasm.o
                0x0000000000003070                ulSetInterruptMask

.rodata.xTimerCreateTimerTask.str1.4%203
                0x0000000000003078        0x8
 .rodata.xTimerCreateTimerTask.str1.4
                0x0000000000003078        0x8 build/default/production/_ext/404212886/timers.o

.text.__dummy%204
                0x0000000000003080        0x8
 .text.__dummy  0x0000000000003080        0x8 d:/mplab x ide/xcompilers/bin/bin/../../lib/gcc/pic32c/8.3.1/../../../../pic32c/lib/thumb/v6-m/nofp\libc-musl.a(stdout.o)
                0x0000000000003080                __get_stdout

.text.vClearInterruptMask%205
                0x0000000000003088        0x6
 .text.vClearInterruptMask
                0x0000000000003088        0x6 build/default/production/_ext/1624415188/portasm.o
                0x0000000000003088                vClearInterruptMask

.text.vListInitialiseItem%206
                0x000000000000308e        0x6
 .text.vListInitialiseItem
                0x000000000000308e        0x6 build/default/production/_ext/404212886/list.o
                0x000000000000308e                vListInitialiseItem

.text.Console_UART_Flush%207
                0x0000000000002b9c        0x4
 .text.Console_UART_Flush
                0x0000000000002b9c        0x4 build/default/production/_ext/1832805299/sys_console_uart.o
                0x0000000000002b9c                Console_UART_Flush

.rodata.sysConsole0UARTInitData%208
                0x0000000000002f7c        0x4
 .rodata.sysConsole0UARTInitData
                0x0000000000002f7c        0x4 build/default/production/_ext/1171490990/initialization.o

.text.vApplicationStackOverflowHook%209
                0x0000000000003094        0x4
 .text.vApplicationStackOverflowHook
                0x0000000000003094        0x4 build/default/production/_ext/1171490990/freertos_hooks.o
                0x0000000000003094                vApplicationStackOverflowHook

.text.vApplicationMallocFailedHook%210
                0x0000000000003098        0x4
 .text.vApplicationMallocFailedHook
                0x0000000000003098        0x4 build/default/production/_ext/1171490990/freertos_hooks.o
                0x0000000000003098                vApplicationMallocFailedHook

.text.__dummy_decompress%211
                0x000000000000309c        0x4
 .text.__dummy_decompress
                0x000000000000309c        0x4 d:/mplab x ide/xcompilers/bin/bin/../../lib/gcc/pic32c/8.3.1/../../../../pic32c/lib/thumb/v6-m/nofp\libpic32c.a(data_init.o)
                0x000000000000309c                __dinit_decompress
                0x000000000000309c                __dinit_copy_val_data
                0x000000000000309c                __dinit_copy_emb

.text.EVSYS_Initialize%212
                0x0000000000000c26        0x2
 .text.EVSYS_Initialize
                0x0000000000000c26        0x2 build/default/production/_ext/1986646378/plib_evsys.o
                0x0000000000000c26                EVSYS_Initialize

.text.Console_UART_Tasks%213
                0x0000000000001716        0x2
 .text.Console_UART_Tasks
                0x0000000000001716        0x2 build/default/production/_ext/1832805299/sys_console_uart.o
                0x0000000000001716                Console_UART_Tasks

.text.Dummy_Handler%214
                0x0000000000001cea        0x2
 .text.Dummy_Handler
                0x0000000000001cea        0x2 build/default/production/_ext/1171490990/interrupts.o
                0x0000000000001cea                DMAC_Handler
                0x0000000000001cea                AC_Handler
                0x0000000000001cea                TCC1_Handler
                0x0000000000001cea                SERCOM2_Handler
                0x0000000000001cea                TCC0_Handler
                0x0000000000001cea                TC1_6_Handler
                0x0000000000001cea                RTC_Handler
                0x0000000000001cea                ADC1_Handler
                0x0000000000001cea                WDT_Handler
                0x0000000000001cea                CAN0_Handler
                0x0000000000001cea                TC3_Handler
                0x0000000000001cea                SDADC_Handler
                0x0000000000001cea                Dummy_Handler
                0x0000000000001cea                TC0_5_Handler
                0x0000000000001cea                CAN1_Handler
                0x0000000000001cea                ADC0_Handler
                0x0000000000001cea                TSENS_Handler
                0x0000000000001cea                TCC2_Handler
                0x0000000000001cea                EVSYS_Handler
                0x0000000000001cea                SERCOM3_Handler
                0x0000000000001cea                SERCOM4_Handler
                0x0000000000001cea                NVMCTRL_Handler
                0x0000000000001cea                SYSTEM_Handler
                0x0000000000001cea                DAC_Handler
                0x0000000000001cea                PTC_Handler
                0x0000000000001cea                SERCOM0_6_Handler
                0x0000000000001cea                FREQM_Handler

.text.NonMaskableInt_Handler%215
                0x0000000000001dea        0x2
 .text.NonMaskableInt_Handler
                0x0000000000001dea        0x2 build/default/production/_ext/1171490990/exceptions.o
                0x0000000000001dea                NonMaskableInt_Handler

.text.HardFault_Handler%216
                0x0000000000001fd2        0x2
 .text.HardFault_Handler
                0x0000000000001fd2        0x2 build/default/production/_ext/1171490990/exceptions.o
                0x0000000000001fd2                HardFault_Handler

.text.Dummy_App_Func%217
                0x00000000000029da        0x2
 .text.Dummy_App_Func
                0x00000000000029da        0x2 build/default/production/_ext/1171490990/startup_xc32.o
                0x00000000000029da                _on_reset
                0x00000000000029da                _on_bootstrap
                0x00000000000029da                __xc32_on_reset
                0x00000000000029da                Dummy_App_Func
                0x00000000000029da                __xc32_on_bootstrap

.text.vPortFree%218
                0x0000000000002ade        0x2
 .text.vPortFree
                0x0000000000002ade        0x2 build/default/production/_ext/1665200909/heap_1.o
                0x0000000000002ade                vPortFree

.text.vApplicationDaemonTaskStartupHook%219
                0x0000000000002c9e        0x2
 .text.vApplicationDaemonTaskStartupHook
                0x0000000000002c9e        0x2 build/default/production/_ext/1360937237/freertos_daemon.o
                0x0000000000002c9e                vApplicationDaemonTaskStartupHook

.text.__dummy_init_tls%220
                0x0000000000002dee        0x2
 .text.__dummy_init_tls
                0x0000000000002dee        0x2 d:/mplab x ide/xcompilers/bin/bin/../../lib/gcc/pic32c/8.3.1/../../../../pic32c/lib/thumb/v6-m/nofp\libpic32c.a(data_init.o)
                0x0000000000002dee                xc32_init_tls

.text.__dummy%221
                0x00000000000030a0        0x2
 .text.__dummy  0x00000000000030a0        0x2 d:/mplab x ide/xcompilers/bin/bin/../../lib/gcc/pic32c/8.3.1/../../../../pic32c/lib/thumb/v6-m/nofp\libc-musl.a(__libc_start_main.o)
                0x00000000000030a0                __init_host

.text.__dummy%222
                0x00000000000030a2        0x2
 .text.__dummy  0x00000000000030a2        0x2 d:/mplab x ide/xcompilers/bin/bin/../../lib/gcc/pic32c/8.3.1/../../../../pic32c/lib/thumb/v6-m/nofp\libc-musl.a(__init_stdio.o)
                0x00000000000030a2                __init_stdin
                0x00000000000030a2                __init_stderr
