Archive member included to satisfy reference by file (symbol)

d:/mplab x ide/xc32_v4.60/bin/bin/../../lib/gcc/pic32c/8.3.1/../../../../pic32c/lib/thumb/v6-m/nofp\libpic32c.a(data_init.o)
                              build/default/production/_ext/1171490990/startup_xc32.o (__pic32c_data_initialization)
d:/mplab x ide/xc32_v4.60/bin/bin/../../lib/gcc/pic32c/8.3.1/../../../../pic32c/lib/thumb/v6-m/nofp\libc-size-musl.a(memcpy.o)
                              build/default/production/_ext/60165182/plib_can1.o (memcpy)
d:/mplab x ide/xc32_v4.60/bin/bin/../../lib/gcc/pic32c/8.3.1/../../../../pic32c/lib/thumb/v6-m/nofp\libc-size-musl.a(memset.o)
                              build/default/production/_ext/60165182/plib_can1.o (memset)
d:/mplab x ide/xc32_v4.60/bin/bin/../../lib/gcc/pic32c/8.3.1/../../../../pic32c/lib/thumb/v6-m/nofp\libc-size-musl.a(strlen.o)
                              build/default/production/_ext/1832805299/sys_console.o (strlen)
d:/mplab x ide/xc32_v4.60/bin/bin/../../lib/gcc/pic32c/8.3.1/../../../../pic32c/lib/thumb/v6-m/nofp\libm-fast-emfloat.a(__aeabi_fmul.o)
                              build/default/production/_ext/60165182/plib_can1.o (__aeabi_fmul)
d:/mplab x ide/xc32_v4.60/bin/bin/../../lib/gcc/pic32c/8.3.1/../../../../pic32c/lib/thumb/v6-m/nofp\libm-fast-emfloat.a(__aeabi_fdiv.o)
                              build/default/production/_ext/60165182/plib_can1.o (__aeabi_fdiv)
d:/mplab x ide/xc32_v4.60/bin/bin/../../lib/gcc/pic32c/8.3.1/../../../../pic32c/lib/thumb/v6-m/nofp\libm-fast-emfloat.a(__aeabi_fcmplt.o)
                              build/default/production/_ext/60165182/plib_can1.o (__aeabi_fcmplt)
d:/mplab x ide/xc32_v4.60/bin/bin/../../lib/gcc/pic32c/8.3.1/../../../../pic32c/lib/thumb/v6-m/nofp\libm-fast-emfloat.a(__aeabi_f2iz.o)
                              build/default/production/_ext/2089947380/Step_Counter.o (__aeabi_f2iz)
d:/mplab x ide/xc32_v4.60/bin/bin/../../lib/gcc/pic32c/8.3.1/../../../../pic32c/lib/thumb/v6-m/nofp\libm-fast-emfloat.a(__aeabi_f2uiz.o)
                              build/default/production/_ext/60165182/plib_can1.o (__aeabi_f2uiz)
d:/mplab x ide/xc32_v4.60/bin/bin/../../lib/gcc/pic32c/8.3.1/../../../../pic32c/lib/thumb/v6-m/nofp\libm-fast-emfloat.a(__aeabi_i2f.o)
                              build/default/production/_ext/2089947380/Step_Counter.o (__aeabi_i2f)
d:/mplab x ide/xc32_v4.60/bin/bin/../../lib/gcc/pic32c/8.3.1/../../../../pic32c/lib/thumb/v6-m/nofp\libm-fast-emfloat.a(__aeabi_ui2f.o)
                              build/default/production/_ext/60165182/plib_can1.o (__aeabi_ui2f)
d:/mplab x ide/xc32_v4.60/bin/bin/../../lib/gcc/pic32c/8.3.1/../../../../pic32c/lib/thumb/v6-m/nofp\libc-musl.a(__libc_start_main.o)
                              build/default/production/_ext/1171490990/startup_xc32.o (__libc_init_array)
d:/mplab x ide/xc32_v4.60/bin/bin/../../lib/gcc/pic32c/8.3.1/../../../../pic32c/lib/thumb/v6-m/nofp\libc-musl.a(libc.o)
                              d:/mplab x ide/xc32_v4.60/bin/bin/../../lib/gcc/pic32c/8.3.1/../../../../pic32c/lib/thumb/v6-m/nofp\libc-musl.a(__libc_start_main.o) (__progname_full)
d:/mplab x ide/xc32_v4.60/bin/bin/../../lib/gcc/pic32c/8.3.1/../../../../pic32c/lib/thumb/v6-m/nofp\libc-musl.a(vsnprintf.o)
                              build/default/production/_ext/1832805299/sys_console.o (vsnprintf)
d:/mplab x ide/xc32_v4.60/bin/bin/../../lib/gcc/pic32c/8.3.1/../../../../pic32c/lib/thumb/v6-m/nofp\libc-musl.a(printf.o)
                              (printf)
d:/mplab x ide/xc32_v4.60/bin/bin/../../lib/gcc/pic32c/8.3.1/../../../../pic32c/lib/thumb/v6-m/nofp\libc-musl.a(puts.o)
                              build/default/production/_ext/1500443788/ext_flash.o (puts)
d:/mplab x ide/xc32_v4.60/bin/bin/../../lib/gcc/pic32c/8.3.1/../../../../pic32c/lib/thumb/v6-m/nofp\libc-musl.a(__environ.o)
                              d:/mplab x ide/xc32_v4.60/bin/bin/../../lib/gcc/pic32c/8.3.1/../../../../pic32c/lib/thumb/v6-m/nofp\libc-musl.a(__libc_start_main.o) (__environ)
d:/mplab x ide/xc32_v4.60/bin/bin/../../lib/gcc/pic32c/8.3.1/../../../../pic32c/lib/thumb/v6-m/nofp\libc-musl.a(__errno_location.o)
                              d:/mplab x ide/xc32_v4.60/bin/bin/../../lib/gcc/pic32c/8.3.1/../../../../pic32c/lib/thumb/v6-m/nofp\libc-musl.a(vsnprintf.o) (__errno_val)
d:/mplab x ide/xc32_v4.60/bin/bin/../../lib/gcc/pic32c/8.3.1/../../../../pic32c/lib/thumb/v6-m/nofp\libc-musl.a(fputs.o)
                              d:/mplab x ide/xc32_v4.60/bin/bin/../../lib/gcc/pic32c/8.3.1/../../../../pic32c/lib/thumb/v6-m/nofp\libc-musl.a(puts.o) (fputs)
d:/mplab x ide/xc32_v4.60/bin/bin/../../lib/gcc/pic32c/8.3.1/../../../../pic32c/lib/thumb/v6-m/nofp\libc-musl.a(fwrite.o)
                              d:/mplab x ide/xc32_v4.60/bin/bin/../../lib/gcc/pic32c/8.3.1/../../../../pic32c/lib/thumb/v6-m/nofp\libc-musl.a(fputs.o) (fwrite)
d:/mplab x ide/xc32_v4.60/bin/bin/../../lib/gcc/pic32c/8.3.1/../../../../pic32c/lib/thumb/v6-m/nofp\libc-musl.a(putc.o)
                              d:/mplab x ide/xc32_v4.60/bin/bin/../../lib/gcc/pic32c/8.3.1/../../../../pic32c/lib/thumb/v6-m/nofp\libc-musl.a(puts.o) (putc_unlocked)
d:/mplab x ide/xc32_v4.60/bin/bin/../../lib/gcc/pic32c/8.3.1/../../../../pic32c/lib/thumb/v6-m/nofp\libc-musl.a(stdout.o)
                              d:/mplab x ide/xc32_v4.60/bin/bin/../../lib/gcc/pic32c/8.3.1/../../../../pic32c/lib/thumb/v6-m/nofp\libc-musl.a(printf.o) (_stdout)
d:/mplab x ide/xc32_v4.60/bin/bin/../../lib/gcc/pic32c/8.3.1/../../../../pic32c/lib/thumb/v6-m/nofp\libc-musl.a(vfprintf.o)
                              d:/mplab x ide/xc32_v4.60/bin/bin/../../lib/gcc/pic32c/8.3.1/../../../../pic32c/lib/thumb/v6-m/nofp\libc-musl.a(vsnprintf.o) (vfprintf)
d:/mplab x ide/xc32_v4.60/bin/bin/../../lib/gcc/pic32c/8.3.1/../../../../pic32c/lib/thumb/v6-m/nofp\libc-musl.a(__io_fmt_needed.o)
                              d:/mplab x ide/xc32_v4.60/bin/bin/../../lib/gcc/pic32c/8.3.1/../../../../pic32c/lib/thumb/v6-m/nofp\libc-musl.a(vfprintf.o) (__io_fmt_needed)
d:/mplab x ide/xc32_v4.60/bin/bin/../../lib/gcc/pic32c/8.3.1/../../../../pic32c/lib/thumb/v6-m/nofp\libc-musl.a(__io_init_needed.o)
                              d:/mplab x ide/xc32_v4.60/bin/bin/../../lib/gcc/pic32c/8.3.1/../../../../pic32c/lib/thumb/v6-m/nofp\libc-musl.a(stdout.o) (__io_init_needed)
d:/mplab x ide/xc32_v4.60/bin/bin/../../lib/gcc/pic32c/8.3.1/../../../../pic32c/lib/thumb/v6-m/nofp\libc-musl.a(__out.o)
                              d:/mplab x ide/xc32_v4.60/bin/bin/../../lib/gcc/pic32c/8.3.1/../../../../pic32c/lib/thumb/v6-m/nofp\libc-musl.a(putc.o) (__out_needed)
d:/mplab x ide/xc32_v4.60/bin/bin/../../lib/gcc/pic32c/8.3.1/../../../../pic32c/lib/thumb/v6-m/nofp\libc-musl.a(__pop_float.o)
                              d:/mplab x ide/xc32_v4.60/bin/bin/../../lib/gcc/pic32c/8.3.1/../../../../pic32c/lib/thumb/v6-m/nofp\libc-musl.a(__io_fmt_needed.o) (__pop_float_needed)
d:/mplab x ide/xc32_v4.60/bin/bin/../../lib/gcc/pic32c/8.3.1/../../../../pic32c/lib/thumb/v6-m/nofp\libc-musl.a(__pop_int.o)
                              d:/mplab x ide/xc32_v4.60/bin/bin/../../lib/gcc/pic32c/8.3.1/../../../../pic32c/lib/thumb/v6-m/nofp\libc-musl.a(__io_fmt_needed.o) (__pop_int_needed)
d:/mplab x ide/xc32_v4.60/bin/bin/../../lib/gcc/pic32c/8.3.1/../../../../pic32c/lib/thumb/v6-m/nofp\libc-musl.a(__pop_ptr.o)
                              d:/mplab x ide/xc32_v4.60/bin/bin/../../lib/gcc/pic32c/8.3.1/../../../../pic32c/lib/thumb/v6-m/nofp\libc-musl.a(__io_fmt_needed.o) (__pop_ptr_needed)
d:/mplab x ide/xc32_v4.60/bin/bin/../../lib/gcc/pic32c/8.3.1/../../../../pic32c/lib/thumb/v6-m/nofp\libc-musl.a(__printf_core.o)
                              d:/mplab x ide/xc32_v4.60/bin/bin/../../lib/gcc/pic32c/8.3.1/../../../../pic32c/lib/thumb/v6-m/nofp\libc-musl.a(vfprintf.o) (__printf_core)
d:/mplab x ide/xc32_v4.60/bin/bin/../../lib/gcc/pic32c/8.3.1/../../../../pic32c/lib/thumb/v6-m/nofp\libc-musl.a(atoi.o)
                              d:/mplab x ide/xc32_v4.60/bin/bin/../../lib/gcc/pic32c/8.3.1/../../../../pic32c/lib/thumb/v6-m/nofp\libc-musl.a(__printf_core.o) (atoi)
d:/mplab x ide/xc32_v4.60/bin/bin/../../lib/gcc/pic32c/8.3.1/../../../../pic32c/lib/thumb/v6-m/nofp\libc-musl.a(tolower.o)
                              d:/mplab x ide/xc32_v4.60/bin/bin/../../lib/gcc/pic32c/8.3.1/../../../../pic32c/lib/thumb/v6-m/nofp\libc-musl.a(__printf_core.o) (tolower)
d:/mplab x ide/xc32_v4.60/bin/bin/../../lib/gcc/pic32c/8.3.1/../../../../pic32c/lib/thumb/v6-m/nofp\libc-musl.a(__fmt_a.o)
                              d:/mplab x ide/xc32_v4.60/bin/bin/../../lib/gcc/pic32c/8.3.1/../../../../pic32c/lib/thumb/v6-m/nofp\libc-musl.a(__io_fmt_needed.o) (__fmt_a_needed)
d:/mplab x ide/xc32_v4.60/bin/bin/../../lib/gcc/pic32c/8.3.1/../../../../pic32c/lib/thumb/v6-m/nofp\libc-musl.a(__fmt_d.o)
                              d:/mplab x ide/xc32_v4.60/bin/bin/../../lib/gcc/pic32c/8.3.1/../../../../pic32c/lib/thumb/v6-m/nofp\libc-musl.a(__io_fmt_needed.o) (__fmt_d_needed)
d:/mplab x ide/xc32_v4.60/bin/bin/../../lib/gcc/pic32c/8.3.1/../../../../pic32c/lib/thumb/v6-m/nofp\libc-musl.a(__fmt_fp.o)
                              d:/mplab x ide/xc32_v4.60/bin/bin/../../lib/gcc/pic32c/8.3.1/../../../../pic32c/lib/thumb/v6-m/nofp\libc-musl.a(__io_fmt_needed.o) (__fmt_f_needed)
d:/mplab x ide/xc32_v4.60/bin/bin/../../lib/gcc/pic32c/8.3.1/../../../../pic32c/lib/thumb/v6-m/nofp\libc-musl.a(__fmt_o.o)
                              d:/mplab x ide/xc32_v4.60/bin/bin/../../lib/gcc/pic32c/8.3.1/../../../../pic32c/lib/thumb/v6-m/nofp\libc-musl.a(__io_fmt_needed.o) (__fmt_o_needed)
d:/mplab x ide/xc32_v4.60/bin/bin/../../lib/gcc/pic32c/8.3.1/../../../../pic32c/lib/thumb/v6-m/nofp\libc-musl.a(__fmt_s.o)
                              d:/mplab x ide/xc32_v4.60/bin/bin/../../lib/gcc/pic32c/8.3.1/../../../../pic32c/lib/thumb/v6-m/nofp\libc-musl.a(__io_fmt_needed.o) (__fmt_s_needed)
d:/mplab x ide/xc32_v4.60/bin/bin/../../lib/gcc/pic32c/8.3.1/../../../../pic32c/lib/thumb/v6-m/nofp\libc-musl.a(__fmt_u.o)
                              d:/mplab x ide/xc32_v4.60/bin/bin/../../lib/gcc/pic32c/8.3.1/../../../../pic32c/lib/thumb/v6-m/nofp\libc-musl.a(__io_fmt_needed.o) (__fmt_u_needed)
d:/mplab x ide/xc32_v4.60/bin/bin/../../lib/gcc/pic32c/8.3.1/../../../../pic32c/lib/thumb/v6-m/nofp\libc-musl.a(__fmt_x.o)
                              d:/mplab x ide/xc32_v4.60/bin/bin/../../lib/gcc/pic32c/8.3.1/../../../../pic32c/lib/thumb/v6-m/nofp\libc-musl.a(__io_fmt_needed.o) (__fmt_x_needed)
d:/mplab x ide/xc32_v4.60/bin/bin/../../lib/gcc/pic32c/8.3.1/../../../../pic32c/lib/thumb/v6-m/nofp\libc-musl.a(__init_stdio.o)
                              d:/mplab x ide/xc32_v4.60/bin/bin/../../lib/gcc/pic32c/8.3.1/../../../../pic32c/lib/thumb/v6-m/nofp\libc-musl.a(__io_init_needed.o) (__init_stdio_needed)
d:/mplab x ide/xc32_v4.60/bin/bin/../../lib/gcc/pic32c/8.3.1/../../../../pic32c/lib/thumb/v6-m/nofp\libc-musl.a(__io_file_needed.o)
                              d:/mplab x ide/xc32_v4.60/bin/bin/../../lib/gcc/pic32c/8.3.1/../../../../pic32c/lib/thumb/v6-m/nofp\libc-musl.a(__io_init_needed.o) (__io_file_needed)
d:/mplab x ide/xc32_v4.60/bin/bin/../../lib/gcc/pic32c/8.3.1/../../../../pic32c/lib/thumb/v6-m/nofp\libc-musl.a(toupper.o)
                              d:/mplab x ide/xc32_v4.60/bin/bin/../../lib/gcc/pic32c/8.3.1/../../../../pic32c/lib/thumb/v6-m/nofp\libc-musl.a(__fmt_a.o) (toupper)
d:/mplab x ide/xc32_v4.60/bin/bin/../../lib/gcc/pic32c/8.3.1/../../../../pic32c/lib/thumb/v6-m/nofp\libc-musl.a(__cvt_u.o)
                              d:/mplab x ide/xc32_v4.60/bin/bin/../../lib/gcc/pic32c/8.3.1/../../../../pic32c/lib/thumb/v6-m/nofp\libc-musl.a(__fmt_d.o) (__cvt_u)
d:/mplab x ide/xc32_v4.60/bin/bin/../../lib/gcc/pic32c/8.3.1/../../../../pic32c/lib/thumb/v6-m/nofp\libm-fast-emfloat.a(fma.o)
                              d:/mplab x ide/xc32_v4.60/bin/bin/../../lib/gcc/pic32c/8.3.1/../../../../pic32c/lib/thumb/v6-m/nofp\libc-musl.a(__fmt_fp.o) (fma)
d:/mplab x ide/xc32_v4.60/bin/bin/../../lib/gcc/pic32c/8.3.1/../../../../pic32c/lib/thumb/v6-m/nofp\libm-fast-emfloat.a(floor.o)
                              d:/mplab x ide/xc32_v4.60/bin/bin/../../lib/gcc/pic32c/8.3.1/../../../../pic32c/lib/thumb/v6-m/nofp\libc-musl.a(__fmt_a.o) (floor)
d:/mplab x ide/xc32_v4.60/bin/bin/../../lib/gcc/pic32c/8.3.1/../../../../pic32c/lib/thumb/v6-m/nofp\libm-fast-emfloat.a(__aeabi_dadd.o)
                              d:/mplab x ide/xc32_v4.60/bin/bin/../../lib/gcc/pic32c/8.3.1/../../../../pic32c/lib/thumb/v6-m/nofp\libc-musl.a(__fmt_a.o) (__aeabi_dadd)
d:/mplab x ide/xc32_v4.60/bin/bin/../../lib/gcc/pic32c/8.3.1/../../../../pic32c/lib/thumb/v6-m/nofp\libm-fast-emfloat.a(__aeabi_dsub.o)
                              d:/mplab x ide/xc32_v4.60/bin/bin/../../lib/gcc/pic32c/8.3.1/../../../../pic32c/lib/thumb/v6-m/nofp\libc-musl.a(__fmt_a.o) (__aeabi_dsub)
d:/mplab x ide/xc32_v4.60/bin/bin/../../lib/gcc/pic32c/8.3.1/../../../../pic32c/lib/thumb/v6-m/nofp\libm-fast-emfloat.a(__aeabi_dmul_aux.o)
                              d:/mplab x ide/xc32_v4.60/bin/bin/../../lib/gcc/pic32c/8.3.1/../../../../pic32c/lib/thumb/v6-m/nofp\libc-musl.a(__fmt_a.o) (__aeabi_dmul)
d:/mplab x ide/xc32_v4.60/bin/bin/../../lib/gcc/pic32c/8.3.1/../../../../pic32c/lib/thumb/v6-m/nofp\libm-fast-emfloat.a(__aeabi_ddiv.o)
                              d:/mplab x ide/xc32_v4.60/bin/bin/../../lib/gcc/pic32c/8.3.1/../../../../pic32c/lib/thumb/v6-m/nofp\libc-musl.a(__fmt_a.o) (__aeabi_ddiv)
d:/mplab x ide/xc32_v4.60/bin/bin/../../lib/gcc/pic32c/8.3.1/../../../../pic32c/lib/thumb/v6-m/nofp\libm-fast-emfloat.a(__aeabi_dcmple.o)
                              d:/mplab x ide/xc32_v4.60/bin/bin/../../lib/gcc/pic32c/8.3.1/../../../../pic32c/lib/thumb/v6-m/nofp\libc-musl.a(__fmt_fp.o) (__aeabi_dcmple)
d:/mplab x ide/xc32_v4.60/bin/bin/../../lib/gcc/pic32c/8.3.1/../../../../pic32c/lib/thumb/v6-m/nofp\libm-fast-emfloat.a(__aeabi_dcmpeq.o)
                              d:/mplab x ide/xc32_v4.60/bin/bin/../../lib/gcc/pic32c/8.3.1/../../../../pic32c/lib/thumb/v6-m/nofp\libc-musl.a(__fmt_a.o) (__aeabi_dcmpeq)
d:/mplab x ide/xc32_v4.60/bin/bin/../../lib/gcc/pic32c/8.3.1/../../../../pic32c/lib/thumb/v6-m/nofp\libm-fast-emfloat.a(__aeabi_dcmpgt.o)
                              d:/mplab x ide/xc32_v4.60/bin/bin/../../lib/gcc/pic32c/8.3.1/../../../../pic32c/lib/thumb/v6-m/nofp\libc-musl.a(__fmt_fp.o) (__aeabi_dcmpgt)
d:/mplab x ide/xc32_v4.60/bin/bin/../../lib/gcc/pic32c/8.3.1/../../../../pic32c/lib/thumb/v6-m/nofp\libm-fast-emfloat.a(__aeabi_dcmplt.o)
                              d:/mplab x ide/xc32_v4.60/bin/bin/../../lib/gcc/pic32c/8.3.1/../../../../pic32c/lib/thumb/v6-m/nofp\libc-musl.a(__fmt_a.o) (__aeabi_dcmplt)
d:/mplab x ide/xc32_v4.60/bin/bin/../../lib/gcc/pic32c/8.3.1/../../../../pic32c/lib/thumb/v6-m/nofp\libm-fast-emfloat.a(__aeabi_d2iz.o)
                              d:/mplab x ide/xc32_v4.60/bin/bin/../../lib/gcc/pic32c/8.3.1/../../../../pic32c/lib/thumb/v6-m/nofp\libc-musl.a(__fmt_a.o) (__aeabi_d2iz)
d:/mplab x ide/xc32_v4.60/bin/bin/../../lib/gcc/pic32c/8.3.1/../../../../pic32c/lib/thumb/v6-m/nofp\libm-fast-emfloat.a(__aeabi_d2uiz.o)
                              d:/mplab x ide/xc32_v4.60/bin/bin/../../lib/gcc/pic32c/8.3.1/../../../../pic32c/lib/thumb/v6-m/nofp\libm-fast-emfloat.a(__aeabi_d2iz.o) (.L__aeabi_d2uiz_fast_entry)
d:/mplab x ide/xc32_v4.60/bin/bin/../../lib/gcc/pic32c/8.3.1/thumb/v6-m/nofp\libgcc.a(_udivsi3.o)
                              build/default/production/_ext/60165182/plib_can1.o (__aeabi_uidiv)
d:/mplab x ide/xc32_v4.60/bin/bin/../../lib/gcc/pic32c/8.3.1/thumb/v6-m/nofp\libgcc.a(_divsi3.o)
                              build/default/production/_ext/1096015630/Functions.o (__aeabi_idiv)
d:/mplab x ide/xc32_v4.60/bin/bin/../../lib/gcc/pic32c/8.3.1/thumb/v6-m/nofp\libgcc.a(_dvmd_tls.o)
                              d:/mplab x ide/xc32_v4.60/bin/bin/../../lib/gcc/pic32c/8.3.1/thumb/v6-m/nofp\libgcc.a(_udivsi3.o) (__aeabi_idiv0)
d:/mplab x ide/xc32_v4.60/bin/bin/../../lib/gcc/pic32c/8.3.1/thumb/v6-m/nofp\libgcc.a(_aeabi_ldivmod.o)
                              build/default/production/_ext/33404887/LinearRamp.o (__aeabi_ldivmod)
d:/mplab x ide/xc32_v4.60/bin/bin/../../lib/gcc/pic32c/8.3.1/thumb/v6-m/nofp\libgcc.a(_aeabi_uldivmod.o)
                              build/default/production/_ext/504274921/plib_sercom7_usart.o (__aeabi_uldivmod)
d:/mplab x ide/xc32_v4.60/bin/bin/../../lib/gcc/pic32c/8.3.1/thumb/v6-m/nofp\libgcc.a(_muldi3.o)
                              build/default/production/_ext/504274921/plib_sercom7_usart.o (__aeabi_lmul)
d:/mplab x ide/xc32_v4.60/bin/bin/../../lib/gcc/pic32c/8.3.1/thumb/v6-m/nofp\libgcc.a(_udivmoddi4.o)
                              d:/mplab x ide/xc32_v4.60/bin/bin/../../lib/gcc/pic32c/8.3.1/thumb/v6-m/nofp\libgcc.a(_aeabi_uldivmod.o) (__udivmoddi4)
d:/mplab x ide/xc32_v4.60/bin/bin/../../lib/gcc/pic32c/8.3.1/thumb/v6-m/nofp\libgcc.a(bpabi.o)
                              d:/mplab x ide/xc32_v4.60/bin/bin/../../lib/gcc/pic32c/8.3.1/thumb/v6-m/nofp\libgcc.a(_aeabi_ldivmod.o) (__gnu_ldivmod_helper)
d:/mplab x ide/xc32_v4.60/bin/bin/../../lib/gcc/pic32c/8.3.1/thumb/v6-m/nofp\libgcc.a(_lshrdi3.o)
                              d:/mplab x ide/xc32_v4.60/bin/bin/../../lib/gcc/pic32c/8.3.1/thumb/v6-m/nofp\libgcc.a(_udivmoddi4.o) (__aeabi_llsr)
d:/mplab x ide/xc32_v4.60/bin/bin/../../lib/gcc/pic32c/8.3.1/thumb/v6-m/nofp\libgcc.a(_ashldi3.o)
                              d:/mplab x ide/xc32_v4.60/bin/bin/../../lib/gcc/pic32c/8.3.1/thumb/v6-m/nofp\libgcc.a(_udivmoddi4.o) (__aeabi_llsl)
d:/mplab x ide/xc32_v4.60/bin/bin/../../lib/gcc/pic32c/8.3.1/thumb/v6-m/nofp\libgcc.a(_clzdi2.o)
                              d:/mplab x ide/xc32_v4.60/bin/bin/../../lib/gcc/pic32c/8.3.1/thumb/v6-m/nofp\libgcc.a(_udivmoddi4.o) (__clzdi2)
d:/mplab x ide/xc32_v4.60/bin/bin/../../lib/gcc/pic32c/8.3.1/thumb/v6-m/nofp\libgcc.a(_divdi3.o)
                              d:/mplab x ide/xc32_v4.60/bin/bin/../../lib/gcc/pic32c/8.3.1/thumb/v6-m/nofp\libgcc.a(bpabi.o) (__divdi3)
d:/mplab x ide/xc32_v4.60/bin/bin/../../lib/gcc/pic32c/8.3.1/thumb/v6-m/nofp\libgcc.a(_clzsi2.o)
                              d:/mplab x ide/xc32_v4.60/bin/bin/../../lib/gcc/pic32c/8.3.1/thumb/v6-m/nofp\libgcc.a(_clzdi2.o) (__clzsi2)
d:/mplab x ide/xc32_v4.60/bin/bin/../../lib/gcc/pic32c/8.3.1/../../../../pic32c/lib/thumb/v6-m/nofp\libc-size-musl.a(strcpy.o)
                              d:/mplab x ide/xc32_v4.60/bin/bin/../../lib/gcc/pic32c/8.3.1/../../../../pic32c/lib/thumb/v6-m/nofp\libc-musl.a(__fmt_a.o) (strcpy)
d:/mplab x ide/xc32_v4.60/bin/bin/../../lib/gcc/pic32c/8.3.1/../../../../pic32c/lib/thumb/v6-m/nofp\libc-size-musl.a(stpcpy.o)
                              d:/mplab x ide/xc32_v4.60/bin/bin/../../lib/gcc/pic32c/8.3.1/../../../../pic32c/lib/thumb/v6-m/nofp\libc-size-musl.a(strcpy.o) (__stpcpy)

Allocating common symbols
Common symbol       size              file

ad                  0x1               build/default/production/_ext/1360937237/Global_Vars.o
t                   0x4               build/default/production/_ext/1360937237/Global_Vars.o
io_tmc2209          0x4               build/default/production/_ext/1360937237/Global_Vars.o
decel_error_position
                    0x4               build/default/production/_ext/1360937237/Global_Vars.o
p                   0x4               build/default/production/_ext/1360937237/Global_Vars.o
v_temp              0x8               build/default/production/_ext/1360937237/Global_Vars.o
tmc2209_shadowRegister
                    0x200             build/default/production/_ext/2089947380/TMC2209.o
timestamp           0x8               build/default/production/_ext/1360937237/Global_Vars.o
trig_no             0x4               build/default/production/_ext/1360937237/Global_Vars.o
current_time        0x4               build/default/production/_ext/1360937237/Global_Vars.o
can_rx_int          0x1               build/default/production/_ext/1360937237/Global_Vars.o
s_curve_phase       0x1               build/default/production/_ext/1360937237/Global_Vars.o
oi                  0x4               build/default/production/_ext/1500443788/ext_flash.o
autofocus_variables
                    0xa8              build/default/production/_ext/1360937237/Global_Vars.o
c_time              0x4               build/default/production/_ext/1360937237/Global_Vars.o
stop_error_position
                    0x4               build/default/production/_ext/1360937237/Global_Vars.o
homing_v            0x8               build/default/production/_ext/1360937237/Global_Vars.o
move_done           0x1               build/default/production/_ext/1360937237/Global_Vars.o
adc_reading         0x2               build/default/production/_ext/1360937237/Global_Vars.o
move_given_trapezoidal_ramp
                    0x1               build/default/production/_ext/1360937237/Global_Vars.o
repeat_ramp         0x1               build/default/production/_ext/1360937237/Global_Vars.o
lim_edge_detection  0x1               build/default/production/_ext/1360937237/Global_Vars.o
open_loop           0xc               build/default/production/_ext/1360937237/Global_Vars.o
mot                 0x1               build/default/production/_ext/1360937237/Global_Vars.o
crc                 0x1               build/default/production/_ext/1360937237/Global_Vars.o
motor_dir_rev       0x1               build/default/production/_ext/1360937237/Global_Vars.o
io                  0x4               build/default/production/_ext/1500443788/ext_flash.o
appData             0x1               build/default/production/_ext/1360937237/app.o
axis_params         0x68              build/default/production/_ext/1360937237/Global_Vars.o
t_Position          0x4               build/default/production/_ext/1360937237/Global_Vars.o
axis_id             0x1               build/default/production/_ext/1360937237/Global_Vars.o
typ                 0x1               build/default/production/_ext/1360937237/Global_Vars.o
non_rep             0x1               build/default/production/_ext/1360937237/Global_Vars.o
gtron_limits        0x2               build/default/production/_ext/1360937237/Global_Vars.o
rParams             0x1e0             build/default/production/_ext/1360937237/Global_Vars.o
gFlash_mem_ptr      0x4               build/default/production/_ext/1500443788/ext_flash.o
xAPP_Tasks          0x4               build/default/production/_ext/1171490990/tasks.o
flash_tlv           0xc               build/default/production/_ext/1500443788/tlv_flash.o
extflash_io         0x4               build/default/production/_ext/1500443788/ext_flash.o
prev_time           0x4               build/default/production/_ext/1360937237/Global_Vars.o
v                   0x8               build/default/production/_ext/1360937237/Global_Vars.o
sysObj              0x8               build/default/production/_ext/1171490990/initialization.o
move_given_s_ramp   0x1               build/default/production/_ext/1360937237/Global_Vars.o
idx                 0x4               build/default/production/_ext/1360937237/Global_Vars.o
rfs_ping_rxvd       0x1               build/default/production/_ext/1360937237/Global_Vars.o
error_id            0x1               build/default/production/_ext/1500443788/tlv_flash.o
current_position    0x4               build/default/production/_ext/1360937237/Global_Vars.o
ramp_State          0x1               build/default/production/_ext/1360937237/Global_Vars.o
can_tx_frame        0x8               build/default/production/_ext/1500443788/ext_flash.o
data                0x4               build/default/production/_ext/1500443788/ext_flash.o
gblErrLvl           0x4               build/default/production/_ext/944882569/sys_debug.o
check_move_done     0x1               build/default/production/_ext/1360937237/Global_Vars.o
timer_flag          0x1               build/default/production/_ext/1360937237/Global_Vars.o
can_status          0x4               build/default/production/_ext/1360937237/Global_Vars.o
a_temp              0x8               build/default/production/_ext/1360937237/Global_Vars.o
param_id            0x1               build/default/production/_ext/1500443788/tlv_flash.o
traversal_tlv       0x8               build/default/production/_ext/1500443788/tlv_flash.o
message_Id          0x4               build/default/production/_ext/1500443788/ext_flash.o
x_axis_encoder_counters
                    0x1c              build/default/production/_ext/1360937237/Global_Vars.o
stop_velocity       0x4               build/default/production/_ext/1360937237/Global_Vars.o
can_rx_frame        0x8               build/default/production/_ext/1500443788/ext_flash.o
prev_trig_no        0x4               build/default/production/_ext/1360937237/Global_Vars.o
limit_variables     0x38              build/default/production/_ext/1360937237/Global_Vars.o
vel_struct          0x8               build/default/production/_ext/1360937237/Global_Vars.o
velocity_state      0x1               build/default/production/_ext/1360937237/Global_Vars.o
checksum            0x1               build/default/production/_ext/1360937237/Global_Vars.o
p_time              0x4               build/default/production/_ext/1360937237/Global_Vars.o
decel_velocity      0x4               build/default/production/_ext/1360937237/Global_Vars.o
prev_velocity_limit
                    0x4               build/default/production/_ext/1360937237/Global_Vars.o
move_done_check_num
                    0x4               build/default/production/_ext/1360937237/Global_Vars.o
cmd                 0x1               build/default/production/_ext/1360937237/Global_Vars.o
velocity_limit      0x4               build/default/production/_ext/1360937237/Global_Vars.o
value               0x4               build/default/production/_ext/1500443788/ext_flash.o
d:/mplab x ide/xc32_v4.60/bin/bin/../../lib/gcc/pic32c/8.3.1/../../../../pic32c/lib/thumb/v6-m/nofp\libpic32c.a(pic32_data_init_clear.o)
                              (__dinit_clear_needed)
d:/mplab x ide/xc32_v4.60/bin/bin/../../lib/gcc/pic32c/8.3.1/../../../../pic32c/lib/thumb/v6-m/nofp\libpic32c.a(pic32_data_init_copy.o)
                              (__dinit_copy_needed)

Microchip PIC32 Memory-Usage Report

ROM Program-Memory Usage
section                    address  length [bytes]      (dec)  Description
-------                 ----------  -------------------------  -----------
.vectors                         0           0xbc         188   
.text                         0xbc           0x20          32  App's exec code 
.text.xTaskCreate             0xdc          0x1d8         472   
.dinit                       0x2b4          0x1d0         464   
.text.CLOCK_Initialize       0x484          0x1c4         452   
.text.xTaskIncrementTic      0x648          0x188         392   
.text.prvTimerTask           0x7d0          0x188         392   
.text.xTaskResumeAll         0x958          0x158         344   
.text.xQueueSemaphoreTa      0xab0          0x136         310   
.text.EVSYS_Initialize       0xbe6            0x2           2   
.text.PORT_Initialize        0xbe8          0x12c         300   
.text.SERCOM7_USART_Wri      0xd14          0x104         260   
.text.xQueueGenericSend      0xe18          0x100         256   
.text.xQueueReceive          0xf18           0xf8         248   
.text.SERCOM7_USART_ISR     0x1010           0xec         236   
.text.SERCOM5_USART_ISR     0x10fc           0xec         236   
.text.SERCOM7_USART_ISR     0x11e8           0xe0         224   
.text.SERCOM5_USART_ISR     0x12c8           0xe0         224   
.text.xTaskRemoveFromEv     0x13a8           0xdc         220   
.text.vTaskSwitchContex     0x1484           0xd8         216   
.text.xQueueGenericRese     0x155c           0xb2         178   
.text.Console_UART_Task     0x160e            0x2           2   
.text.xTaskPriorityInhe     0x1610           0xac         172   
.text.EIC_Initialize        0x16bc           0xa4         164   
.text.pxPortInitialiseS     0x1760           0xa0         160   
.text.prvAddCurrentTask     0x1800           0xa0         160   
.text.SERCOM7_USART_Rea     0x18a0           0x94         148   
.text.pvPortMalloc          0x1934           0x90         144   
.text.SERCOM7_USART_Ini     0x19c4           0x88         136   
.text.SERCOM5_USART_Ini     0x1a4c           0x88         136   
.text.vTaskPriorityDisi     0x1ad4           0x88         136   
.text.prvUnlockQueue        0x1b5c           0x86         134   
.text.xQueueGenericCrea     0x1be2           0x7e         126   
.text.xTaskPriorityDisi     0x1c60           0x7c         124   
.text.NVIC_Initialize       0x1cdc           0x78         120   
.text.prvCopyDataToQueu     0x1d54           0x76         118   
.text.Dummy_Handler         0x1dca            0x2           2   
.text.vTaskStartSchedul     0x1dcc           0x74         116   
.text.SYS_CONSOLE_Initi     0x1e40           0x70         112   
.text.SYS_Initialize        0x1eb0           0x6c         108   
.text.EIC_InterruptHand     0x1f1c           0x60          96   
.text.xTaskCheckForTime     0x1f7c           0x5c          92   
.text.prvSampleTimeNow      0x1fd8           0x5c          92   
.text.__libc_start_init     0x2034           0x5c          92   
.text.CAN1_Initialize       0x2090           0x54          84   
.text.SERCOM7_USART_Int     0x20e4           0x54          84   
.text.SERCOM5_USART_Int     0x2138           0x54          84   
.text.ADC0_Initialize       0x218c           0x50          80   
.text.vQueueWaitForMess     0x21dc           0x50          80   
.text.prvCheckTasksWait     0x222c           0x50          80   
.text.prvCheckForValidL     0x227c           0x50          80   
.text.SERCOM7_USART_ISR     0x22cc           0x4c          76   
.text.SERCOM5_USART_ISR     0x2318           0x4c          76   
.text                       0x2364           0x48          72  App's exec code 
.text.Reset_Handler         0x23ac           0x48          72   
.text.prvInsertTimerInA     0x23f4           0x48          72   
.text.TC2_TimerInitiali     0x243c           0x44          68   
.text.TC4_TimerInitiali     0x2480           0x44          68   
.text.xPortStartSchedul     0x24c4           0x44          68   
.text.SERCOM7_USART_Wri     0x2508            0x8           8   
.text.xPortPendSVHandle     0x2510           0x44          68   
.text.Console_UART_Read     0x2554           0x40          64   
.text.Console_UART_Writ     0x2594           0x40          64   
.text.vTaskPlaceOnEvent     0x25d4           0x40          64   
.text.prvProcessExpired     0x2614           0x3c          60   
.text.xTimerCreateTimer     0x2650           0x3c          60   
.text.Console_UART_Writ     0x268c           0x38          56   
.text.Console_UART_Writ     0x26c4           0x38          56   
.text.Console_UART_Read     0x26fc           0x38          56   
.text.Console_UART_Read     0x2734           0x38          56   
.text.__pic32c_data_ini     0x276c           0x38          56   
.text.TC2_TimerInterrup     0x27a4           0x34          52   
.text.TC4_TimerInterrup     0x27d8           0x34          52   
.text.vListInsert           0x280c           0x2e          46   
.text.NonMaskableInt_Ha     0x283a            0x2           2   
.text.SERCOM3_SPI_Initi     0x283c           0x2c          44   
.text.SERCOM0_SPI_Initi     0x2868           0x2c          44   
.rodata.sysConsoleUARTD     0x2894           0x2c          44   
.text.SYS_Tasks             0x28c0           0x2c          44   
.text.prvResetNextTaskU     0x28ec           0x2c          44   
.text.prvReloadTimer        0x2918           0x2a          42   
.text.OSAL_MUTEX_Unlock     0x2942           0x28          40   
.text.HardFault_Handler     0x296a            0x2           2   
.text.vPortSetupTimerIn     0x296c           0x28          40   
.rodata.prvTimerTask        0x2994           0x28          40   
.text.OSAL_MUTEX_Create     0x29bc           0x24          36   
.text.Console_UART_Init     0x29e0           0x24          36   
.text.xPortSysTickHandl     0x2a04           0x24          36   
.text.TC2_7_Handler         0x2a28            0x8           8   
.text.vRestoreContextOf     0x2a30           0x24          36   
.text.uxListRemove          0x2a54           0x24          36   
.text.prvCopyDataFromQu     0x2a78           0x24          36   
.text.xQueueCreateMutex     0x2a9c           0x24          36   
.text.OSAL_MUTEX_Lock       0x2ac0           0x22          34   
.text.main                  0x2ae2            0xe          14   
.text.vPortSVCHandler       0x2af0           0x20          32   
.text.__dinit_copy          0x2b10           0x1e          30   
.text.Dummy_App_Func        0x2b2e            0x2           2   
.text.SERCOM7_USART_Wri     0x2b30           0x1c          28   
.text.SERCOM7_USART_Rea     0x2b4c           0x1c          28   
.text.SERCOM5_USART_Wri     0x2b68           0x1c          28   
.text.SERCOM5_USART_Rea     0x2b84           0x1c          28   
.text.SYS_DEBUG_Initial     0x2ba0           0x1c          28   
.text.vTaskPlaceOnEvent     0x2bbc           0x1c          28   
.rodata.sysConsole0UART     0x2bd8           0x18          24   
.text.vPortYield            0x2bf0           0x18          24   
.text.vPortEnterCritica     0x2c08           0x18          24   
.text.vPortExitCritical     0x2c20           0x18          24   
.text.prvIdleTask           0x2c38           0x18          24   
.text.vTaskInternalSetT     0x2c50           0x18          24   
.text.vListInitialise       0x2c68           0x16          22   
.text.vPortFree             0x2c7e            0x2           2   
.text.SERCOM7_USART_Rea     0x2c80           0x14          20   
.text.SERCOM7_USART_Wri     0x2c94           0x14          20   
.text.SERCOM5_USART_Wri     0x2ca8           0x14          20   
.text.Console_UART_Stat     0x2cbc           0x14          20   
.text.Console_UART_Reso     0x2cd0           0x14          20   
.text.vPortSVCHandler_C     0x2ce4           0x14          20   
.text.prvIsQueueEmpty       0x2cf8           0x14          20   
.text.pvTaskIncrementMu     0x2d0c           0x14          20   
.text.APP_Tasks             0x2d20           0x14          20   
.rodata                     0x2d34           0x14          20  Read-only const 
.text.memcpy                0x2d48           0x14          20   
.text.memset                0x2d5c           0x14          20   
.text.__init_stdout         0x2d70           0x14          20   
.text.prvTaskExitError      0x2d84           0x12          18   
.text.__dinit_clear         0x2d96           0x12          18   
.text.SERCOM1_7_Handler     0x2da8            0x8           8   
.text.vStartFirstTask       0x2db0           0x10          16   
.text.vTaskSuspendAll       0x2dc0           0x10          16   
.text.__init_stdio          0x2dd0           0x10          16   
.text.NVMCTRL_Initializ     0x2de0            0xc          12   
.rodata.debugInit           0x2dec            0xc          12   
.rodata.sysConsole0Init     0x2df8            0xc          12   
.rodata.SYS_Tasks.str1.     0x2e04            0xc          12   
.text.xTaskGetTickCount     0x2e10            0xc          12   
.text.vTaskMissedYield      0x2e1c            0xc          12   
.text.APP_Initialize        0x2e28            0xc          12   
.text.lAPP_Tasks            0x2e34            0x8           8   
.text.ulSetInterruptMas     0x2e3c            0x8           8   
.rodata.xTimerCreateTim     0x2e44            0x8           8   
.text.__dummy               0x2e4c            0x8           8   
.text.vClearInterruptMa     0x2e54            0x6           6   
.text.vListInitialiseIt     0x2e5a            0x6           6   
.text.Console_UART_Flus     0x2e60            0x4           4   
.rodata.sysConsole0UART     0x2e64            0x4           4   
.text.vApplicationStack     0x2e68            0x4           4   
.text.vApplicationMallo     0x2e6c            0x4           4   
.text.__dummy_decompres     0x2e70            0x4           4   
.text.vApplicationDaemo     0x2e74            0x2           2   
.text.__dummy_init_tls      0x2e76            0x2           2   
.text.__dummy               0x2e78            0x2           2   
.text.__dummy               0x2e7a            0x2           2   
      Total ROM used  :      0x2e7c       11900  4.5% of 0x40000
        --------------------------------------------------------------------------
         Total Program Memory used  :      0x2e7c       11900  4.5% of 0x40000
        --------------------------------------------------------------------------


RAM Data-Memory Usage
section                    address  length [bytes]      (dec)  Description
-------                 ----------  -------------------------  -----------
.bss                    0x20000000           0x14          20  Uninitialized data 
.bss.ucHeap             0x20000014         0x4000       16384   
.bss.SERCOM5_USART_Read 0x20004014          0x100         256   
.bss.SERCOM5_USART_Writ 0x20004114          0x100         256   
.bss.eicCallbackObject  0x20004214           0xc0         192   
.bss.SERCOM7_USART_Read 0x200042d4           0x80         128   
.bss.SERCOM7_USART_Writ 0x20004354           0x80         128   
.bss.pxReadyTasksLists  0x200043d4           0x64         100   
.bss                    0x20004438           0x50          80  Uninitialized data 
.bss.sercom7USARTObj    0x20004488           0x40          64   
.bss.sercom5USARTObj    0x200044c8           0x40          64   
.bss                    0x20004508           0x1c          28  Uninitialized data 
.bss.can1Obj            0x20004524           0x1c          28   
.bss.xDelayedTaskList1  0x20004540           0x14          20   
.bss.xDelayedTaskList2  0x20004554           0x14          20   
.bss.xPendingReadyList  0x20004568           0x14          20   
.bss.xSuspendedTaskList 0x2000457c           0x14          20   
.bss.xTasksWaitingTermi 0x20004590           0x14          20   
.bss.xActiveTimerList1  0x200045a4           0x14          20   
.bss.xActiveTimerList2  0x200045b8           0x14          20   
.bss.consoleDeviceInsta 0x200045cc            0xc          12   
.bss.gConsoleUartData   0x200045d8            0xc          12   
.bss.TC2_CallbackObject 0x200045e4            0x8           8   
.bss.TC4_CallbackObject 0x200045ec            0x8           8   
.bss                    0x200045f4            0x8           8  Uninitialized data 
.bss.consolePrintBuffer 0x200045fc            0x4           4   
.bss.sysDebugInstance   0x20004600            0x4           4   
.bss.pucAlignedHeap.481 0x20004604            0x4           4   
.bss.xNextFreeByte      0x20004608            0x4           4   
.bss.pxCurrentTCB       0x2000460c            0x4           4   
.bss.pxDelayedTaskList  0x20004610            0x4           4   
.bss.pxOverflowDelayedT 0x20004614            0x4           4   
.bss.uxCurrentNumberOfT 0x20004618            0x4           4   
.bss.uxDeletedTasksWait 0x2000461c            0x4           4   
.bss.uxSchedulerSuspend 0x20004620            0x4           4   
.bss.uxTaskNumber       0x20004624            0x4           4   
.bss.uxTopReadyPriority 0x20004628            0x4           4   
.bss.xIdleTaskHandles   0x2000462c            0x4           4   
.bss.xNextTaskUnblockTi 0x20004630            0x4           4   
.bss.xNumOfOverflows    0x20004634            0x4           4   
.bss.xPendedTicks       0x20004638            0x4           4   
.bss.xSchedulerRunning  0x2000463c            0x4           4   
.bss.xTickCount         0x20004640            0x4           4   
.bss.xYieldPendings     0x20004644            0x4           4   
.bss.pxCurrentTimerList 0x20004648            0x4           4   
.bss.pxOverflowTimerLis 0x2000464c            0x4           4   
.bss.xLastTime.5109     0x20004650            0x4           4   
.bss.xTimerQueue        0x20004654            0x4           4   
.bss.xTimerTaskHandle   0x20004658            0x4           4   
.bss                    0x2000465c            0x4           4  Uninitialized data 
.bss                    0x20004660            0x4           4  Uninitialized data 
.bss.isConsoleMutexCrea 0x20004664            0x1           1   
.data                   0x20004668           0x20          32  Initialized data 
.data.ulCriticalNesting 0x20004688            0x4           4   
.data.uxTopUsedPriority 0x2000468c            0x4           4   
         Total RAM used  :      0x468d       18061  55.1% of 0x8000
        --------------------------------------------------------------------------
            Total Data Memory used  :      0x468d       18061  55.1% of 0x8000
        --------------------------------------------------------------------------


Dynamic Data-Memory Reservation
section                    address  length [bytes]      (dec)  Description
-------                 ----------  -------------------------  -----------
heap                    0x20004698          0x200         512  Reserved for heap 
stack                   0x200048b0         0x3748       14152  Reserved for stack 

        --------------------------------------------------------------------------

Microchip PIC32 Memory-Usage Report By Module

        text        data         bss         dec         hex    basename                     filename
--------------------------------------------------------------------------------
         146           0       16392       16538        409a    heap_1.o                 build/default/production/_ext/1665200909/heap_1.o
        2768           4         260        3032         bd8    FreeRTOS_tasks.o         build/default/production/_ext/404212886/FreeRTOS_tasks.o
        1268           0         320        1588         634    plib_sercom7_usart.o     build/default/production/_ext/504274921/plib_sercom7_usart.o
        1542           0           0        1542         606    queue.o                  build/default/production/_ext/404212886/queue.o
         832           0         576        1408         580    plib_sercom5_usart.o     build/default/production/_ext/504274921/plib_sercom5_usart.o
         846           0          60         906         38a    timers.o                 build/default/production/_ext/404212886/timers.o
         478           0          12         490         1ea    sys_console_uart.o       build/default/production/_ext/1832805299/sys_console_uart.o
         464           0           0         464         1d0    data_init                data_init
         452           0           0         452         1c4    plib_clock.o             build/default/production/_ext/1984496892/plib_clock.o
         260           0         192         452         1c4    plib_eic.o               build/default/production/_ext/60167341/plib_eic.o
         414           4           0         418         1a2    port.o                   build/default/production/_ext/1624415188/port.o
         300           0           0         300         12c    plib_port.o              build/default/production/_ext/1865521619/plib_port.o
         206           0           0         206          ce    interrupts.o             build/default/production/_ext/1171490990/interrupts.o
         168           0           8         176          b0    initialization.o         build/default/production/_ext/1171490990/initialization.o
         166           0           0         166          a6    portasm.o                build/default/production/_ext/1624415188/portasm.o
         112           0          17         129          81    sys_console.o            build/default/production/_ext/1832805299/sys_console.o
         120           0           8         128          80    plib_tc2.o               build/default/production/_ext/829342655/plib_tc2.o
         120           0           8         128          80    plib_tc4.o               build/default/production/_ext/829342655/plib_tc4.o
         120           0           0         120          78    plib_nvic.o              build/default/production/_ext/1865468468/plib_nvic.o
          84           0          28         112          70    plib_can1.o              build/default/production/_ext/60165182/plib_can1.o
         110           0           0         110          6e    list.o                   build/default/production/_ext/404212886/list.o
         110           0           0         110          6e    osal_freertos.o          build/default/production/_ext/1529399856/osal_freertos.o
          80           0          28         108          6c    crtbegin.o               d:/mplab x ide/xc32_v4.60/bin/bin/../../lib/gcc/pic32c/8.3.1/thumb/v6-m/nofp/crtbegin.o
          94           0           0          94          5e    __libc_start_main.o      libc-musl.a
          82           0           4          86          56    data_init.o              libpic32c.a
           0           0          80          80          50    libc.o                   libc-musl.a
          80           0           0          80          50    plib_adc0.o              build/default/production/_ext/60163342/plib_adc0.o
          74           0           0          74          4a    startup_xc32.o           build/default/production/_ext/1171490990/startup_xc32.o
          28          32           8          68          44    stdout.o                 libc-musl.a
          64           0           4          68          44    tasks.o                  build/default/production/_ext/1171490990/tasks.o
          44           0           0          44          2c    plib_sercom3_spi_master.obuild/default/production/_ext/17022449/plib_sercom3_spi_master.o
          44           0           0          44          2c    plib_sercom0_spi_master.obuild/default/production/_ext/17022449/plib_sercom0_spi_master.o
          28           0           8          36          24    sys_debug.o              build/default/production/_ext/944882569/sys_debug.o
          32           0           1          33          21    app.o                    build/default/production/_ext/1360937237/app.o
          30           0           0          30          1e    pic32_data_init_copy.o   libpic32c.a
          20           0           0          20          14    memset.o                 libc-size-musl.a
          20           0           0          20          14    memcpy.o                 libc-size-musl.a
          18           0           0          18          12    pic32_data_init_clear.o  libpic32c.a
          18           0           0          18          12    __init_stdio.o           libc-musl.a
          16           0           0          16          10    crtn.o                   d:/mplab x ide/xc32_v4.60/bin/bin/../../lib/gcc/pic32c/8.3.1/thumb/v6-m/nofp/crtn.o
          14           0           0          14           e    main.o                   build/default/production/_ext/1360937237/main.o
          12           0           0          12           c    plib_nvmctrl.o           build/default/production/_ext/1593096446/plib_nvmctrl.o
           8           0           0           8           8    crti.o                   d:/mplab x ide/xc32_v4.60/bin/bin/../../lib/gcc/pic32c/8.3.1/thumb/v6-m/nofp/crti.o
           8           0           0           8           8    freertos_hooks.o         build/default/production/_ext/1171490990/freertos_hooks.o
           0           0           4           4           4    __environ.o              libc-musl.a
           4           0           0           4           4    exceptions.o             build/default/production/_ext/1171490990/exceptions.o
           2           0           0           2           2    freertos_daemon.o        build/default/production/_ext/1360937237/freertos_daemon.o
           2           0           0           2           2    plib_evsys.o             build/default/production/_ext/1986646378/plib_evsys.o
           0           0           0           3           3    padding                  padding
--------------------------------------------------------------------------------
       11908          40       18018       29969        7511    dist/default/production/NextGen_GTron_AxC.X.production.elf


Discarded input sections

 .text          0x0000000000000000        0x0 d:/mplab x ide/xc32_v4.60/bin/bin/../../lib/gcc/pic32c/8.3.1/thumb/v6-m/nofp/crti.o
 .data          0x0000000000000000        0x0 d:/mplab x ide/xc32_v4.60/bin/bin/../../lib/gcc/pic32c/8.3.1/thumb/v6-m/nofp/crti.o
 .bss           0x0000000000000000        0x0 d:/mplab x ide/xc32_v4.60/bin/bin/../../lib/gcc/pic32c/8.3.1/thumb/v6-m/nofp/crti.o
 .xc_stack_usage.hdr
                0x0000000000000000        0xe d:/mplab x ide/xc32_v4.60/bin/bin/../../lib/gcc/pic32c/8.3.1/thumb/v6-m/nofp/crti.o
 .xc_stack_usage
                0x0000000000000000       0x26 d:/mplab x ide/xc32_v4.60/bin/bin/../../lib/gcc/pic32c/8.3.1/thumb/v6-m/nofp/crti.o
 .data          0x0000000000000000        0x4 d:/mplab x ide/xc32_v4.60/bin/bin/../../lib/gcc/pic32c/8.3.1/thumb/v6-m/nofp/crtbegin.o
 .xc_stack_usage
                0x0000000000000000       0x3c d:/mplab x ide/xc32_v4.60/bin/bin/../../lib/gcc/pic32c/8.3.1/thumb/v6-m/nofp/crtbegin.o
 .xc_stack_usage.hdr
                0x0000000000000000        0xe d:/mplab x ide/xc32_v4.60/bin/bin/../../lib/gcc/pic32c/8.3.1/thumb/v6-m/nofp/crtbegin.o
 .text          0x0000000000000000        0x0 build/default/production/_ext/1529399856/osal_freertos.o
 .data          0x0000000000000000        0x0 build/default/production/_ext/1529399856/osal_freertos.o
 .bss           0x0000000000000000        0x0 build/default/production/_ext/1529399856/osal_freertos.o
 .text.OSAL_CRIT_Enter
                0x0000000000000000       0x1a build/default/production/_ext/1529399856/osal_freertos.o
 .text.OSAL_CRIT_Leave
                0x0000000000000000       0x18 build/default/production/_ext/1529399856/osal_freertos.o
 .text.OSAL_SEM_Create
                0x0000000000000000       0x5a build/default/production/_ext/1529399856/osal_freertos.o
 .text.OSAL_SEM_Delete
                0x0000000000000000       0x12 build/default/production/_ext/1529399856/osal_freertos.o
 .text.OSAL_SEM_Pend
                0x0000000000000000       0x22 build/default/production/_ext/1529399856/osal_freertos.o
 .text.OSAL_SEM_Post
                0x0000000000000000       0x28 build/default/production/_ext/1529399856/osal_freertos.o
 .text.OSAL_SEM_PostISR
                0x0000000000000000       0x44 build/default/production/_ext/1529399856/osal_freertos.o
 .text.OSAL_SEM_GetCount
                0x0000000000000000       0x10 build/default/production/_ext/1529399856/osal_freertos.o
 .text.OSAL_MUTEX_Delete
                0x0000000000000000       0x20 build/default/production/_ext/1529399856/osal_freertos.o
 .text.OSAL_Malloc
                0x0000000000000000        0x8 build/default/production/_ext/1529399856/osal_freertos.o
 .text.OSAL_Free
                0x0000000000000000        0x8 build/default/production/_ext/1529399856/osal_freertos.o
 .text.OSAL_Initialize
                0x0000000000000000        0x4 build/default/production/_ext/1529399856/osal_freertos.o
 .text          0x0000000000000000        0x0 build/default/production/_ext/60163342/plib_adc0.o
 .data          0x0000000000000000        0x0 build/default/production/_ext/60163342/plib_adc0.o
 .bss           0x0000000000000000        0x0 build/default/production/_ext/60163342/plib_adc0.o
 .text.ADC0_Enable
                0x0000000000000000       0x1c build/default/production/_ext/60163342/plib_adc0.o
 .text.ADC0_Disable
                0x0000000000000000       0x1c build/default/production/_ext/60163342/plib_adc0.o
 .text.ADC0_ChannelSelect
                0x0000000000000000       0x18 build/default/production/_ext/60163342/plib_adc0.o
 .text.ADC0_ConversionStart
                0x0000000000000000       0x1c build/default/production/_ext/60163342/plib_adc0.o
 .text.ADC0_ConversionSequenceIsFinished
                0x0000000000000000       0x10 build/default/production/_ext/60163342/plib_adc0.o
 .text.ADC0_ComparisonWindowSet
                0x0000000000000000       0x20 build/default/production/_ext/60163342/plib_adc0.o
 .text.ADC0_WindowModeSet
                0x0000000000000000       0x24 build/default/production/_ext/60163342/plib_adc0.o
 .text.ADC0_ConversionResultGet
                0x0000000000000000        0xc build/default/production/_ext/60163342/plib_adc0.o
 .text.ADC0_InterruptsClear
                0x0000000000000000        0xc build/default/production/_ext/60163342/plib_adc0.o
 .text.ADC0_InterruptsEnable
                0x0000000000000000        0xc build/default/production/_ext/60163342/plib_adc0.o
 .text.ADC0_InterruptsDisable
                0x0000000000000000        0xc build/default/production/_ext/60163342/plib_adc0.o
 .text.ADC0_ConversionStatusGet
                0x0000000000000000       0x18 build/default/production/_ext/60163342/plib_adc0.o
 .text          0x0000000000000000        0x0 build/default/production/_ext/60165182/plib_can1.o
 .data          0x0000000000000000        0x0 build/default/production/_ext/60165182/plib_can1.o
 .bss           0x0000000000000000        0x0 build/default/production/_ext/60165182/plib_can1.o
 .text.CAN1_MessageTransmitFifo
                0x0000000000000000       0x44 build/default/production/_ext/60165182/plib_can1.o
 .text.CAN1_TxFifoFreeLevelGet
                0x0000000000000000       0x10 build/default/production/_ext/60165182/plib_can1.o
 .text.CAN1_TxBufferIsBusy
                0x0000000000000000       0x14 build/default/production/_ext/60165182/plib_can1.o
 .text.CAN1_TxEventFifoRead
                0x0000000000000000       0x60 build/default/production/_ext/60165182/plib_can1.o
 .text.CAN1_TxEventFifoFillLevelGet
                0x0000000000000000       0x10 build/default/production/_ext/60165182/plib_can1.o
 .text.CAN1_MessageReceiveFifo
                0x0000000000000000       0xc4 build/default/production/_ext/60165182/plib_can1.o
 .text.CAN1_RxFifoFillLevelGet
                0x0000000000000000       0x20 build/default/production/_ext/60165182/plib_can1.o
 .text.CAN1_ErrorGet
                0x0000000000000000       0x2c build/default/production/_ext/60165182/plib_can1.o
 .text.CAN1_ErrorCountGet
                0x0000000000000000       0x14 build/default/production/_ext/60165182/plib_can1.o
 .text.CAN1_InterruptGet
                0x0000000000000000       0x14 build/default/production/_ext/60165182/plib_can1.o
 .text.CAN1_InterruptClear
                0x0000000000000000        0xc build/default/production/_ext/60165182/plib_can1.o
 .text.CAN1_MessageRAMConfigSet
                0x0000000000000000       0x90 build/default/production/_ext/60165182/plib_can1.o
 .text.CAN1_SleepModeEnter
                0x0000000000000000       0x1c build/default/production/_ext/60165182/plib_can1.o
 .text.CAN1_SleepModeExit
                0x0000000000000000       0x30 build/default/production/_ext/60165182/plib_can1.o
 .text.CAN1_BitTimingCalculationGet
                0x0000000000000000       0x8c build/default/production/_ext/60165182/plib_can1.o
 .text.CAN1_BitTimingSet
                0x0000000000000000       0x8c build/default/production/_ext/60165182/plib_can1.o
 .text          0x0000000000000000        0x0 build/default/production/_ext/1984496892/plib_clock.o
 .data          0x0000000000000000        0x0 build/default/production/_ext/1984496892/plib_clock.o
 .bss           0x0000000000000000        0x0 build/default/production/_ext/1984496892/plib_clock.o
 .text          0x0000000000000000        0x0 build/default/production/_ext/60167341/plib_eic.o
 .data          0x0000000000000000        0x0 build/default/production/_ext/60167341/plib_eic.o
 .bss           0x0000000000000000        0x0 build/default/production/_ext/60167341/plib_eic.o
 .text.EIC_InterruptEnable
                0x0000000000000000       0x10 build/default/production/_ext/60167341/plib_eic.o
 .text.EIC_InterruptDisable
                0x0000000000000000       0x10 build/default/production/_ext/60167341/plib_eic.o
 .text.EIC_CallbackRegister
                0x0000000000000000       0x28 build/default/production/_ext/60167341/plib_eic.o
 .text          0x0000000000000000        0x0 build/default/production/_ext/1986646378/plib_evsys.o
 .data          0x0000000000000000        0x0 build/default/production/_ext/1986646378/plib_evsys.o
 .bss           0x0000000000000000        0x0 build/default/production/_ext/1986646378/plib_evsys.o
 .text          0x0000000000000000        0x0 build/default/production/_ext/1865468468/plib_nvic.o
 .data          0x0000000000000000        0x0 build/default/production/_ext/1865468468/plib_nvic.o
 .bss           0x0000000000000000        0x0 build/default/production/_ext/1865468468/plib_nvic.o
 .text.NVIC_INT_Enable
                0x0000000000000000        0x8 build/default/production/_ext/1865468468/plib_nvic.o
 .text.NVIC_INT_Disable
                0x0000000000000000       0x12 build/default/production/_ext/1865468468/plib_nvic.o
 .text.NVIC_INT_Restore
                0x0000000000000000       0x14 build/default/production/_ext/1865468468/plib_nvic.o
 .text.NVIC_INT_SourceDisable
                0x0000000000000000       0x3c build/default/production/_ext/1865468468/plib_nvic.o
 .text.NVIC_INT_SourceRestore
                0x0000000000000000       0x1c build/default/production/_ext/1865468468/plib_nvic.o
 .text          0x0000000000000000        0x0 build/default/production/_ext/1593096446/plib_nvmctrl.o
 .data          0x0000000000000000        0x0 build/default/production/_ext/1593096446/plib_nvmctrl.o
 .bss           0x0000000000000000        0x0 build/default/production/_ext/1593096446/plib_nvmctrl.o
 .text.NVMCTRL_CacheInvalidate
                0x0000000000000000       0x10 build/default/production/_ext/1593096446/plib_nvmctrl.o
 .text.NVMCTRL_RWWEEPROM_Read
                0x0000000000000000       0x10 build/default/production/_ext/1593096446/plib_nvmctrl.o
 .text.NVMCTRL_RWWEEPROM_PageWrite
                0x0000000000000000       0x28 build/default/production/_ext/1593096446/plib_nvmctrl.o
 .text.NVMCTRL_RWWEEPROM_RowErase
                0x0000000000000000       0x18 build/default/production/_ext/1593096446/plib_nvmctrl.o
 .text.NVMCTRL_Read
                0x0000000000000000       0x10 build/default/production/_ext/1593096446/plib_nvmctrl.o
 .text.NVMCTRL_PageBufferWrite
                0x0000000000000000       0x14 build/default/production/_ext/1593096446/plib_nvmctrl.o
 .text.NVMCTRL_PageBufferCommit
                0x0000000000000000       0x30 build/default/production/_ext/1593096446/plib_nvmctrl.o
 .text.NVMCTRL_PageWrite
                0x0000000000000000       0x28 build/default/production/_ext/1593096446/plib_nvmctrl.o
 .text.NVMCTRL_RowErase
                0x0000000000000000       0x18 build/default/production/_ext/1593096446/plib_nvmctrl.o
 .text.NVMCTRL_USER_ROW_PageWrite
                0x0000000000000000       0x38 build/default/production/_ext/1593096446/plib_nvmctrl.o
 .text.NVMCTRL_USER_ROW_RowErase
                0x0000000000000000       0x2c build/default/production/_ext/1593096446/plib_nvmctrl.o
 .text.NVMCTRL_ErrorGet
                0x0000000000000000       0x18 build/default/production/_ext/1593096446/plib_nvmctrl.o
 .text.NVMCTRL_IsBusy
                0x0000000000000000       0x14 build/default/production/_ext/1593096446/plib_nvmctrl.o
 .text.NVMCTRL_RegionLock
                0x0000000000000000       0x14 build/default/production/_ext/1593096446/plib_nvmctrl.o
 .text.NVMCTRL_RegionUnlock
                0x0000000000000000       0x14 build/default/production/_ext/1593096446/plib_nvmctrl.o
 .text.NVMCTRL_SecurityBitSet
                0x0000000000000000       0x10 build/default/production/_ext/1593096446/plib_nvmctrl.o
 .text          0x0000000000000000        0x0 build/default/production/_ext/1865521619/plib_port.o
 .data          0x0000000000000000        0x0 build/default/production/_ext/1865521619/plib_port.o
 .bss           0x0000000000000000        0x0 build/default/production/_ext/1865521619/plib_port.o
 .text.PORT_GroupRead
                0x0000000000000000        0x4 build/default/production/_ext/1865521619/plib_port.o
 .text.PORT_GroupWrite
                0x0000000000000000        0xc build/default/production/_ext/1865521619/plib_port.o
 .text.PORT_GroupLatchRead
                0x0000000000000000        0x4 build/default/production/_ext/1865521619/plib_port.o
 .text.PORT_GroupSet
                0x0000000000000000        0x4 build/default/production/_ext/1865521619/plib_port.o
 .text.PORT_GroupClear
                0x0000000000000000        0x4 build/default/production/_ext/1865521619/plib_port.o
 .text.PORT_GroupToggle
                0x0000000000000000        0x4 build/default/production/_ext/1865521619/plib_port.o
 .text.PORT_GroupInputEnable
                0x0000000000000000       0x2a build/default/production/_ext/1865521619/plib_port.o
 .text.PORT_GroupOutputEnable
                0x0000000000000000        0x4 build/default/production/_ext/1865521619/plib_port.o
 .text.PORT_PinPeripheralFunctionConfig
                0x0000000000000000       0x46 build/default/production/_ext/1865521619/plib_port.o
 .text.PORT_PinGPIOConfig
                0x0000000000000000       0x1e build/default/production/_ext/1865521619/plib_port.o
 .text          0x0000000000000000        0x0 build/default/production/_ext/1865585090/plib_rstc.o
 .data          0x0000000000000000        0x0 build/default/production/_ext/1865585090/plib_rstc.o
 .bss           0x0000000000000000        0x0 build/default/production/_ext/1865585090/plib_rstc.o
 .text.RSTC_ResetCauseGet
                0x0000000000000000        0xc build/default/production/_ext/1865585090/plib_rstc.o
 .debug_info    0x0000000000000000       0xf3 build/default/production/_ext/1865585090/plib_rstc.o
 .debug_abbrev  0x0000000000000000       0x94 build/default/production/_ext/1865585090/plib_rstc.o
 .debug_aranges
                0x0000000000000000       0x20 build/default/production/_ext/1865585090/plib_rstc.o
 .debug_ranges  0x0000000000000000       0x10 build/default/production/_ext/1865585090/plib_rstc.o
 .debug_line    0x0000000000000000       0xef build/default/production/_ext/1865585090/plib_rstc.o
 .debug_str     0x0000000000000000      0x2ec build/default/production/_ext/1865585090/plib_rstc.o
 .comment       0x0000000000000000       0x2c build/default/production/_ext/1865585090/plib_rstc.o
 .debug_frame   0x0000000000000000       0x20 build/default/production/_ext/1865585090/plib_rstc.o
 .ARM.attributes
                0x0000000000000000       0x2c build/default/production/_ext/1865585090/plib_rstc.o
 .text          0x0000000000000000        0x0 build/default/production/_ext/17022449/plib_sercom3_spi_master.o
 .data          0x0000000000000000        0x0 build/default/production/_ext/17022449/plib_sercom3_spi_master.o
 .bss           0x0000000000000000        0x0 build/default/production/_ext/17022449/plib_sercom3_spi_master.o
 .text.SERCOM3_SPI_TransferSetup
                0x0000000000000000       0x90 build/default/production/_ext/17022449/plib_sercom3_spi_master.o
 .text.SERCOM3_SPI_IsTransmitterBusy
                0x0000000000000000       0x14 build/default/production/_ext/17022449/plib_sercom3_spi_master.o
 .text.SERCOM3_SPI_WriteRead
                0x0000000000000000      0x1ac build/default/production/_ext/17022449/plib_sercom3_spi_master.o
 .text.SERCOM3_SPI_Write
                0x0000000000000000        0xc build/default/production/_ext/17022449/plib_sercom3_spi_master.o
 .text.SERCOM3_SPI_Read
                0x0000000000000000       0x10 build/default/production/_ext/17022449/plib_sercom3_spi_master.o
 .text          0x0000000000000000        0x0 build/default/production/_ext/17022449/plib_sercom0_spi_master.o
 .data          0x0000000000000000        0x0 build/default/production/_ext/17022449/plib_sercom0_spi_master.o
 .bss           0x0000000000000000        0x0 build/default/production/_ext/17022449/plib_sercom0_spi_master.o
 .text.SERCOM0_SPI_TransferSetup
                0x0000000000000000       0x90 build/default/production/_ext/17022449/plib_sercom0_spi_master.o
 .text.SERCOM0_SPI_IsTransmitterBusy
                0x0000000000000000       0x14 build/default/production/_ext/17022449/plib_sercom0_spi_master.o
 .text.SERCOM0_SPI_WriteRead
                0x0000000000000000      0x1ac build/default/production/_ext/17022449/plib_sercom0_spi_master.o
 .text.SERCOM0_SPI_Write
                0x0000000000000000        0xc build/default/production/_ext/17022449/plib_sercom0_spi_master.o
 .text.SERCOM0_SPI_Read
                0x0000000000000000       0x10 build/default/production/_ext/17022449/plib_sercom0_spi_master.o
 .text          0x0000000000000000        0x0 build/default/production/_ext/504274921/plib_sercom7_usart.o
 .data          0x0000000000000000        0x0 build/default/production/_ext/504274921/plib_sercom7_usart.o
 .bss           0x0000000000000000        0x0 build/default/production/_ext/504274921/plib_sercom7_usart.o
 .text.SERCOM7_USART_FrequencyGet
                0x0000000000000000        0x8 build/default/production/_ext/504274921/plib_sercom7_usart.o
 .text.SERCOM7_USART_SerialSetup
                0x0000000000000000      0x118 build/default/production/_ext/504274921/plib_sercom7_usart.o
 .text.SERCOM7_USART_Enable
                0x0000000000000000       0x20 build/default/production/_ext/504274921/plib_sercom7_usart.o
 .text.SERCOM7_USART_Disable
                0x0000000000000000       0x20 build/default/production/_ext/504274921/plib_sercom7_usart.o
 .text.SERCOM7_USART_ErrorGet
                0x0000000000000000       0x10 build/default/production/_ext/504274921/plib_sercom7_usart.o
 .text.SERCOM7_USART_ReadBufferSizeGet
                0x0000000000000000        0xc build/default/production/_ext/504274921/plib_sercom7_usart.o
 .text.SERCOM7_USART_ReadNotificationEnable
                0x0000000000000000       0x18 build/default/production/_ext/504274921/plib_sercom7_usart.o
 .text.SERCOM7_USART_ReadThresholdSet
                0x0000000000000000       0x10 build/default/production/_ext/504274921/plib_sercom7_usart.o
 .text.SERCOM7_USART_ReadCallbackRegister
                0x0000000000000000        0xc build/default/production/_ext/504274921/plib_sercom7_usart.o
 .text.SERCOM7_USART_TransmitComplete
                0x0000000000000000       0x10 build/default/production/_ext/504274921/plib_sercom7_usart.o
 .text.SERCOM7_USART_WriteBufferSizeGet
                0x0000000000000000        0xc build/default/production/_ext/504274921/plib_sercom7_usart.o
 .text.SERCOM7_USART_WriteNotificationEnable
                0x0000000000000000       0x14 build/default/production/_ext/504274921/plib_sercom7_usart.o
 .text.SERCOM7_USART_WriteThresholdSet
                0x0000000000000000       0x10 build/default/production/_ext/504274921/plib_sercom7_usart.o
 .text.SERCOM7_USART_WriteCallbackRegister
                0x0000000000000000        0xc build/default/production/_ext/504274921/plib_sercom7_usart.o
 .text          0x0000000000000000        0x0 build/default/production/_ext/504274921/plib_sercom5_usart.o
 .data          0x0000000000000000        0x0 build/default/production/_ext/504274921/plib_sercom5_usart.o
 .bss           0x0000000000000000        0x0 build/default/production/_ext/504274921/plib_sercom5_usart.o
 .text.SERCOM5_USART_FrequencyGet
                0x0000000000000000        0x8 build/default/production/_ext/504274921/plib_sercom5_usart.o
 .text.SERCOM5_USART_SerialSetup
                0x0000000000000000      0x118 build/default/production/_ext/504274921/plib_sercom5_usart.o
 .text.SERCOM5_USART_Enable
                0x0000000000000000       0x20 build/default/production/_ext/504274921/plib_sercom5_usart.o
 .text.SERCOM5_USART_Disable
                0x0000000000000000       0x20 build/default/production/_ext/504274921/plib_sercom5_usart.o
 .text.SERCOM5_USART_ErrorGet
                0x0000000000000000       0x10 build/default/production/_ext/504274921/plib_sercom5_usart.o
 .text.SERCOM5_USART_Read
                0x0000000000000000       0x94 build/default/production/_ext/504274921/plib_sercom5_usart.o
 .text.SERCOM5_USART_ReadFreeBufferCountGet
                0x0000000000000000       0x14 build/default/production/_ext/504274921/plib_sercom5_usart.o
 .text.SERCOM5_USART_ReadBufferSizeGet
                0x0000000000000000        0xc build/default/production/_ext/504274921/plib_sercom5_usart.o
 .text.SERCOM5_USART_ReadNotificationEnable
                0x0000000000000000       0x18 build/default/production/_ext/504274921/plib_sercom5_usart.o
 .text.SERCOM5_USART_ReadThresholdSet
                0x0000000000000000       0x10 build/default/production/_ext/504274921/plib_sercom5_usart.o
 .text.SERCOM5_USART_ReadCallbackRegister
                0x0000000000000000        0xc build/default/production/_ext/504274921/plib_sercom5_usart.o
 .text.SERCOM5_USART_TransmitComplete
                0x0000000000000000       0x10 build/default/production/_ext/504274921/plib_sercom5_usart.o
 .text.SERCOM5_USART_WriteCountGet
                0x0000000000000000        0x8 build/default/production/_ext/504274921/plib_sercom5_usart.o
 .text.SERCOM5_USART_Write
                0x0000000000000000      0x104 build/default/production/_ext/504274921/plib_sercom5_usart.o
 .text.SERCOM5_USART_WriteBufferSizeGet
                0x0000000000000000        0xc build/default/production/_ext/504274921/plib_sercom5_usart.o
 .text.SERCOM5_USART_WriteNotificationEnable
                0x0000000000000000       0x14 build/default/production/_ext/504274921/plib_sercom5_usart.o
 .text.SERCOM5_USART_WriteThresholdSet
                0x0000000000000000       0x10 build/default/production/_ext/504274921/plib_sercom5_usart.o
 .text.SERCOM5_USART_WriteCallbackRegister
                0x0000000000000000        0xc build/default/production/_ext/504274921/plib_sercom5_usart.o
 .text          0x0000000000000000        0x0 build/default/production/_ext/829342655/plib_tc2.o
 .data          0x0000000000000000        0x0 build/default/production/_ext/829342655/plib_tc2.o
 .bss           0x0000000000000000        0x0 build/default/production/_ext/829342655/plib_tc2.o
 .text.TC2_TimerStart
                0x0000000000000000       0x1c build/default/production/_ext/829342655/plib_tc2.o
 .text.TC2_TimerStop
                0x0000000000000000       0x1c build/default/production/_ext/829342655/plib_tc2.o
 .text.TC2_TimerFrequencyGet
                0x0000000000000000        0x8 build/default/production/_ext/829342655/plib_tc2.o
 .text.TC2_TimerCommandSet
                0x0000000000000000       0x18 build/default/production/_ext/829342655/plib_tc2.o
 .text.TC2_Timer32bitCounterGet
                0x0000000000000000       0x28 build/default/production/_ext/829342655/plib_tc2.o
 .text.TC2_Timer32bitCounterSet
                0x0000000000000000       0x14 build/default/production/_ext/829342655/plib_tc2.o
 .text.TC2_Timer32bitPeriodSet
                0x0000000000000000       0x14 build/default/production/_ext/829342655/plib_tc2.o
 .text.TC2_Timer32bitPeriodGet
                0x0000000000000000        0xc build/default/production/_ext/829342655/plib_tc2.o
 .text.TC2_TimerCallbackRegister
                0x0000000000000000        0xc build/default/production/_ext/829342655/plib_tc2.o
 .text          0x0000000000000000        0x0 build/default/production/_ext/829342655/plib_tc4.o
 .data          0x0000000000000000        0x0 build/default/production/_ext/829342655/plib_tc4.o
 .bss           0x0000000000000000        0x0 build/default/production/_ext/829342655/plib_tc4.o
 .text.TC4_TimerStart
                0x0000000000000000       0x1c build/default/production/_ext/829342655/plib_tc4.o
 .text.TC4_TimerStop
                0x0000000000000000       0x1c build/default/production/_ext/829342655/plib_tc4.o
 .text.TC4_TimerFrequencyGet
                0x0000000000000000        0x8 build/default/production/_ext/829342655/plib_tc4.o
 .text.TC4_TimerCommandSet
                0x0000000000000000       0x18 build/default/production/_ext/829342655/plib_tc4.o
 .text.TC4_Timer16bitCounterGet
                0x0000000000000000       0x2c build/default/production/_ext/829342655/plib_tc4.o
 .text.TC4_Timer16bitCounterSet
                0x0000000000000000       0x14 build/default/production/_ext/829342655/plib_tc4.o
 .text.TC4_Timer16bitPeriodSet
                0x0000000000000000       0x14 build/default/production/_ext/829342655/plib_tc4.o
 .text.TC4_Timer16bitPeriodGet
                0x0000000000000000        0xc build/default/production/_ext/829342655/plib_tc4.o
 .text.TC4_TimerCallbackRegister
                0x0000000000000000        0xc build/default/production/_ext/829342655/plib_tc4.o
 .text          0x0000000000000000        0x0 build/default/production/_ext/60184501/plib_wdt.o
 .data          0x0000000000000000        0x0 build/default/production/_ext/60184501/plib_wdt.o
 .bss           0x0000000000000000        0x0 build/default/production/_ext/60184501/plib_wdt.o
 .text.WDT_Enable
                0x0000000000000000       0x20 build/default/production/_ext/60184501/plib_wdt.o
 .text.WDT_Disable
                0x0000000000000000       0x20 build/default/production/_ext/60184501/plib_wdt.o
 .text.WDT_EnableWindowMode
                0x0000000000000000       0x34 build/default/production/_ext/60184501/plib_wdt.o
 .text.WDT_DisableWindowMode
                0x0000000000000000       0x34 build/default/production/_ext/60184501/plib_wdt.o
 .text.WDT_IsEnabled
                0x0000000000000000       0x14 build/default/production/_ext/60184501/plib_wdt.o
 .text.WDT_IsAlwaysOn
                0x0000000000000000        0xc build/default/production/_ext/60184501/plib_wdt.o
 .text.WDT_IsWindowModeEnabled
                0x0000000000000000       0x10 build/default/production/_ext/60184501/plib_wdt.o
 .text.WDT_TimeoutPeriodSet
                0x0000000000000000       0x14 build/default/production/_ext/60184501/plib_wdt.o
 .text.WDT_Clear
                0x0000000000000000       0x14 build/default/production/_ext/60184501/plib_wdt.o
 .text.WDT_ClearWithSync
                0x0000000000000000       0x1c build/default/production/_ext/60184501/plib_wdt.o
 .debug_info    0x0000000000000000      0x27f build/default/production/_ext/60184501/plib_wdt.o
 .debug_abbrev  0x0000000000000000       0xed build/default/production/_ext/60184501/plib_wdt.o
 .debug_aranges
                0x0000000000000000       0x68 build/default/production/_ext/60184501/plib_wdt.o
 .debug_ranges  0x0000000000000000       0x58 build/default/production/_ext/60184501/plib_wdt.o
 .debug_line    0x0000000000000000      0x2b9 build/default/production/_ext/60184501/plib_wdt.o
 .debug_str     0x0000000000000000      0x3e6 build/default/production/_ext/60184501/plib_wdt.o
 .comment       0x0000000000000000       0x2c build/default/production/_ext/60184501/plib_wdt.o
 .debug_frame   0x0000000000000000       0xb0 build/default/production/_ext/60184501/plib_wdt.o
 .ARM.attributes
                0x0000000000000000       0x2c build/default/production/_ext/60184501/plib_wdt.o
 .text          0x0000000000000000        0x0 build/default/production/_ext/163028504/xc32_monitor.o
 .data          0x0000000000000000        0x0 build/default/production/_ext/163028504/xc32_monitor.o
 .bss           0x0000000000000000        0x0 build/default/production/_ext/163028504/xc32_monitor.o
 .text.read     0x0000000000000000        0x6 build/default/production/_ext/163028504/xc32_monitor.o
 .text.write    0x0000000000000000        0x6 build/default/production/_ext/163028504/xc32_monitor.o
 .debug_info    0x0000000000000000       0xf5 build/default/production/_ext/163028504/xc32_monitor.o
 .debug_abbrev  0x0000000000000000       0xb2 build/default/production/_ext/163028504/xc32_monitor.o
 .debug_loc     0x0000000000000000       0x4a build/default/production/_ext/163028504/xc32_monitor.o
 .debug_aranges
                0x0000000000000000       0x28 build/default/production/_ext/163028504/xc32_monitor.o
 .debug_ranges  0x0000000000000000       0x18 build/default/production/_ext/163028504/xc32_monitor.o
 .debug_line    0x0000000000000000       0xc2 build/default/production/_ext/163028504/xc32_monitor.o
 .debug_str     0x0000000000000000      0x24b build/default/production/_ext/163028504/xc32_monitor.o
 .comment       0x0000000000000000       0x2c build/default/production/_ext/163028504/xc32_monitor.o
 .debug_frame   0x0000000000000000       0x30 build/default/production/_ext/163028504/xc32_monitor.o
 .ARM.attributes
                0x0000000000000000       0x2c build/default/production/_ext/163028504/xc32_monitor.o
 .text          0x0000000000000000        0x0 build/default/production/_ext/1832805299/sys_console.o
 .data          0x0000000000000000        0x0 build/default/production/_ext/1832805299/sys_console.o
 .bss           0x0000000000000000        0x0 build/default/production/_ext/1832805299/sys_console.o
 .text.SYS_CONSOLE_Status
                0x0000000000000000       0x60 build/default/production/_ext/1832805299/sys_console.o
 .text.SYS_CONSOLE_HandleGet
                0x0000000000000000        0x8 build/default/production/_ext/1832805299/sys_console.o
 .text.SYS_CONSOLE_DeviceGet
                0x0000000000000000       0x1c build/default/production/_ext/1832805299/sys_console.o
 .text.SYS_CONSOLE_Tasks
                0x0000000000000000       0x28 build/default/production/_ext/1832805299/sys_console.o
 .text.SYS_CONSOLE_Read
                0x0000000000000000       0x38 build/default/production/_ext/1832805299/sys_console.o
 .text.SYS_CONSOLE_ReadFreeBufferCountGet
                0x0000000000000000       0x38 build/default/production/_ext/1832805299/sys_console.o
 .text.SYS_CONSOLE_ReadCountGet
                0x0000000000000000       0x38 build/default/production/_ext/1832805299/sys_console.o
 .text.SYS_CONSOLE_Write
                0x0000000000000000       0x38 build/default/production/_ext/1832805299/sys_console.o
 .text.SYS_CONSOLE_WriteFreeBufferCountGet
                0x0000000000000000       0x38 build/default/production/_ext/1832805299/sys_console.o
 .text.SYS_CONSOLE_WriteCountGet
                0x0000000000000000       0x38 build/default/production/_ext/1832805299/sys_console.o
 .text.SYS_CONSOLE_Print
                0x0000000000000000       0x6c build/default/production/_ext/1832805299/sys_console.o
 .text.SYS_CONSOLE_Message
                0x0000000000000000       0x34 build/default/production/_ext/1832805299/sys_console.o
 .text.SYS_CONSOLE_Flush
                0x0000000000000000       0x34 build/default/production/_ext/1832805299/sys_console.o
 .bss.consolePrintBuffer
                0x0000000000000000       0xc8 build/default/production/_ext/1832805299/sys_console.o
 .text          0x0000000000000000        0x0 build/default/production/_ext/1832805299/sys_console_uart.o
 .data          0x0000000000000000        0x0 build/default/production/_ext/1832805299/sys_console_uart.o
 .bss           0x0000000000000000        0x0 build/default/production/_ext/1832805299/sys_console_uart.o
 .text          0x0000000000000000        0x0 build/default/production/_ext/1832805299/sys_console_usb_cdc.o
 .data          0x0000000000000000        0x0 build/default/production/_ext/1832805299/sys_console_usb_cdc.o
 .bss           0x0000000000000000        0x0 build/default/production/_ext/1832805299/sys_console_usb_cdc.o
 .debug_line    0x0000000000000000        0x0 build/default/production/_ext/1832805299/sys_console_usb_cdc.o
 .debug_str     0x0000000000000000      0x20b build/default/production/_ext/1832805299/sys_console_usb_cdc.o
 .comment       0x0000000000000000       0x2c build/default/production/_ext/1832805299/sys_console_usb_cdc.o
 .ARM.attributes
                0x0000000000000000       0x32 build/default/production/_ext/1832805299/sys_console_usb_cdc.o
 .text          0x0000000000000000        0x0 build/default/production/_ext/944882569/sys_debug.o
 .data          0x0000000000000000        0x0 build/default/production/_ext/944882569/sys_debug.o
 .bss           0x0000000000000000        0x0 build/default/production/_ext/944882569/sys_debug.o
 .text.SYS_DEBUG_ConsoleInstanceGet
                0x0000000000000000        0xc build/default/production/_ext/944882569/sys_debug.o
 .text.SYS_DEBUG_Status
                0x0000000000000000        0xc build/default/production/_ext/944882569/sys_debug.o
 .text.SYS_DEBUG_ErrorLevelSet
                0x0000000000000000        0xc build/default/production/_ext/944882569/sys_debug.o
 .text.SYS_DEBUG_ErrorLevelGet
                0x0000000000000000        0xc build/default/production/_ext/944882569/sys_debug.o
 .text.SYS_DEBUG_Redirect
                0x0000000000000000       0x18 build/default/production/_ext/944882569/sys_debug.o
 .text          0x0000000000000000        0x0 build/default/production/_ext/1881668453/sys_int.o
 .data          0x0000000000000000        0x0 build/default/production/_ext/1881668453/sys_int.o
 .bss           0x0000000000000000        0x0 build/default/production/_ext/1881668453/sys_int.o
 .text.SYS_INT_Enable
                0x0000000000000000        0x8 build/default/production/_ext/1881668453/sys_int.o
 .text.SYS_INT_Disable
                0x0000000000000000        0x8 build/default/production/_ext/1881668453/sys_int.o
 .text.SYS_INT_Restore
                0x0000000000000000        0x8 build/default/production/_ext/1881668453/sys_int.o
 .text.SYS_INT_SourceDisable
                0x0000000000000000       0x3c build/default/production/_ext/1881668453/sys_int.o
 .text.SYS_INT_SourceRestore
                0x0000000000000000       0x1c build/default/production/_ext/1881668453/sys_int.o
 .debug_info    0x0000000000000000      0x5b2 build/default/production/_ext/1881668453/sys_int.o
 .debug_abbrev  0x0000000000000000      0x262 build/default/production/_ext/1881668453/sys_int.o
 .debug_loc     0x0000000000000000      0x17d build/default/production/_ext/1881668453/sys_int.o
 .debug_aranges
                0x0000000000000000       0x40 build/default/production/_ext/1881668453/sys_int.o
 .debug_ranges  0x0000000000000000       0x48 build/default/production/_ext/1881668453/sys_int.o
 .debug_line    0x0000000000000000      0x2b9 build/default/production/_ext/1881668453/sys_int.o
 .debug_str     0x0000000000000000      0x624 build/default/production/_ext/1881668453/sys_int.o
 .comment       0x0000000000000000       0x2c build/default/production/_ext/1881668453/sys_int.o
 .debug_frame   0x0000000000000000       0x84 build/default/production/_ext/1881668453/sys_int.o
 .ARM.attributes
                0x0000000000000000       0x2c build/default/production/_ext/1881668453/sys_int.o
 .text          0x0000000000000000        0x0 build/default/production/_ext/1171490990/initialization.o
 .data          0x0000000000000000        0x0 build/default/production/_ext/1171490990/initialization.o
 .bss           0x0000000000000000        0x0 build/default/production/_ext/1171490990/initialization.o
 .text          0x0000000000000000        0x0 build/default/production/_ext/1171490990/interrupts.o
 .data          0x0000000000000000        0x0 build/default/production/_ext/1171490990/interrupts.o
 .bss           0x0000000000000000        0x0 build/default/production/_ext/1171490990/interrupts.o
 .text          0x0000000000000000        0x0 build/default/production/_ext/1171490990/exceptions.o
 .data          0x0000000000000000        0x0 build/default/production/_ext/1171490990/exceptions.o
 .bss           0x0000000000000000        0x0 build/default/production/_ext/1171490990/exceptions.o
 .text          0x0000000000000000        0x0 build/default/production/_ext/1171490990/startup_xc32.o
 .data          0x0000000000000000        0x0 build/default/production/_ext/1171490990/startup_xc32.o
 .bss           0x0000000000000000        0x0 build/default/production/_ext/1171490990/startup_xc32.o
 .text          0x0000000000000000        0x0 build/default/production/_ext/1171490990/libc_syscalls.o
 .data          0x0000000000000000        0x0 build/default/production/_ext/1171490990/libc_syscalls.o
 .bss           0x0000000000000000        0x0 build/default/production/_ext/1171490990/libc_syscalls.o
 .text._exit    0x0000000000000000        0x2 build/default/production/_ext/1171490990/libc_syscalls.o
 .debug_info    0x0000000000000000       0xaa build/default/production/_ext/1171490990/libc_syscalls.o
 .debug_abbrev  0x0000000000000000       0x5d build/default/production/_ext/1171490990/libc_syscalls.o
 .debug_loc     0x0000000000000000       0x15 build/default/production/_ext/1171490990/libc_syscalls.o
 .debug_aranges
                0x0000000000000000       0x20 build/default/production/_ext/1171490990/libc_syscalls.o
 .debug_ranges  0x0000000000000000       0x10 build/default/production/_ext/1171490990/libc_syscalls.o
 .debug_line    0x0000000000000000       0x5b build/default/production/_ext/1171490990/libc_syscalls.o
 .debug_str     0x0000000000000000      0x28f build/default/production/_ext/1171490990/libc_syscalls.o
 .comment       0x0000000000000000       0x2c build/default/production/_ext/1171490990/libc_syscalls.o
 .debug_frame   0x0000000000000000       0x20 build/default/production/_ext/1171490990/libc_syscalls.o
 .ARM.attributes
                0x0000000000000000       0x2c build/default/production/_ext/1171490990/libc_syscalls.o
 .text          0x0000000000000000        0x0 build/default/production/_ext/1171490990/freertos_hooks.o
 .data          0x0000000000000000        0x0 build/default/production/_ext/1171490990/freertos_hooks.o
 .bss           0x0000000000000000        0x0 build/default/production/_ext/1171490990/freertos_hooks.o
 .text.vApplicationIdleHook
                0x0000000000000000        0x2 build/default/production/_ext/1171490990/freertos_hooks.o
 .text.vApplicationTickHook
                0x0000000000000000        0x2 build/default/production/_ext/1171490990/freertos_hooks.o
 .text.vAssertCalled
                0x0000000000000000       0x1a build/default/production/_ext/1171490990/freertos_hooks.o
 .text          0x0000000000000000        0x0 build/default/production/_ext/1171490990/tasks.o
 .data          0x0000000000000000        0x0 build/default/production/_ext/1171490990/tasks.o
 .bss           0x0000000000000000        0x0 build/default/production/_ext/1171490990/tasks.o
 .text          0x0000000000000000        0x0 build/default/production/_ext/1624415188/port.o
 .data          0x0000000000000000        0x0 build/default/production/_ext/1624415188/port.o
 .bss           0x0000000000000000        0x0 build/default/production/_ext/1624415188/port.o
 .text.vPortEndScheduler
                0x0000000000000000        0x2 build/default/production/_ext/1624415188/port.o
 .text.xPortIsInsideInterrupt
                0x0000000000000000        0xa build/default/production/_ext/1624415188/port.o
 .text          0x0000000000000000        0x0 build/default/production/_ext/1624415188/portasm.o
 .data          0x0000000000000000        0x0 build/default/production/_ext/1624415188/portasm.o
 .bss           0x0000000000000000        0x0 build/default/production/_ext/1624415188/portasm.o
 .text.xIsPrivileged
                0x0000000000000000       0x20 build/default/production/_ext/1624415188/portasm.o
 .text.vRaisePrivilege
                0x0000000000000000        0xe build/default/production/_ext/1624415188/portasm.o
 .text.vResetPrivilege
                0x0000000000000000        0xe build/default/production/_ext/1624415188/portasm.o
 .text          0x0000000000000000        0x0 build/default/production/_ext/1665200909/heap_1.o
 .data          0x0000000000000000        0x0 build/default/production/_ext/1665200909/heap_1.o
 .bss           0x0000000000000000        0x0 build/default/production/_ext/1665200909/heap_1.o
 .text.vPortInitialiseBlocks
                0x0000000000000000        0xc build/default/production/_ext/1665200909/heap_1.o
 .text.xPortGetFreeHeapSize
                0x0000000000000000       0x14 build/default/production/_ext/1665200909/heap_1.o
 .text.vPortHeapResetState
                0x0000000000000000        0xc build/default/production/_ext/1665200909/heap_1.o
 .text          0x0000000000000000        0x0 build/default/production/_ext/404212886/croutine.o
 .data          0x0000000000000000        0x0 build/default/production/_ext/404212886/croutine.o
 .bss           0x0000000000000000        0x0 build/default/production/_ext/404212886/croutine.o
 .debug_info    0x0000000000000000       0x79 build/default/production/_ext/404212886/croutine.o
 .debug_abbrev  0x0000000000000000       0x26 build/default/production/_ext/404212886/croutine.o
 .debug_aranges
                0x0000000000000000       0x18 build/default/production/_ext/404212886/croutine.o
 .debug_line    0x0000000000000000       0x1d build/default/production/_ext/404212886/croutine.o
 .debug_str     0x0000000000000000      0x29b build/default/production/_ext/404212886/croutine.o
 .comment       0x0000000000000000       0x2c build/default/production/_ext/404212886/croutine.o
 .ARM.attributes
                0x0000000000000000       0x32 build/default/production/_ext/404212886/croutine.o
 .text          0x0000000000000000        0x0 build/default/production/_ext/404212886/list.o
 .data          0x0000000000000000        0x0 build/default/production/_ext/404212886/list.o
 .bss           0x0000000000000000        0x0 build/default/production/_ext/404212886/list.o
 .text.vListInsertEnd
                0x0000000000000000       0x16 build/default/production/_ext/404212886/list.o
 .text          0x0000000000000000        0x0 build/default/production/_ext/404212886/queue.o
 .data          0x0000000000000000        0x0 build/default/production/_ext/404212886/queue.o
 .bss           0x0000000000000000        0x0 build/default/production/_ext/404212886/queue.o
 .text.xQueueCreateCountingSemaphore
                0x0000000000000000       0x26 build/default/production/_ext/404212886/queue.o
 .text.xQueueGenericSendFromISR
                0x0000000000000000       0x7a build/default/production/_ext/404212886/queue.o
 .text.xQueueGiveFromISR
                0x0000000000000000       0x6a build/default/production/_ext/404212886/queue.o
 .text.xQueuePeek
                0x0000000000000000       0xea build/default/production/_ext/404212886/queue.o
 .text.xQueueReceiveFromISR
                0x0000000000000000       0x72 build/default/production/_ext/404212886/queue.o
 .text.xQueuePeekFromISR
                0x0000000000000000       0x2e build/default/production/_ext/404212886/queue.o
 .text.uxQueueMessagesWaiting
                0x0000000000000000       0x12 build/default/production/_ext/404212886/queue.o
 .text.uxQueueSpacesAvailable
                0x0000000000000000       0x16 build/default/production/_ext/404212886/queue.o
 .text.uxQueueMessagesWaitingFromISR
                0x0000000000000000        0x4 build/default/production/_ext/404212886/queue.o
 .text.vQueueDelete
                0x0000000000000000        0x8 build/default/production/_ext/404212886/queue.o
 .text.uxQueueGetQueueItemSize
                0x0000000000000000        0x4 build/default/production/_ext/404212886/queue.o
 .text.uxQueueGetQueueLength
                0x0000000000000000        0x4 build/default/production/_ext/404212886/queue.o
 .text.xQueueIsQueueEmptyFromISR
                0x0000000000000000        0x8 build/default/production/_ext/404212886/queue.o
 .text.xQueueIsQueueFullFromISR
                0x0000000000000000        0xc build/default/production/_ext/404212886/queue.o
 .text          0x0000000000000000        0x0 build/default/production/_ext/404212886/FreeRTOS_tasks.o
 .data          0x0000000000000000        0x0 build/default/production/_ext/404212886/FreeRTOS_tasks.o
 .bss           0x0000000000000000        0x0 build/default/production/_ext/404212886/FreeRTOS_tasks.o
 .text.vTaskDelete
                0x0000000000000000       0xa4 build/default/production/_ext/404212886/FreeRTOS_tasks.o
 .text.uxTaskPriorityGet
                0x0000000000000000       0x20 build/default/production/_ext/404212886/FreeRTOS_tasks.o
 .text.uxTaskPriorityGetFromISR
                0x0000000000000000       0x20 build/default/production/_ext/404212886/FreeRTOS_tasks.o
 .text.uxTaskBasePriorityGet
                0x0000000000000000       0x20 build/default/production/_ext/404212886/FreeRTOS_tasks.o
 .text.uxTaskBasePriorityGetFromISR
                0x0000000000000000       0x20 build/default/production/_ext/404212886/FreeRTOS_tasks.o
 .text.vTaskPrioritySet
                0x0000000000000000       0xd0 build/default/production/_ext/404212886/FreeRTOS_tasks.o
 .text.vTaskResume
                0x0000000000000000       0xa0 build/default/production/_ext/404212886/FreeRTOS_tasks.o
 .text.vTaskEndScheduler
                0x0000000000000000       0x2c build/default/production/_ext/404212886/FreeRTOS_tasks.o
 .text.xTaskGetTickCountFromISR
                0x0000000000000000        0xc build/default/production/_ext/404212886/FreeRTOS_tasks.o
 .text.uxTaskGetNumberOfTasks
                0x0000000000000000        0xc build/default/production/_ext/404212886/FreeRTOS_tasks.o
 .text.pcTaskGetName
                0x0000000000000000       0x14 build/default/production/_ext/404212886/FreeRTOS_tasks.o
 .text.xTaskDelayUntil
                0x0000000000000000       0x60 build/default/production/_ext/404212886/FreeRTOS_tasks.o
 .text.vTaskDelay
                0x0000000000000000       0x20 build/default/production/_ext/404212886/FreeRTOS_tasks.o
 .text.xTaskCatchUpTicks
                0x0000000000000000       0x24 build/default/production/_ext/404212886/FreeRTOS_tasks.o
 .text.vTaskSuspend
                0x0000000000000000       0x9c build/default/production/_ext/404212886/FreeRTOS_tasks.o
 .text.vTaskPlaceOnUnorderedEventList
                0x0000000000000000       0x40 build/default/production/_ext/404212886/FreeRTOS_tasks.o
 .text.vTaskRemoveFromUnorderedEventList
                0x0000000000000000       0xb4 build/default/production/_ext/404212886/FreeRTOS_tasks.o
 .text.vTaskSetTimeOutState
                0x0000000000000000       0x24 build/default/production/_ext/404212886/FreeRTOS_tasks.o
 .text.xTaskGetCurrentTaskHandle
                0x0000000000000000        0xc build/default/production/_ext/404212886/FreeRTOS_tasks.o
 .text.xTaskGetCurrentTaskHandleForCore
                0x0000000000000000       0x14 build/default/production/_ext/404212886/FreeRTOS_tasks.o
 .text.xTaskGetSchedulerState
                0x0000000000000000       0x20 build/default/production/_ext/404212886/FreeRTOS_tasks.o
 .text.uxTaskResetEventItemValue
                0x0000000000000000       0x18 build/default/production/_ext/404212886/FreeRTOS_tasks.o
 .text.ulTaskGenericNotifyTake
                0x0000000000000000       0xbc build/default/production/_ext/404212886/FreeRTOS_tasks.o
 .text.xTaskGenericNotifyWait
                0x0000000000000000       0xc4 build/default/production/_ext/404212886/FreeRTOS_tasks.o
 .text.xTaskGenericNotify
                0x0000000000000000      0x100 build/default/production/_ext/404212886/FreeRTOS_tasks.o
 .text.xTaskGenericNotifyFromISR
                0x0000000000000000      0x144 build/default/production/_ext/404212886/FreeRTOS_tasks.o
 .text.vTaskGenericNotifyGiveFromISR
                0x0000000000000000       0xe4 build/default/production/_ext/404212886/FreeRTOS_tasks.o
 .text.xTaskGenericNotifyStateClear
                0x0000000000000000       0x38 build/default/production/_ext/404212886/FreeRTOS_tasks.o
 .text.ulTaskGenericNotifyValueClear
                0x0000000000000000       0x30 build/default/production/_ext/404212886/FreeRTOS_tasks.o
 .text.vTaskResetState
                0x0000000000000000       0x64 build/default/production/_ext/404212886/FreeRTOS_tasks.o
 .text          0x0000000000000000        0x0 build/default/production/_ext/404212886/timers.o
 .data          0x0000000000000000        0x0 build/default/production/_ext/404212886/timers.o
 .bss           0x0000000000000000        0x0 build/default/production/_ext/404212886/timers.o
 .text.xTimerCreate
                0x0000000000000000       0x46 build/default/production/_ext/404212886/timers.o
 .text.xTimerGenericCommandFromTask
                0x0000000000000000       0x54 build/default/production/_ext/404212886/timers.o
 .text.xTimerGenericCommandFromISR
                0x0000000000000000       0x3c build/default/production/_ext/404212886/timers.o
 .text.xTimerGetTimerDaemonTaskHandle
                0x0000000000000000        0xc build/default/production/_ext/404212886/timers.o
 .text.xTimerGetPeriod
                0x0000000000000000        0x4 build/default/production/_ext/404212886/timers.o
 .text.vTimerSetReloadMode
                0x0000000000000000       0x2a build/default/production/_ext/404212886/timers.o
 .text.xTimerGetReloadMode
                0x0000000000000000       0x18 build/default/production/_ext/404212886/timers.o
 .text.uxTimerGetReloadMode
                0x0000000000000000        0x8 build/default/production/_ext/404212886/timers.o
 .text.xTimerGetExpiryTime
                0x0000000000000000        0x4 build/default/production/_ext/404212886/timers.o
 .text.pcTimerGetName
                0x0000000000000000        0x4 build/default/production/_ext/404212886/timers.o
 .text.xTimerIsTimerActive
                0x0000000000000000       0x18 build/default/production/_ext/404212886/timers.o
 .text.pvTimerGetTimerID
                0x0000000000000000       0x12 build/default/production/_ext/404212886/timers.o
 .text.vTimerSetTimerID
                0x0000000000000000       0x12 build/default/production/_ext/404212886/timers.o
 .text.xTimerPendFunctionCallFromISR
                0x0000000000000000       0x28 build/default/production/_ext/404212886/timers.o
 .text.xTimerPendFunctionCall
                0x0000000000000000       0x28 build/default/production/_ext/404212886/timers.o
 .text.vTimerResetState
                0x0000000000000000       0x14 build/default/production/_ext/404212886/timers.o
 .text          0x0000000000000000        0x0 build/default/production/_ext/404212886/event_groups.o
 .data          0x0000000000000000        0x0 build/default/production/_ext/404212886/event_groups.o
 .bss           0x0000000000000000        0x0 build/default/production/_ext/404212886/event_groups.o
 .text.xEventGroupCreate
                0x0000000000000000       0x18 build/default/production/_ext/404212886/event_groups.o
 .text.xEventGroupWaitBits
                0x0000000000000000       0xbc build/default/production/_ext/404212886/event_groups.o
 .text.xEventGroupClearBits
                0x0000000000000000       0x1a build/default/production/_ext/404212886/event_groups.o
 .text.xEventGroupGetBitsFromISR
                0x0000000000000000       0x12 build/default/production/_ext/404212886/event_groups.o
 .text.xEventGroupSetBits
                0x0000000000000000       0x64 build/default/production/_ext/404212886/event_groups.o
 .text.xEventGroupSync
                0x0000000000000000       0x86 build/default/production/_ext/404212886/event_groups.o
 .text.vEventGroupDelete
                0x0000000000000000       0x2c build/default/production/_ext/404212886/event_groups.o
 .text.vEventGroupSetBitsCallback
                0x0000000000000000        0x8 build/default/production/_ext/404212886/event_groups.o
 .text.vEventGroupClearBitsCallback
                0x0000000000000000        0x8 build/default/production/_ext/404212886/event_groups.o
 .debug_info    0x0000000000000000      0xaa4 build/default/production/_ext/404212886/event_groups.o
 .debug_abbrev  0x0000000000000000      0x204 build/default/production/_ext/404212886/event_groups.o
 .debug_loc     0x0000000000000000      0xd03 build/default/production/_ext/404212886/event_groups.o
 .debug_aranges
                0x0000000000000000       0x60 build/default/production/_ext/404212886/event_groups.o
 .debug_ranges  0x0000000000000000       0x98 build/default/production/_ext/404212886/event_groups.o
 .debug_line    0x0000000000000000      0x60e build/default/production/_ext/404212886/event_groups.o
 .debug_str     0x0000000000000000      0x6ff build/default/production/_ext/404212886/event_groups.o
 .comment       0x0000000000000000       0x2c build/default/production/_ext/404212886/event_groups.o
 .debug_frame   0x0000000000000000      0x10c build/default/production/_ext/404212886/event_groups.o
 .ARM.attributes
                0x0000000000000000       0x2c build/default/production/_ext/404212886/event_groups.o
 .text          0x0000000000000000        0x0 build/default/production/_ext/404212886/stream_buffer.o
 .data          0x0000000000000000        0x0 build/default/production/_ext/404212886/stream_buffer.o
 .bss           0x0000000000000000        0x0 build/default/production/_ext/404212886/stream_buffer.o
 .text.prvBytesInBuffer
                0x0000000000000000       0x12 build/default/production/_ext/404212886/stream_buffer.o
 .text.prvWriteBytesToBuffer
                0x0000000000000000       0x42 build/default/production/_ext/404212886/stream_buffer.o
 .text.prvWriteMessageToBuffer
                0x0000000000000000       0x4e build/default/production/_ext/404212886/stream_buffer.o
 .text.prvReadBytesFromBuffer
                0x0000000000000000       0x42 build/default/production/_ext/404212886/stream_buffer.o
 .text.prvReadMessageFromBuffer
                0x0000000000000000       0x4c build/default/production/_ext/404212886/stream_buffer.o
 .text.xStreamBufferGenericCreate
                0x0000000000000000       0x4e build/default/production/_ext/404212886/stream_buffer.o
 .text.vStreamBufferDelete
                0x0000000000000000       0x18 build/default/production/_ext/404212886/stream_buffer.o
 .text.xStreamBufferReset
                0x0000000000000000       0x4c build/default/production/_ext/404212886/stream_buffer.o
 .text.xStreamBufferResetFromISR
                0x0000000000000000       0x58 build/default/production/_ext/404212886/stream_buffer.o
 .text.xStreamBufferSetTriggerLevel
                0x0000000000000000       0x16 build/default/production/_ext/404212886/stream_buffer.o
 .text.xStreamBufferSpacesAvailable
                0x0000000000000000       0x1e build/default/production/_ext/404212886/stream_buffer.o
 .text.xStreamBufferBytesAvailable
                0x0000000000000000        0x8 build/default/production/_ext/404212886/stream_buffer.o
 .text.xStreamBufferSend
                0x0000000000000000       0xd0 build/default/production/_ext/404212886/stream_buffer.o
 .text.xStreamBufferSendFromISR
                0x0000000000000000       0x6a build/default/production/_ext/404212886/stream_buffer.o
 .text.xStreamBufferReceive
                0x0000000000000000       0xa8 build/default/production/_ext/404212886/stream_buffer.o
 .text.xStreamBufferNextMessageLengthBytes
                0x0000000000000000       0x30 build/default/production/_ext/404212886/stream_buffer.o
 .text.xStreamBufferReceiveFromISR
                0x0000000000000000       0x5c build/default/production/_ext/404212886/stream_buffer.o
 .text.xStreamBufferIsEmpty
                0x0000000000000000        0xc build/default/production/_ext/404212886/stream_buffer.o
 .text.xStreamBufferIsFull
                0x0000000000000000       0x18 build/default/production/_ext/404212886/stream_buffer.o
 .text.xStreamBufferSendCompletedFromISR
                0x0000000000000000       0x36 build/default/production/_ext/404212886/stream_buffer.o
 .text.xStreamBufferReceiveCompletedFromISR
                0x0000000000000000       0x36 build/default/production/_ext/404212886/stream_buffer.o
 .text.uxStreamBufferGetStreamBufferNotificationIndex
                0x0000000000000000        0x4 build/default/production/_ext/404212886/stream_buffer.o
 .text.vStreamBufferSetStreamBufferNotificationIndex
                0x0000000000000000        0x4 build/default/production/_ext/404212886/stream_buffer.o
 .debug_info    0x0000000000000000     0x174c build/default/production/_ext/404212886/stream_buffer.o
 .debug_abbrev  0x0000000000000000      0x2a4 build/default/production/_ext/404212886/stream_buffer.o
 .debug_loc     0x0000000000000000     0x1b47 build/default/production/_ext/404212886/stream_buffer.o
 .debug_aranges
                0x0000000000000000       0xd0 build/default/production/_ext/404212886/stream_buffer.o
 .debug_ranges  0x0000000000000000       0xe0 build/default/production/_ext/404212886/stream_buffer.o
 .debug_line    0x0000000000000000      0xbaa build/default/production/_ext/404212886/stream_buffer.o
 .debug_str     0x0000000000000000      0xa49 build/default/production/_ext/404212886/stream_buffer.o
 .comment       0x0000000000000000       0x2c build/default/production/_ext/404212886/stream_buffer.o
 .debug_frame   0x0000000000000000      0x28c build/default/production/_ext/404212886/stream_buffer.o
 .ARM.attributes
                0x0000000000000000       0x2c build/default/production/_ext/404212886/stream_buffer.o
 .text          0x0000000000000000        0x0 build/default/production/_ext/1360937237/main.o
 .data          0x0000000000000000        0x0 build/default/production/_ext/1360937237/main.o
 .bss           0x0000000000000000        0x0 build/default/production/_ext/1360937237/main.o
 .text          0x0000000000000000        0x0 build/default/production/_ext/1360937237/app.o
 .data          0x0000000000000000        0x0 build/default/production/_ext/1360937237/app.o
 .bss           0x0000000000000000        0x0 build/default/production/_ext/1360937237/app.o
 .text          0x0000000000000000        0x0 build/default/production/_ext/1360937237/Global_Vars.o
 .data          0x0000000000000000        0x0 build/default/production/_ext/1360937237/Global_Vars.o
 .bss           0x0000000000000000        0x0 build/default/production/_ext/1360937237/Global_Vars.o
 .debug_info    0x0000000000000000     0x11a3 build/default/production/_ext/1360937237/Global_Vars.o
 .debug_abbrev  0x0000000000000000      0x174 build/default/production/_ext/1360937237/Global_Vars.o
 .debug_aranges
                0x0000000000000000       0x18 build/default/production/_ext/1360937237/Global_Vars.o
 .debug_line    0x0000000000000000       0x7c build/default/production/_ext/1360937237/Global_Vars.o
 .debug_str     0x0000000000000000      0xe52 build/default/production/_ext/1360937237/Global_Vars.o
 .comment       0x0000000000000000       0x2c build/default/production/_ext/1360937237/Global_Vars.o
 .ARM.attributes
                0x0000000000000000       0x32 build/default/production/_ext/1360937237/Global_Vars.o
 COMMON         0x0000000000000000      0x418 build/default/production/_ext/1360937237/Global_Vars.o
 .text          0x0000000000000000        0x0 build/default/production/_ext/1500443788/ext_flash.o
 .data          0x0000000000000000        0x0 build/default/production/_ext/1500443788/ext_flash.o
 .bss           0x0000000000000000        0x0 build/default/production/_ext/1500443788/ext_flash.o
 .text.SPI_0_transfer_block
                0x0000000000000000       0x10 build/default/production/_ext/1500443788/ext_flash.o
 .text.Ext_Flash_transfer_block
                0x0000000000000000       0x10 build/default/production/_ext/1500443788/ext_flash.o
 .text.EXTFLASH_init
                0x0000000000000000        0x2 build/default/production/_ext/1500443788/ext_flash.o
 .text.EXTFLASH_transfer
                0x0000000000000000       0x1a build/default/production/_ext/1500443788/ext_flash.o
 .text.EXTFLASH_writeEnable
                0x0000000000000000       0x24 build/default/production/_ext/1500443788/ext_flash.o
 .text.EXTFLASH_readInfo
                0x0000000000000000       0x38 build/default/production/_ext/1500443788/ext_flash.o
 .text.EXTFLASH_open
                0x0000000000000000       0x7c build/default/production/_ext/1500443788/ext_flash.o
 .text.EXTFLASH_read
                0x0000000000000000       0x44 build/default/production/_ext/1500443788/ext_flash.o
 .text.EXTFLASH_write
                0x0000000000000000       0x98 build/default/production/_ext/1500443788/ext_flash.o
 .text.EXTFLASH_erase
                0x0000000000000000       0x64 build/default/production/_ext/1500443788/ext_flash.o
 .bss.infoBuf   0x0000000000000000        0x2 build/default/production/_ext/1500443788/ext_flash.o
 .bss.pFlashInfo
                0x0000000000000000        0x4 build/default/production/_ext/1500443788/ext_flash.o
 .bss.rxBuff    0x0000000000000000      0x105 build/default/production/_ext/1500443788/ext_flash.o
 .rodata.EXTFLASH_open.str1.4
                0x0000000000000000       0x24 build/default/production/_ext/1500443788/ext_flash.o
 .rodata.flashInfo
                0x0000000000000000       0x30 build/default/production/_ext/1500443788/ext_flash.o
 .debug_info    0x0000000000000000     0x1f0e build/default/production/_ext/1500443788/ext_flash.o
 .debug_abbrev  0x0000000000000000      0x447 build/default/production/_ext/1500443788/ext_flash.o
 .debug_loc     0x0000000000000000      0x77c build/default/production/_ext/1500443788/ext_flash.o
 .debug_aranges
                0x0000000000000000       0x68 build/default/production/_ext/1500443788/ext_flash.o
 .debug_ranges  0x0000000000000000       0xa8 build/default/production/_ext/1500443788/ext_flash.o
 .debug_line    0x0000000000000000      0x53a build/default/production/_ext/1500443788/ext_flash.o
 .debug_str     0x0000000000000000     0x11d9 build/default/production/_ext/1500443788/ext_flash.o
 .comment       0x0000000000000000       0x2c build/default/production/_ext/1500443788/ext_flash.o
 .debug_frame   0x0000000000000000      0x128 build/default/production/_ext/1500443788/ext_flash.o
 .ARM.attributes
                0x0000000000000000       0x2c build/default/production/_ext/1500443788/ext_flash.o
 COMMON         0x0000000000000000       0x2c build/default/production/_ext/1500443788/ext_flash.o
 .text          0x0000000000000000        0x0 build/default/production/_ext/1500443788/McuSwReset.o
 .data          0x0000000000000000        0x0 build/default/production/_ext/1500443788/McuSwReset.o
 .bss           0x0000000000000000        0x0 build/default/production/_ext/1500443788/McuSwReset.o
 .text.sw_reset
                0x0000000000000000       0x10 build/default/production/_ext/1500443788/McuSwReset.o
 .text.fpga_on  0x0000000000000000        0x2 build/default/production/_ext/1500443788/McuSwReset.o
 .text.fpga_off
                0x0000000000000000       0x22 build/default/production/_ext/1500443788/McuSwReset.o
 .text.check_cdone
                0x0000000000000000        0x8 build/default/production/_ext/1500443788/McuSwReset.o
 .text.erase_can_flash
                0x0000000000000000       0xdc build/default/production/_ext/1500443788/McuSwReset.o
 .text.write_can_flash
                0x0000000000000000       0x54 build/default/production/_ext/1500443788/McuSwReset.o
 .text.erase_flash
                0x0000000000000000        0x2 build/default/production/_ext/1500443788/McuSwReset.o
 .text.read_flash
                0x0000000000000000        0x2 build/default/production/_ext/1500443788/McuSwReset.o
 .text.write_flash
                0x0000000000000000        0x2 build/default/production/_ext/1500443788/McuSwReset.o
 .bss.bin_size  0x0000000000000000        0x4 build/default/production/_ext/1500443788/McuSwReset.o
 .bss.can_id    0x0000000000000000        0x4 build/default/production/_ext/1500443788/McuSwReset.o
 .bss.end_addr  0x0000000000000000        0x4 build/default/production/_ext/1500443788/McuSwReset.o
 .bss.i         0x0000000000000000        0x4 build/default/production/_ext/1500443788/McuSwReset.o
 .bss.no_of_pages
                0x0000000000000000        0x4 build/default/production/_ext/1500443788/McuSwReset.o
 .bss.page_size
                0x0000000000000000        0x4 build/default/production/_ext/1500443788/McuSwReset.o
 .bss.write_addr
                0x0000000000000000        0x4 build/default/production/_ext/1500443788/McuSwReset.o
 .debug_info    0x0000000000000000     0x18c2 build/default/production/_ext/1500443788/McuSwReset.o
 .debug_abbrev  0x0000000000000000      0x2dc build/default/production/_ext/1500443788/McuSwReset.o
 .debug_loc     0x0000000000000000       0xaf build/default/production/_ext/1500443788/McuSwReset.o
 .debug_aranges
                0x0000000000000000       0x60 build/default/production/_ext/1500443788/McuSwReset.o
 .debug_ranges  0x0000000000000000       0x50 build/default/production/_ext/1500443788/McuSwReset.o
 .debug_line    0x0000000000000000      0x37b build/default/production/_ext/1500443788/McuSwReset.o
 .debug_str     0x0000000000000000     0x1025 build/default/production/_ext/1500443788/McuSwReset.o
 .comment       0x0000000000000000       0x2c build/default/production/_ext/1500443788/McuSwReset.o
 .debug_frame   0x0000000000000000       0xc8 build/default/production/_ext/1500443788/McuSwReset.o
 .ARM.attributes
                0x0000000000000000       0x2c build/default/production/_ext/1500443788/McuSwReset.o
 .text          0x0000000000000000        0x0 build/default/production/_ext/1500443788/tlv_flash.o
 .data          0x0000000000000000        0x0 build/default/production/_ext/1500443788/tlv_flash.o
 .bss           0x0000000000000000        0x0 build/default/production/_ext/1500443788/tlv_flash.o
 .text.write_tlv_flash
                0x0000000000000000      0x114 build/default/production/_ext/1500443788/tlv_flash.o
 .text.traverse_tlv_flash
                0x0000000000000000      0x118 build/default/production/_ext/1500443788/tlv_flash.o
 .text.chk_tlv  0x0000000000000000       0xbc build/default/production/_ext/1500443788/tlv_flash.o
 .text.check_tlv_param
                0x0000000000000000       0xd4 build/default/production/_ext/1500443788/tlv_flash.o
 .text.read_tlv_flash
                0x0000000000000000       0xa8 build/default/production/_ext/1500443788/tlv_flash.o
 .data.tlv_ptr  0x0000000000000000        0x4 build/default/production/_ext/1500443788/tlv_flash.o
 .data.tlv_traversal
                0x0000000000000000        0x4 build/default/production/_ext/1500443788/tlv_flash.o
 .rodata.check_tlv_param.str1.4
                0x0000000000000000       0x54 build/default/production/_ext/1500443788/tlv_flash.o
 .rodata.chk_tlv.str1.4
                0x0000000000000000       0x38 build/default/production/_ext/1500443788/tlv_flash.o
 .rodata.read_tlv_flash.str1.4
                0x0000000000000000       0x48 build/default/production/_ext/1500443788/tlv_flash.o
 .rodata.traverse_tlv_flash.str1.4
                0x0000000000000000       0x20 build/default/production/_ext/1500443788/tlv_flash.o
 .rodata.write_tlv_flash.str1.4
                0x0000000000000000       0xac build/default/production/_ext/1500443788/tlv_flash.o
 .debug_info    0x0000000000000000     0x1f34 build/default/production/_ext/1500443788/tlv_flash.o
 .debug_abbrev  0x0000000000000000      0x33d build/default/production/_ext/1500443788/tlv_flash.o
 .debug_loc     0x0000000000000000      0x8da build/default/production/_ext/1500443788/tlv_flash.o
 .debug_aranges
                0x0000000000000000       0x40 build/default/production/_ext/1500443788/tlv_flash.o
 .debug_ranges  0x0000000000000000       0x98 build/default/production/_ext/1500443788/tlv_flash.o
 .debug_line    0x0000000000000000      0x5f0 build/default/production/_ext/1500443788/tlv_flash.o
 .debug_str     0x0000000000000000     0x140b build/default/production/_ext/1500443788/tlv_flash.o
 .comment       0x0000000000000000       0x2c build/default/production/_ext/1500443788/tlv_flash.o
 .debug_frame   0x0000000000000000       0xb0 build/default/production/_ext/1500443788/tlv_flash.o
 .ARM.attributes
                0x0000000000000000       0x2c build/default/production/_ext/1500443788/tlv_flash.o
 COMMON         0x0000000000000000       0x18 build/default/production/_ext/1500443788/tlv_flash.o
 .text          0x0000000000000000        0x0 build/default/production/_ext/1096015630/CRC.o
 .data          0x0000000000000000        0x0 build/default/production/_ext/1096015630/CRC.o
 .bss           0x0000000000000000        0x0 build/default/production/_ext/1096015630/CRC.o
 .text.flipBitsInBytes
                0x0000000000000000       0x44 build/default/production/_ext/1096015630/CRC.o
 .text.tmc_fillCRC8Table
                0x0000000000000000       0xdc build/default/production/_ext/1096015630/CRC.o
 .text.tmc_CRC8
                0x0000000000000000       0x70 build/default/production/_ext/1096015630/CRC.o
 .text.tmc_tableGetPolynomial
                0x0000000000000000       0x20 build/default/production/_ext/1096015630/CRC.o
 .text.tmc_tableIsReflected
                0x0000000000000000       0x20 build/default/production/_ext/1096015630/CRC.o
 .bss.CRCTables
                0x0000000000000000      0x204 build/default/production/_ext/1096015630/CRC.o
 .debug_info    0x0000000000000000      0x377 build/default/production/_ext/1096015630/CRC.o
 .debug_abbrev  0x0000000000000000      0x1c0 build/default/production/_ext/1096015630/CRC.o
 .debug_loc     0x0000000000000000      0x5ea build/default/production/_ext/1096015630/CRC.o
 .debug_aranges
                0x0000000000000000       0x40 build/default/production/_ext/1096015630/CRC.o
 .debug_ranges  0x0000000000000000       0x78 build/default/production/_ext/1096015630/CRC.o
 .debug_line    0x0000000000000000      0x2b8 build/default/production/_ext/1096015630/CRC.o
 .debug_str     0x0000000000000000      0x367 build/default/production/_ext/1096015630/CRC.o
 .comment       0x0000000000000000       0x2c build/default/production/_ext/1096015630/CRC.o
 .debug_frame   0x0000000000000000       0x7c build/default/production/_ext/1096015630/CRC.o
 .ARM.attributes
                0x0000000000000000       0x2c build/default/production/_ext/1096015630/CRC.o
 .text          0x0000000000000000        0x0 build/default/production/_ext/1096015630/Functions.o
 .data          0x0000000000000000        0x0 build/default/production/_ext/1096015630/Functions.o
 .bss           0x0000000000000000        0x0 build/default/production/_ext/1096015630/Functions.o
 .text.tmc_limitInt
                0x0000000000000000       0x10 build/default/production/_ext/1096015630/Functions.o
 .text.tmc_limitS64
                0x0000000000000000       0x26 build/default/production/_ext/1096015630/Functions.o
 .text.tmc_sqrti
                0x0000000000000000      0x138 build/default/production/_ext/1096015630/Functions.o
 .text.tmc_filterPT1
                0x0000000000000000       0x3a build/default/production/_ext/1096015630/Functions.o
 .rodata.sqrttable
                0x0000000000000000      0x100 build/default/production/_ext/1096015630/Functions.o
 .debug_info    0x0000000000000000      0x23f build/default/production/_ext/1096015630/Functions.o
 .debug_abbrev  0x0000000000000000      0x124 build/default/production/_ext/1096015630/Functions.o
 .debug_loc     0x0000000000000000      0x390 build/default/production/_ext/1096015630/Functions.o
 .debug_aranges
                0x0000000000000000       0x38 build/default/production/_ext/1096015630/Functions.o
 .debug_ranges  0x0000000000000000       0x28 build/default/production/_ext/1096015630/Functions.o
 .debug_line    0x0000000000000000      0x2b7 build/default/production/_ext/1096015630/Functions.o
 .debug_str     0x0000000000000000      0x319 build/default/production/_ext/1096015630/Functions.o
 .comment       0x0000000000000000       0x2c build/default/production/_ext/1096015630/Functions.o
 .debug_frame   0x0000000000000000       0x74 build/default/production/_ext/1096015630/Functions.o
 .ARM.attributes
                0x0000000000000000       0x2c build/default/production/_ext/1096015630/Functions.o
 .text          0x0000000000000000        0x0 build/default/production/_ext/1433801640/TMC4671.o
 .data          0x0000000000000000        0x0 build/default/production/_ext/1433801640/TMC4671.o
 .bss           0x0000000000000000        0x0 build/default/production/_ext/1433801640/TMC4671.o
 .text.tmc4671_readInt
                0x0000000000000000       0xb2 build/default/production/_ext/1433801640/TMC4671.o
 .text.tmc4671_writeInt
                0x0000000000000000       0xa6 build/default/production/_ext/1433801640/TMC4671.o
 .text.tmc4671_readRegister16BitValue
                0x0000000000000000       0x1e build/default/production/_ext/1433801640/TMC4671.o
 .text.tmc4671_writeRegister16BitValue
                0x0000000000000000       0x34 build/default/production/_ext/1433801640/TMC4671.o
 .text.tmc4671_switchToMotionMode
                0x0000000000000000       0x1e build/default/production/_ext/1433801640/TMC4671.o
 .text.tmc4671_setTargetTorque_raw
                0x0000000000000000       0x1a build/default/production/_ext/1433801640/TMC4671.o
 .text.tmc4671_getTargetTorque_raw
                0x0000000000000000       0x2e build/default/production/_ext/1433801640/TMC4671.o
 .text.tmc4671_getActualTorque_raw
                0x0000000000000000        0xc build/default/production/_ext/1433801640/TMC4671.o
 .text.tmc4671_getActualRampTorque_raw
                0x0000000000000000        0x4 build/default/production/_ext/1433801640/TMC4671.o
 .text.tmc4671_setTargetTorque_mA
                0x0000000000000000       0x24 build/default/production/_ext/1433801640/TMC4671.o
 .text.tmc4671_getTargetTorque_mA
                0x0000000000000000       0x16 build/default/production/_ext/1433801640/TMC4671.o
 .text.tmc4671_getActualTorque_mA
                0x0000000000000000       0x16 build/default/production/_ext/1433801640/TMC4671.o
 .text.tmc4671_getTargetTorqueFluxSum_mA
                0x0000000000000000       0x54 build/default/production/_ext/1433801640/TMC4671.o
 .text.tmc4671_getActualTorqueFluxSum_mA
                0x0000000000000000       0x1e build/default/production/_ext/1433801640/TMC4671.o
 .text.tmc4671_getActualRampTorque_mA
                0x0000000000000000        0x4 build/default/production/_ext/1433801640/TMC4671.o
 .text.tmc4671_setTargetFlux_raw
                0x0000000000000000        0xe build/default/production/_ext/1433801640/TMC4671.o
 .text.tmc4671_getTargetFlux_raw
                0x0000000000000000       0x2e build/default/production/_ext/1433801640/TMC4671.o
 .text.tmc4671_getActualFlux_raw
                0x0000000000000000        0xc build/default/production/_ext/1433801640/TMC4671.o
 .text.tmc4671_setTargetFlux_mA
                0x0000000000000000       0x18 build/default/production/_ext/1433801640/TMC4671.o
 .text.tmc4671_getTargetFlux_mA
                0x0000000000000000       0x16 build/default/production/_ext/1433801640/TMC4671.o
 .text.tmc4671_getActualFlux_mA
                0x0000000000000000       0x16 build/default/production/_ext/1433801640/TMC4671.o
 .text.tmc4671_setTorqueFluxLimit_mA
                0x0000000000000000       0x18 build/default/production/_ext/1433801640/TMC4671.o
 .text.tmc4671_getTorqueFluxLimit_mA
                0x0000000000000000       0x1c build/default/production/_ext/1433801640/TMC4671.o
 .text.tmc4671_setTargetVelocity
                0x0000000000000000       0x18 build/default/production/_ext/1433801640/TMC4671.o
 .text.tmc4671_getTargetVelocity
                0x0000000000000000        0xa build/default/production/_ext/1433801640/TMC4671.o
 .text.tmc4671_getActualVelocity
                0x0000000000000000        0xa build/default/production/_ext/1433801640/TMC4671.o
 .text.tmc4671_getActualRampVelocity
                0x0000000000000000        0xa build/default/production/_ext/1433801640/TMC4671.o
 .text.tmc4671_setVelocityLimit
                0x0000000000000000        0xc build/default/production/_ext/1433801640/TMC4671.o
 .text.tmc4671_getVelocityLimit
                0x0000000000000000        0xa build/default/production/_ext/1433801640/TMC4671.o
 .text.tmc4671_setVelocityTarget
                0x0000000000000000        0xc build/default/production/_ext/1433801640/TMC4671.o
 .text.tmc4671_getVelocityTarget
                0x0000000000000000        0xa build/default/production/_ext/1433801640/TMC4671.o
 .text.tmc4671_setAbsolutTargetPosition
                0x0000000000000000        0xc build/default/production/_ext/1433801640/TMC4671.o
 .text.tmc4671_setRelativeTargetPosition
                0x0000000000000000       0x20 build/default/production/_ext/1433801640/TMC4671.o
 .text.tmc4671_getTargetPosition
                0x0000000000000000        0xa build/default/production/_ext/1433801640/TMC4671.o
 .text.tmc4671_getErrorPosition
                0x0000000000000000       0x16 build/default/production/_ext/1433801640/TMC4671.o
 .text.tmc4671_setActualPosition
                0x0000000000000000        0xc build/default/production/_ext/1433801640/TMC4671.o
 .text.tmc4671_getActualPosition
                0x0000000000000000        0xa build/default/production/_ext/1433801640/TMC4671.o
 .text.tmc4671_getActualRampPosition
                0x0000000000000000        0xa build/default/production/_ext/1433801640/TMC4671.o
 .text.tmc4671_setModeMotion
                0x0000000000000000        0xc build/default/production/_ext/1433801640/TMC4671.o
 .text.tmc4671_getModeMotion
                0x0000000000000000        0xa build/default/production/_ext/1433801640/TMC4671.o
 .text.tmc4671_doEncoderInitializationMode0
                0x0000000000000000       0xde build/default/production/_ext/1433801640/TMC4671.o
 .text.tmc4671_getS16CircleDifference
                0x0000000000000000        0x6 build/default/production/_ext/1433801640/TMC4671.o
 .text.tmc4671_doEncoderInitializationMode2
                0x0000000000000000       0xf4 build/default/production/_ext/1433801640/TMC4671.o
 .text.tmc4671_checkEncderInitialization
                0x0000000000000000       0x64 build/default/production/_ext/1433801640/TMC4671.o
 .text.tmc4671_periodicJob
                0x0000000000000000       0x34 build/default/production/_ext/1433801640/TMC4671.o
 .text.tmc4671_startEncoderInitialization
                0x0000000000000000       0x20 build/default/production/_ext/1433801640/TMC4671.o
 .text.tmc4671_updatePhiSelectionAndInitialize
                0x0000000000000000       0x2c build/default/production/_ext/1433801640/TMC4671.o
 .text.tmc4671_disablePWM
                0x0000000000000000        0xc build/default/production/_ext/1433801640/TMC4671.o
 .text.tmc4671_getMotorType
                0x0000000000000000        0xe build/default/production/_ext/1433801640/TMC4671.o
 .text.tmc4671_setMotorType
                0x0000000000000000       0x24 build/default/production/_ext/1433801640/TMC4671.o
 .text.tmc4671_getPolePairs
                0x0000000000000000        0xc build/default/production/_ext/1433801640/TMC4671.o
 .text.tmc4671_setPolePairs
                0x0000000000000000       0x1c build/default/production/_ext/1433801640/TMC4671.o
 .text.tmc4671_getAdcI0Offset
                0x0000000000000000        0xc build/default/production/_ext/1433801640/TMC4671.o
 .text.tmc4671_setAdcI0Offset
                0x0000000000000000       0x1c build/default/production/_ext/1433801640/TMC4671.o
 .text.tmc4671_getAdcI1Offset
                0x0000000000000000        0xc build/default/production/_ext/1433801640/TMC4671.o
 .text.tmc4671_setAdcI1Offset
                0x0000000000000000       0x1c build/default/production/_ext/1433801640/TMC4671.o
 .text.tmc4671_setTorqueFluxPI
                0x0000000000000000       0x1e build/default/production/_ext/1433801640/TMC4671.o
 .text.tmc4671_setTorquePI
                0x0000000000000000        0xe build/default/production/_ext/1433801640/TMC4671.o
 .text.tmc4671_setFluxPI
                0x0000000000000000        0xe build/default/production/_ext/1433801640/TMC4671.o
 .text.tmc4671_setVelocityPI
                0x0000000000000000        0xe build/default/production/_ext/1433801640/TMC4671.o
 .text.tmc4671_setPositionPI
                0x0000000000000000        0xe build/default/production/_ext/1433801640/TMC4671.o
 .text.tmc4671_readFieldWithDependency
                0x0000000000000000       0x40 build/default/production/_ext/1433801640/TMC4671.o
 .bss.lastSystick.9890
                0x0000000000000000        0x4 build/default/production/_ext/1433801640/TMC4671.o
 .debug_info    0x0000000000000000     0x3d35 build/default/production/_ext/1433801640/TMC4671.o
 .debug_abbrev  0x0000000000000000      0x4c4 build/default/production/_ext/1433801640/TMC4671.o
 .debug_loc     0x0000000000000000     0x2824 build/default/production/_ext/1433801640/TMC4671.o
 .debug_aranges
                0x0000000000000000      0x208 build/default/production/_ext/1433801640/TMC4671.o
 .debug_ranges  0x0000000000000000      0x278 build/default/production/_ext/1433801640/TMC4671.o
 .debug_line    0x0000000000000000      0xde7 build/default/production/_ext/1433801640/TMC4671.o
 .debug_str     0x0000000000000000     0x1928 build/default/production/_ext/1433801640/TMC4671.o
 .comment       0x0000000000000000       0x2c build/default/production/_ext/1433801640/TMC4671.o
 .debug_frame   0x0000000000000000      0x650 build/default/production/_ext/1433801640/TMC4671.o
 .ARM.attributes
                0x0000000000000000       0x2c build/default/production/_ext/1433801640/TMC4671.o
 .text          0x0000000000000000        0x0 build/default/production/_ext/33404887/LinearRamp.o
 .data          0x0000000000000000        0x0 build/default/production/_ext/33404887/LinearRamp.o
 .bss           0x0000000000000000        0x0 build/default/production/_ext/33404887/LinearRamp.o
 .text.tmc_linearRamp_init
                0x0000000000000000       0x1c build/default/production/_ext/33404887/LinearRamp.o
 .text.tmc_linearRamp_computeRampVelocity
                0x0000000000000000       0x90 build/default/production/_ext/33404887/LinearRamp.o
 .text.tmc_linearRamp_computeRampPosition
                0x0000000000000000      0x198 build/default/production/_ext/33404887/LinearRamp.o
 .debug_info    0x0000000000000000      0x366 build/default/production/_ext/33404887/LinearRamp.o
 .debug_abbrev  0x0000000000000000      0x14d build/default/production/_ext/33404887/LinearRamp.o
 .debug_loc     0x0000000000000000      0x39d build/default/production/_ext/33404887/LinearRamp.o
 .debug_aranges
                0x0000000000000000       0x30 build/default/production/_ext/33404887/LinearRamp.o
 .debug_ranges  0x0000000000000000       0x38 build/default/production/_ext/33404887/LinearRamp.o
 .debug_line    0x0000000000000000      0x341 build/default/production/_ext/33404887/LinearRamp.o
 .debug_str     0x0000000000000000      0x453 build/default/production/_ext/33404887/LinearRamp.o
 .comment       0x0000000000000000       0x2c build/default/production/_ext/33404887/LinearRamp.o
 .debug_frame   0x0000000000000000       0x6c build/default/production/_ext/33404887/LinearRamp.o
 .ARM.attributes
                0x0000000000000000       0x2c build/default/production/_ext/33404887/LinearRamp.o
 .text          0x0000000000000000        0x0 build/default/production/_ext/33404887/LinearRamp1.o
 .data          0x0000000000000000        0x0 build/default/production/_ext/33404887/LinearRamp1.o
 .bss           0x0000000000000000        0x0 build/default/production/_ext/33404887/LinearRamp1.o
 .text.tmc_ramp_linear_init
                0x0000000000000000       0x2a build/default/production/_ext/33404887/LinearRamp1.o
 .text.tmc_ramp_linear_set_enabled
                0x0000000000000000        0x4 build/default/production/_ext/33404887/LinearRamp1.o
 .text.tmc_ramp_linear_set_maxVelocity
                0x0000000000000000        0x4 build/default/production/_ext/33404887/LinearRamp1.o
 .text.tmc_ramp_linear_set_targetPosition
                0x0000000000000000        0x4 build/default/production/_ext/33404887/LinearRamp1.o
 .text.tmc_ramp_linear_set_rampPosition
                0x0000000000000000        0x4 build/default/production/_ext/33404887/LinearRamp1.o
 .text.tmc_ramp_linear_set_targetVelocity
                0x0000000000000000        0x4 build/default/production/_ext/33404887/LinearRamp1.o
 .text.tmc_ramp_linear_set_rampVelocity
                0x0000000000000000        0x4 build/default/production/_ext/33404887/LinearRamp1.o
 .text.tmc_ramp_linear_set_acceleration
                0x0000000000000000        0x4 build/default/production/_ext/33404887/LinearRamp1.o
 .text.tmc_ramp_linear_set_mode
                0x0000000000000000        0x6 build/default/production/_ext/33404887/LinearRamp1.o
 .text.tmc_ramp_linear_set_precision
                0x0000000000000000        0x4 build/default/production/_ext/33404887/LinearRamp1.o
 .text.tmc_ramp_linear_set_homingDistance
                0x0000000000000000        0x4 build/default/production/_ext/33404887/LinearRamp1.o
 .text.tmc_ramp_linear_set_stopVelocity
                0x0000000000000000        0x4 build/default/production/_ext/33404887/LinearRamp1.o
 .text.tmc_ramp_linear_get_enabled
                0x0000000000000000        0x4 build/default/production/_ext/33404887/LinearRamp1.o
 .text.tmc_ramp_linear_get_maxVelocity
                0x0000000000000000        0x4 build/default/production/_ext/33404887/LinearRamp1.o
 .text.tmc_ramp_linear_get_targetPosition
                0x0000000000000000        0x4 build/default/production/_ext/33404887/LinearRamp1.o
 .text.tmc_ramp_linear_get_rampPosition
                0x0000000000000000        0x4 build/default/production/_ext/33404887/LinearRamp1.o
 .text.tmc_ramp_linear_get_targetVelocity
                0x0000000000000000        0x4 build/default/production/_ext/33404887/LinearRamp1.o
 .text.tmc_ramp_linear_get_rampVelocity
                0x0000000000000000        0x4 build/default/production/_ext/33404887/LinearRamp1.o
 .text.tmc_ramp_linear_get_acceleration
                0x0000000000000000        0x4 build/default/production/_ext/33404887/LinearRamp1.o
 .text.tmc_ramp_linear_get_state
                0x0000000000000000        0x6 build/default/production/_ext/33404887/LinearRamp1.o
 .text.tmc_ramp_linear_get_mode
                0x0000000000000000        0x6 build/default/production/_ext/33404887/LinearRamp1.o
 .text.tmc_ramp_linear_get_precision
                0x0000000000000000        0x4 build/default/production/_ext/33404887/LinearRamp1.o
 .text.tmc_ramp_linear_get_acceleration_limit
                0x0000000000000000       0x12 build/default/production/_ext/33404887/LinearRamp1.o
 .text.tmc_ramp_linear_get_velocity_limit
                0x0000000000000000        0x4 build/default/production/_ext/33404887/LinearRamp1.o
 .text.tmc_ramp_linear_get_homingDistance
                0x0000000000000000        0x4 build/default/production/_ext/33404887/LinearRamp1.o
 .text.tmc_ramp_linear_get_stopVelocity
                0x0000000000000000        0x4 build/default/production/_ext/33404887/LinearRamp1.o
 .text.tmc_ramp_linear_compute_velocity
                0x0000000000000000       0xcc build/default/production/_ext/33404887/LinearRamp1.o
 .text.tmc_ramp_linear_compute_position
                0x0000000000000000       0xee build/default/production/_ext/33404887/LinearRamp1.o
 .text.tmc_ramp_linear_compute
                0x0000000000000000       0x10 build/default/production/_ext/33404887/LinearRamp1.o
 .debug_info    0x0000000000000000      0x851 build/default/production/_ext/33404887/LinearRamp1.o
 .debug_abbrev  0x0000000000000000      0x1b5 build/default/production/_ext/33404887/LinearRamp1.o
 .debug_loc     0x0000000000000000      0x431 build/default/production/_ext/33404887/LinearRamp1.o
 .debug_aranges
                0x0000000000000000      0x100 build/default/production/_ext/33404887/LinearRamp1.o
 .debug_ranges  0x0000000000000000       0xf0 build/default/production/_ext/33404887/LinearRamp1.o
 .debug_line    0x0000000000000000      0x624 build/default/production/_ext/33404887/LinearRamp1.o
 .debug_str     0x0000000000000000      0x7fb build/default/production/_ext/33404887/LinearRamp1.o
 .comment       0x0000000000000000       0x2c build/default/production/_ext/33404887/LinearRamp1.o
 .debug_frame   0x0000000000000000      0x210 build/default/production/_ext/33404887/LinearRamp1.o
 .ARM.attributes
                0x0000000000000000       0x2c build/default/production/_ext/33404887/LinearRamp1.o
 .text          0x0000000000000000        0x0 build/default/production/_ext/33404887/Ramp.o
 .data          0x0000000000000000        0x0 build/default/production/_ext/33404887/Ramp.o
 .bss           0x0000000000000000        0x0 build/default/production/_ext/33404887/Ramp.o
 .text.tmc_ramp_init
                0x0000000000000000        0x8 build/default/production/_ext/33404887/Ramp.o
 .text.tmc_ramp_compute
                0x0000000000000000       0x22 build/default/production/_ext/33404887/Ramp.o
 .text.tmc_ramp_get_rampVelocity
                0x0000000000000000       0x14 build/default/production/_ext/33404887/Ramp.o
 .text.tmc_ramp_get_rampPosition
                0x0000000000000000       0x14 build/default/production/_ext/33404887/Ramp.o
 .text.tmc_ramp_get_enabled
                0x0000000000000000       0x14 build/default/production/_ext/33404887/Ramp.o
 .text.tmc_ramp_set_enabled
                0x0000000000000000        0xa build/default/production/_ext/33404887/Ramp.o
 .text.tmc_ramp_toggle_enabled
                0x0000000000000000       0x16 build/default/production/_ext/33404887/Ramp.o
 .debug_info    0x0000000000000000      0x54a build/default/production/_ext/33404887/Ramp.o
 .debug_abbrev  0x0000000000000000      0x146 build/default/production/_ext/33404887/Ramp.o
 .debug_loc     0x0000000000000000      0x52e build/default/production/_ext/33404887/Ramp.o
 .debug_aranges
                0x0000000000000000       0x50 build/default/production/_ext/33404887/Ramp.o
 .debug_ranges  0x0000000000000000       0x40 build/default/production/_ext/33404887/Ramp.o
 .debug_line    0x0000000000000000      0x1df build/default/production/_ext/33404887/Ramp.o
 .debug_str     0x0000000000000000      0x5b2 build/default/production/_ext/33404887/Ramp.o
 .comment       0x0000000000000000       0x2c build/default/production/_ext/33404887/Ramp.o
 .debug_frame   0x0000000000000000       0xc0 build/default/production/_ext/33404887/Ramp.o
 .ARM.attributes
                0x0000000000000000       0x2c build/default/production/_ext/33404887/Ramp.o
 .text          0x0000000000000000        0x0 build/default/production/_ext/2089947380/Step_Counter.o
 .data          0x0000000000000000        0x0 build/default/production/_ext/2089947380/Step_Counter.o
 .bss           0x0000000000000000        0x0 build/default/production/_ext/2089947380/Step_Counter.o
 .text.index_Interrupt_Callback
                0x0000000000000000       0x24 build/default/production/_ext/2089947380/Step_Counter.o
 .text.us_per_sec_to_rps
                0x0000000000000000       0x1c build/default/production/_ext/2089947380/Step_Counter.o
 .text.rps_to_us_per_sec
                0x0000000000000000       0x1c build/default/production/_ext/2089947380/Step_Counter.o
 .text.read_TMC2209_mscnt
                0x0000000000000000        0xe build/default/production/_ext/2089947380/Step_Counter.o
 .text.update_TMC2209_Step_Tracking
                0x0000000000000000       0xcc build/default/production/_ext/2089947380/Step_Counter.o
 .text.check_tmc2209_move_done
                0x0000000000000000        0x2 build/default/production/_ext/2089947380/Step_Counter.o
 .text.tmc2209_set_velocity
                0x0000000000000000       0x2a build/default/production/_ext/2089947380/Step_Counter.o
 .rodata.update_TMC2209_Step_Tracking.str1.4
                0x0000000000000000       0x34 build/default/production/_ext/2089947380/Step_Counter.o
 .debug_info    0x0000000000000000     0x1b75 build/default/production/_ext/2089947380/Step_Counter.o
 .debug_abbrev  0x0000000000000000      0x352 build/default/production/_ext/2089947380/Step_Counter.o
 .debug_loc     0x0000000000000000      0x342 build/default/production/_ext/2089947380/Step_Counter.o
 .debug_aranges
                0x0000000000000000       0x50 build/default/production/_ext/2089947380/Step_Counter.o
 .debug_ranges  0x0000000000000000       0x58 build/default/production/_ext/2089947380/Step_Counter.o
 .debug_line    0x0000000000000000      0x3a8 build/default/production/_ext/2089947380/Step_Counter.o
 .debug_str     0x0000000000000000     0x136a build/default/production/_ext/2089947380/Step_Counter.o
 .comment       0x0000000000000000       0x2c build/default/production/_ext/2089947380/Step_Counter.o
 .debug_frame   0x0000000000000000       0xb0 build/default/production/_ext/2089947380/Step_Counter.o
 .ARM.attributes
                0x0000000000000000       0x2c build/default/production/_ext/2089947380/Step_Counter.o
 .text          0x0000000000000000        0x0 build/default/production/_ext/2089947380/TMC2209.o
 .data          0x0000000000000000        0x0 build/default/production/_ext/2089947380/TMC2209.o
 .bss           0x0000000000000000        0x0 build/default/production/_ext/2089947380/TMC2209.o
 .text.CRC8     0x0000000000000000       0x4c build/default/production/_ext/2089947380/TMC2209.o
 .text.tmc2209_setDirtyBit
                0x0000000000000000       0x2c build/default/production/_ext/2089947380/TMC2209.o
 .text.tmc2209_getDirtyBit
                0x0000000000000000       0x28 build/default/production/_ext/2089947380/TMC2209.o
 .text.tmc2209_cache
                0x0000000000000000       0x58 build/default/production/_ext/2089947380/TMC2209.o
 .text.tmc2209_UART_write
                0x0000000000000000       0x22 build/default/production/_ext/2089947380/TMC2209.o
 .text.tmc2209_UART_read
                0x0000000000000000       0x34 build/default/production/_ext/2089947380/TMC2209.o
 .text.readRegisterUART
                0x0000000000000000      0x128 build/default/production/_ext/2089947380/TMC2209.o
 .text.tmc2209_readRegister
                0x0000000000000000        0x8 build/default/production/_ext/2089947380/TMC2209.o
 .text.writeRegisterUART
                0x0000000000000000       0x6a build/default/production/_ext/2089947380/TMC2209.o
 .text.tmc2209_writeRegister
                0x0000000000000000        0x8 build/default/production/_ext/2089947380/TMC2209.o
 .bss.tmc2209_dirtyBits
                0x0000000000000000       0x10 build/default/production/_ext/2089947380/TMC2209.o
 .bss.tmc2209_read_flag
                0x0000000000000000        0x1 build/default/production/_ext/2089947380/TMC2209.o
 .rodata.readRegisterUART.str1.4
                0x0000000000000000       0xa0 build/default/production/_ext/2089947380/TMC2209.o
 .rodata.tmc2209_UART_read.str1.4
                0x0000000000000000       0x20 build/default/production/_ext/2089947380/TMC2209.o
 .rodata.tmc2209_registerAccess
                0x0000000000000000       0x80 build/default/production/_ext/2089947380/TMC2209.o
 .rodata.tmcCRCTable_Poly7Reflected
                0x0000000000000000      0x100 build/default/production/_ext/2089947380/TMC2209.o
 .debug_info    0x0000000000000000      0xb43 build/default/production/_ext/2089947380/TMC2209.o
 .debug_abbrev  0x0000000000000000      0x24d build/default/production/_ext/2089947380/TMC2209.o
 .debug_loc     0x0000000000000000      0x8bf build/default/production/_ext/2089947380/TMC2209.o
 .debug_aranges
                0x0000000000000000       0x68 build/default/production/_ext/2089947380/TMC2209.o
 .debug_ranges  0x0000000000000000       0x58 build/default/production/_ext/2089947380/TMC2209.o
 .debug_line    0x0000000000000000      0x52e build/default/production/_ext/2089947380/TMC2209.o
 .debug_str     0x0000000000000000      0x567 build/default/production/_ext/2089947380/TMC2209.o
 .comment       0x0000000000000000       0x2c build/default/production/_ext/2089947380/TMC2209.o
 .debug_frame   0x0000000000000000      0x11c build/default/production/_ext/2089947380/TMC2209.o
 .ARM.attributes
                0x0000000000000000       0x2c build/default/production/_ext/2089947380/TMC2209.o
 COMMON         0x0000000000000000      0x200 build/default/production/_ext/2089947380/TMC2209.o
 .text          0x0000000000000000        0x0 build/default/production/_ext/2089947380/TMC2209_motion.o
 .data          0x0000000000000000        0x0 build/default/production/_ext/2089947380/TMC2209_motion.o
 .bss           0x0000000000000000        0x0 build/default/production/_ext/2089947380/TMC2209_motion.o
 .text.config_IOXP
                0x0000000000000000       0x14 build/default/production/_ext/2089947380/TMC2209_motion.o
 .debug_info    0x0000000000000000      0x141 build/default/production/_ext/2089947380/TMC2209_motion.o
 .debug_abbrev  0x0000000000000000       0x9c build/default/production/_ext/2089947380/TMC2209_motion.o
 .debug_loc     0x0000000000000000       0x20 build/default/production/_ext/2089947380/TMC2209_motion.o
 .debug_aranges
                0x0000000000000000       0x20 build/default/production/_ext/2089947380/TMC2209_motion.o
 .debug_ranges  0x0000000000000000       0x10 build/default/production/_ext/2089947380/TMC2209_motion.o
 .debug_line    0x0000000000000000       0x90 build/default/production/_ext/2089947380/TMC2209_motion.o
 .debug_str     0x0000000000000000      0x377 build/default/production/_ext/2089947380/TMC2209_motion.o
 .comment       0x0000000000000000       0x2c build/default/production/_ext/2089947380/TMC2209_motion.o
 .debug_frame   0x0000000000000000       0x28 build/default/production/_ext/2089947380/TMC2209_motion.o
 .ARM.attributes
                0x0000000000000000       0x2c build/default/production/_ext/2089947380/TMC2209_motion.o
 .text          0x0000000000000000        0x0 build/default/production/_ext/2089947380/TMC2209_Simple_Rotation.o
 .data          0x0000000000000000        0x0 build/default/production/_ext/2089947380/TMC2209_Simple_Rotation.o
 .bss           0x0000000000000000        0x0 build/default/production/_ext/2089947380/TMC2209_Simple_Rotation.o
 .text.init_tmc2209_motor
                0x0000000000000000       0x58 build/default/production/_ext/2089947380/TMC2209_Simple_Rotation.o
 .text.move_guide_motor
                0x0000000000000000       0x74 build/default/production/_ext/2089947380/TMC2209_Simple_Rotation.o
 .text.read_Init_Registers
                0x0000000000000000       0x4c build/default/production/_ext/2089947380/TMC2209_Simple_Rotation.o
 .rodata.init_tmc2209_motor.str1.4
                0x0000000000000000       0x24 build/default/production/_ext/2089947380/TMC2209_Simple_Rotation.o
 .rodata.move_guide_motor.str1.4
                0x0000000000000000       0x30 build/default/production/_ext/2089947380/TMC2209_Simple_Rotation.o
 .rodata.read_Init_Registers.str1.4
                0x0000000000000000       0x50 build/default/production/_ext/2089947380/TMC2209_Simple_Rotation.o
 .debug_info    0x0000000000000000     0x1b2d build/default/production/_ext/2089947380/TMC2209_Simple_Rotation.o
 .debug_abbrev  0x0000000000000000      0x294 build/default/production/_ext/2089947380/TMC2209_Simple_Rotation.o
 .debug_loc     0x0000000000000000      0x1b7 build/default/production/_ext/2089947380/TMC2209_Simple_Rotation.o
 .debug_aranges
                0x0000000000000000       0x30 build/default/production/_ext/2089947380/TMC2209_Simple_Rotation.o
 .debug_ranges  0x0000000000000000       0x20 build/default/production/_ext/2089947380/TMC2209_Simple_Rotation.o
 .debug_line    0x0000000000000000      0x28b build/default/production/_ext/2089947380/TMC2209_Simple_Rotation.o
 .debug_str     0x0000000000000000     0x1160 build/default/production/_ext/2089947380/TMC2209_Simple_Rotation.o
 .comment       0x0000000000000000       0x2c build/default/production/_ext/2089947380/TMC2209_Simple_Rotation.o
 .debug_frame   0x0000000000000000       0x68 build/default/production/_ext/2089947380/TMC2209_Simple_Rotation.o
 .ARM.attributes
                0x0000000000000000       0x2c build/default/production/_ext/2089947380/TMC2209_Simple_Rotation.o
 .text          0x0000000000000000        0x0 build/default/production/_ext/221583569/my_spi_func.o
 .data          0x0000000000000000        0x0 build/default/production/_ext/221583569/my_spi_func.o
 .bss           0x0000000000000000        0x0 build/default/production/_ext/221583569/my_spi_func.o
 .debug_line    0x0000000000000000        0x0 build/default/production/_ext/221583569/my_spi_func.o
 .debug_str     0x0000000000000000      0x1eb build/default/production/_ext/221583569/my_spi_func.o
 .comment       0x0000000000000000       0x2c build/default/production/_ext/221583569/my_spi_func.o
 .ARM.attributes
                0x0000000000000000       0x32 build/default/production/_ext/221583569/my_spi_func.o
 .text          0x0000000000000000        0x0 build/default/production/_ext/149991522/spi.o
 .data          0x0000000000000000        0x0 build/default/production/_ext/149991522/spi.o
 .bss           0x0000000000000000        0x0 build/default/production/_ext/149991522/spi.o
 .debug_line    0x0000000000000000        0x0 build/default/production/_ext/149991522/spi.o
 .debug_str     0x0000000000000000      0x1e2 build/default/production/_ext/149991522/spi.o
 .comment       0x0000000000000000       0x2c build/default/production/_ext/149991522/spi.o
 .ARM.attributes
                0x0000000000000000       0x32 build/default/production/_ext/149991522/spi.o
 .text          0x0000000000000000        0x0 build/default/production/_ext/1360937237/freertos_daemon.o
 .data          0x0000000000000000        0x0 build/default/production/_ext/1360937237/freertos_daemon.o
 .bss           0x0000000000000000        0x0 build/default/production/_ext/1360937237/freertos_daemon.o
 .text          0x0000000000000000        0x0 d:/mplab x ide/xc32_v4.60/bin/bin/../../lib/gcc/pic32c/8.3.1/../../../../pic32c/lib/thumb/v6-m/nofp\libpic32c.a(data_init.o)
 .data          0x0000000000000000        0x0 d:/mplab x ide/xc32_v4.60/bin/bin/../../lib/gcc/pic32c/8.3.1/../../../../pic32c/lib/thumb/v6-m/nofp\libpic32c.a(data_init.o)
 .xc_stack_usage
                0x0000000000000000       0x68 d:/mplab x ide/xc32_v4.60/bin/bin/../../lib/gcc/pic32c/8.3.1/../../../../pic32c/lib/thumb/v6-m/nofp\libpic32c.a(data_init.o)
 .xc_stack_usage.hdr
                0x0000000000000000        0xe d:/mplab x ide/xc32_v4.60/bin/bin/../../lib/gcc/pic32c/8.3.1/../../../../pic32c/lib/thumb/v6-m/nofp\libpic32c.a(data_init.o)
 .text          0x0000000000000000        0x0 d:/mplab x ide/xc32_v4.60/bin/bin/../../lib/gcc/pic32c/8.3.1/../../../../pic32c/lib/thumb/v6-m/nofp\libc-size-musl.a(memcpy.o)
 .data          0x0000000000000000        0x0 d:/mplab x ide/xc32_v4.60/bin/bin/../../lib/gcc/pic32c/8.3.1/../../../../pic32c/lib/thumb/v6-m/nofp\libc-size-musl.a(memcpy.o)
 .bss           0x0000000000000000        0x0 d:/mplab x ide/xc32_v4.60/bin/bin/../../lib/gcc/pic32c/8.3.1/../../../../pic32c/lib/thumb/v6-m/nofp\libc-size-musl.a(memcpy.o)
 .xc_stack_usage
                0x0000000000000000       0x14 d:/mplab x ide/xc32_v4.60/bin/bin/../../lib/gcc/pic32c/8.3.1/../../../../pic32c/lib/thumb/v6-m/nofp\libc-size-musl.a(memcpy.o)
 .xc_stack_usage.hdr
                0x0000000000000000        0xe d:/mplab x ide/xc32_v4.60/bin/bin/../../lib/gcc/pic32c/8.3.1/../../../../pic32c/lib/thumb/v6-m/nofp\libc-size-musl.a(memcpy.o)
 .text          0x0000000000000000        0x0 d:/mplab x ide/xc32_v4.60/bin/bin/../../lib/gcc/pic32c/8.3.1/../../../../pic32c/lib/thumb/v6-m/nofp\libc-size-musl.a(memset.o)
 .data          0x0000000000000000        0x0 d:/mplab x ide/xc32_v4.60/bin/bin/../../lib/gcc/pic32c/8.3.1/../../../../pic32c/lib/thumb/v6-m/nofp\libc-size-musl.a(memset.o)
 .bss           0x0000000000000000        0x0 d:/mplab x ide/xc32_v4.60/bin/bin/../../lib/gcc/pic32c/8.3.1/../../../../pic32c/lib/thumb/v6-m/nofp\libc-size-musl.a(memset.o)
 .xc_stack_usage
                0x0000000000000000       0x14 d:/mplab x ide/xc32_v4.60/bin/bin/../../lib/gcc/pic32c/8.3.1/../../../../pic32c/lib/thumb/v6-m/nofp\libc-size-musl.a(memset.o)
 .xc_stack_usage.hdr
                0x0000000000000000        0xe d:/mplab x ide/xc32_v4.60/bin/bin/../../lib/gcc/pic32c/8.3.1/../../../../pic32c/lib/thumb/v6-m/nofp\libc-size-musl.a(memset.o)
 .text          0x0000000000000000        0x0 d:/mplab x ide/xc32_v4.60/bin/bin/../../lib/gcc/pic32c/8.3.1/../../../../pic32c/lib/thumb/v6-m/nofp\libc-size-musl.a(strlen.o)
 .data          0x0000000000000000        0x0 d:/mplab x ide/xc32_v4.60/bin/bin/../../lib/gcc/pic32c/8.3.1/../../../../pic32c/lib/thumb/v6-m/nofp\libc-size-musl.a(strlen.o)
 .bss           0x0000000000000000        0x0 d:/mplab x ide/xc32_v4.60/bin/bin/../../lib/gcc/pic32c/8.3.1/../../../../pic32c/lib/thumb/v6-m/nofp\libc-size-musl.a(strlen.o)
 .xc_stack_usage
                0x0000000000000000       0x14 d:/mplab x ide/xc32_v4.60/bin/bin/../../lib/gcc/pic32c/8.3.1/../../../../pic32c/lib/thumb/v6-m/nofp\libc-size-musl.a(strlen.o)
 .text.strlen   0x0000000000000000       0x18 d:/mplab x ide/xc32_v4.60/bin/bin/../../lib/gcc/pic32c/8.3.1/../../../../pic32c/lib/thumb/v6-m/nofp\libc-size-musl.a(strlen.o)
 .xc_stack_usage.hdr
                0x0000000000000000        0xe d:/mplab x ide/xc32_v4.60/bin/bin/../../lib/gcc/pic32c/8.3.1/../../../../pic32c/lib/thumb/v6-m/nofp\libc-size-musl.a(strlen.o)
 .debug_info    0x0000000000000000       0xa4 d:/mplab x ide/xc32_v4.60/bin/bin/../../lib/gcc/pic32c/8.3.1/../../../../pic32c/lib/thumb/v6-m/nofp\libc-size-musl.a(strlen.o)
 .debug_abbrev  0x0000000000000000       0x91 d:/mplab x ide/xc32_v4.60/bin/bin/../../lib/gcc/pic32c/8.3.1/../../../../pic32c/lib/thumb/v6-m/nofp\libc-size-musl.a(strlen.o)
 .debug_loc     0x0000000000000000       0x81 d:/mplab x ide/xc32_v4.60/bin/bin/../../lib/gcc/pic32c/8.3.1/../../../../pic32c/lib/thumb/v6-m/nofp\libc-size-musl.a(strlen.o)
 .debug_aranges
                0x0000000000000000       0x20 d:/mplab x ide/xc32_v4.60/bin/bin/../../lib/gcc/pic32c/8.3.1/../../../../pic32c/lib/thumb/v6-m/nofp\libc-size-musl.a(strlen.o)
 .debug_ranges  0x0000000000000000       0x10 d:/mplab x ide/xc32_v4.60/bin/bin/../../lib/gcc/pic32c/8.3.1/../../../../pic32c/lib/thumb/v6-m/nofp\libc-size-musl.a(strlen.o)
 .debug_line    0x0000000000000000       0xee d:/mplab x ide/xc32_v4.60/bin/bin/../../lib/gcc/pic32c/8.3.1/../../../../pic32c/lib/thumb/v6-m/nofp\libc-size-musl.a(strlen.o)
 .debug_str     0x0000000000000000      0x217 d:/mplab x ide/xc32_v4.60/bin/bin/../../lib/gcc/pic32c/8.3.1/../../../../pic32c/lib/thumb/v6-m/nofp\libc-size-musl.a(strlen.o)
 .comment       0x0000000000000000       0x2c d:/mplab x ide/xc32_v4.60/bin/bin/../../lib/gcc/pic32c/8.3.1/../../../../pic32c/lib/thumb/v6-m/nofp\libc-size-musl.a(strlen.o)
 .note.GNU-stack
                0x0000000000000000        0x0 d:/mplab x ide/xc32_v4.60/bin/bin/../../lib/gcc/pic32c/8.3.1/../../../../pic32c/lib/thumb/v6-m/nofp\libc-size-musl.a(strlen.o)
 .debug_frame   0x0000000000000000       0x20 d:/mplab x ide/xc32_v4.60/bin/bin/../../lib/gcc/pic32c/8.3.1/../../../../pic32c/lib/thumb/v6-m/nofp\libc-size-musl.a(strlen.o)
 .ARM.attributes
                0x0000000000000000       0x2e d:/mplab x ide/xc32_v4.60/bin/bin/../../lib/gcc/pic32c/8.3.1/../../../../pic32c/lib/thumb/v6-m/nofp\libc-size-musl.a(strlen.o)
 .ARM.attributes
                0x0000000000000000       0x1c d:/mplab x ide/xc32_v4.60/bin/bin/../../lib/gcc/pic32c/8.3.1/../../../../pic32c/lib/thumb/v6-m/nofp\libm-fast-emfloat.a(__aeabi_fmul.o)
 .text.__aeabi_fmul
                0x0000000000000000       0xb6 d:/mplab x ide/xc32_v4.60/bin/bin/../../lib/gcc/pic32c/8.3.1/../../../../pic32c/lib/thumb/v6-m/nofp\libm-fast-emfloat.a(__aeabi_fmul.o)
 .xc_stack_usage.hdr
                0x0000000000000000        0xe d:/mplab x ide/xc32_v4.60/bin/bin/../../lib/gcc/pic32c/8.3.1/../../../../pic32c/lib/thumb/v6-m/nofp\libm-fast-emfloat.a(__aeabi_fmul.o)
 .xc_stack_usage
                0x0000000000000000       0x1a d:/mplab x ide/xc32_v4.60/bin/bin/../../lib/gcc/pic32c/8.3.1/../../../../pic32c/lib/thumb/v6-m/nofp\libm-fast-emfloat.a(__aeabi_fmul.o)
 .ARM.attributes
                0x0000000000000000       0x1c d:/mplab x ide/xc32_v4.60/bin/bin/../../lib/gcc/pic32c/8.3.1/../../../../pic32c/lib/thumb/v6-m/nofp\libm-fast-emfloat.a(__aeabi_fdiv.o)
 .text.__aeabi_fdiv
                0x0000000000000000       0x94 d:/mplab x ide/xc32_v4.60/bin/bin/../../lib/gcc/pic32c/8.3.1/../../../../pic32c/lib/thumb/v6-m/nofp\libm-fast-emfloat.a(__aeabi_fdiv.o)
 .xc_stack_usage.hdr
                0x0000000000000000        0xe d:/mplab x ide/xc32_v4.60/bin/bin/../../lib/gcc/pic32c/8.3.1/../../../../pic32c/lib/thumb/v6-m/nofp\libm-fast-emfloat.a(__aeabi_fdiv.o)
 .xc_stack_usage
                0x0000000000000000       0x1a d:/mplab x ide/xc32_v4.60/bin/bin/../../lib/gcc/pic32c/8.3.1/../../../../pic32c/lib/thumb/v6-m/nofp\libm-fast-emfloat.a(__aeabi_fdiv.o)
 .ARM.attributes
                0x0000000000000000       0x1c d:/mplab x ide/xc32_v4.60/bin/bin/../../lib/gcc/pic32c/8.3.1/../../../../pic32c/lib/thumb/v6-m/nofp\libm-fast-emfloat.a(__aeabi_fcmplt.o)
 .text.__aeabi_fcmplt
                0x0000000000000000       0x2e d:/mplab x ide/xc32_v4.60/bin/bin/../../lib/gcc/pic32c/8.3.1/../../../../pic32c/lib/thumb/v6-m/nofp\libm-fast-emfloat.a(__aeabi_fcmplt.o)
 .xc_stack_usage.hdr
                0x0000000000000000        0xe d:/mplab x ide/xc32_v4.60/bin/bin/../../lib/gcc/pic32c/8.3.1/../../../../pic32c/lib/thumb/v6-m/nofp\libm-fast-emfloat.a(__aeabi_fcmplt.o)
 .xc_stack_usage
                0x0000000000000000       0x1c d:/mplab x ide/xc32_v4.60/bin/bin/../../lib/gcc/pic32c/8.3.1/../../../../pic32c/lib/thumb/v6-m/nofp\libm-fast-emfloat.a(__aeabi_fcmplt.o)
 .ARM.attributes
                0x0000000000000000       0x1c d:/mplab x ide/xc32_v4.60/bin/bin/../../lib/gcc/pic32c/8.3.1/../../../../pic32c/lib/thumb/v6-m/nofp\libm-fast-emfloat.a(__aeabi_f2iz.o)
 .text.__aeabi_f2iz
                0x0000000000000000       0x3e d:/mplab x ide/xc32_v4.60/bin/bin/../../lib/gcc/pic32c/8.3.1/../../../../pic32c/lib/thumb/v6-m/nofp\libm-fast-emfloat.a(__aeabi_f2iz.o)
 .xc_stack_usage.hdr
                0x0000000000000000        0xe d:/mplab x ide/xc32_v4.60/bin/bin/../../lib/gcc/pic32c/8.3.1/../../../../pic32c/lib/thumb/v6-m/nofp\libm-fast-emfloat.a(__aeabi_f2iz.o)
 .xc_stack_usage
                0x0000000000000000       0x1a d:/mplab x ide/xc32_v4.60/bin/bin/../../lib/gcc/pic32c/8.3.1/../../../../pic32c/lib/thumb/v6-m/nofp\libm-fast-emfloat.a(__aeabi_f2iz.o)
 .ARM.attributes
                0x0000000000000000       0x1c d:/mplab x ide/xc32_v4.60/bin/bin/../../lib/gcc/pic32c/8.3.1/../../../../pic32c/lib/thumb/v6-m/nofp\libm-fast-emfloat.a(__aeabi_f2uiz.o)
 .text.__aeabi_f2uiz
                0x0000000000000000       0x24 d:/mplab x ide/xc32_v4.60/bin/bin/../../lib/gcc/pic32c/8.3.1/../../../../pic32c/lib/thumb/v6-m/nofp\libm-fast-emfloat.a(__aeabi_f2uiz.o)
 .xc_stack_usage.hdr
                0x0000000000000000        0xe d:/mplab x ide/xc32_v4.60/bin/bin/../../lib/gcc/pic32c/8.3.1/../../../../pic32c/lib/thumb/v6-m/nofp\libm-fast-emfloat.a(__aeabi_f2uiz.o)
 .xc_stack_usage
                0x0000000000000000       0x1b d:/mplab x ide/xc32_v4.60/bin/bin/../../lib/gcc/pic32c/8.3.1/../../../../pic32c/lib/thumb/v6-m/nofp\libm-fast-emfloat.a(__aeabi_f2uiz.o)
 .ARM.attributes
                0x0000000000000000       0x1c d:/mplab x ide/xc32_v4.60/bin/bin/../../lib/gcc/pic32c/8.3.1/../../../../pic32c/lib/thumb/v6-m/nofp\libm-fast-emfloat.a(__aeabi_i2f.o)
 .text.__aeabi_i2f
                0x0000000000000000       0x26 d:/mplab x ide/xc32_v4.60/bin/bin/../../lib/gcc/pic32c/8.3.1/../../../../pic32c/lib/thumb/v6-m/nofp\libm-fast-emfloat.a(__aeabi_i2f.o)
 .xc_stack_usage.hdr
                0x0000000000000000        0xe d:/mplab x ide/xc32_v4.60/bin/bin/../../lib/gcc/pic32c/8.3.1/../../../../pic32c/lib/thumb/v6-m/nofp\libm-fast-emfloat.a(__aeabi_i2f.o)
 .xc_stack_usage
                0x0000000000000000       0x19 d:/mplab x ide/xc32_v4.60/bin/bin/../../lib/gcc/pic32c/8.3.1/../../../../pic32c/lib/thumb/v6-m/nofp\libm-fast-emfloat.a(__aeabi_i2f.o)
 .ARM.attributes
                0x0000000000000000       0x1c d:/mplab x ide/xc32_v4.60/bin/bin/../../lib/gcc/pic32c/8.3.1/../../../../pic32c/lib/thumb/v6-m/nofp\libm-fast-emfloat.a(__aeabi_ui2f.o)
 .text.__aeabi_ui2f
                0x0000000000000000       0x1e d:/mplab x ide/xc32_v4.60/bin/bin/../../lib/gcc/pic32c/8.3.1/../../../../pic32c/lib/thumb/v6-m/nofp\libm-fast-emfloat.a(__aeabi_ui2f.o)
 .xc_stack_usage.hdr
                0x0000000000000000        0xe d:/mplab x ide/xc32_v4.60/bin/bin/../../lib/gcc/pic32c/8.3.1/../../../../pic32c/lib/thumb/v6-m/nofp\libm-fast-emfloat.a(__aeabi_ui2f.o)
 .xc_stack_usage
                0x0000000000000000       0x1a d:/mplab x ide/xc32_v4.60/bin/bin/../../lib/gcc/pic32c/8.3.1/../../../../pic32c/lib/thumb/v6-m/nofp\libm-fast-emfloat.a(__aeabi_ui2f.o)
 .text          0x0000000000000000        0x0 d:/mplab x ide/xc32_v4.60/bin/bin/../../lib/gcc/pic32c/8.3.1/../../../../pic32c/lib/thumb/v6-m/nofp\libc-musl.a(__libc_start_main.o)
 .data          0x0000000000000000        0x0 d:/mplab x ide/xc32_v4.60/bin/bin/../../lib/gcc/pic32c/8.3.1/../../../../pic32c/lib/thumb/v6-m/nofp\libc-musl.a(__libc_start_main.o)
 .bss           0x0000000000000000        0x0 d:/mplab x ide/xc32_v4.60/bin/bin/../../lib/gcc/pic32c/8.3.1/../../../../pic32c/lib/thumb/v6-m/nofp\libc-musl.a(__libc_start_main.o)
 .xc_stack_usage
                0x0000000000000000       0x34 d:/mplab x ide/xc32_v4.60/bin/bin/../../lib/gcc/pic32c/8.3.1/../../../../pic32c/lib/thumb/v6-m/nofp\libc-musl.a(__libc_start_main.o)
 .xc_stack_usage.hdr
                0x0000000000000000        0xe d:/mplab x ide/xc32_v4.60/bin/bin/../../lib/gcc/pic32c/8.3.1/../../../../pic32c/lib/thumb/v6-m/nofp\libc-musl.a(__libc_start_main.o)
 .text          0x0000000000000000        0x0 d:/mplab x ide/xc32_v4.60/bin/bin/../../lib/gcc/pic32c/8.3.1/../../../../pic32c/lib/thumb/v6-m/nofp\libc-musl.a(libc.o)
 .data          0x0000000000000000        0x0 d:/mplab x ide/xc32_v4.60/bin/bin/../../lib/gcc/pic32c/8.3.1/../../../../pic32c/lib/thumb/v6-m/nofp\libc-musl.a(libc.o)
 .xc_stack_usage.hdr
                0x0000000000000000        0xe d:/mplab x ide/xc32_v4.60/bin/bin/../../lib/gcc/pic32c/8.3.1/../../../../pic32c/lib/thumb/v6-m/nofp\libc-musl.a(libc.o)
 .text          0x0000000000000000        0x0 d:/mplab x ide/xc32_v4.60/bin/bin/../../lib/gcc/pic32c/8.3.1/../../../../pic32c/lib/thumb/v6-m/nofp\libc-musl.a(vsnprintf.o)
 .data          0x0000000000000000        0x0 d:/mplab x ide/xc32_v4.60/bin/bin/../../lib/gcc/pic32c/8.3.1/../../../../pic32c/lib/thumb/v6-m/nofp\libc-musl.a(vsnprintf.o)
 .bss           0x0000000000000000        0x0 d:/mplab x ide/xc32_v4.60/bin/bin/../../lib/gcc/pic32c/8.3.1/../../../../pic32c/lib/thumb/v6-m/nofp\libc-musl.a(vsnprintf.o)
 .xc_stack_usage
                0x0000000000000000       0x17 d:/mplab x ide/xc32_v4.60/bin/bin/../../lib/gcc/pic32c/8.3.1/../../../../pic32c/lib/thumb/v6-m/nofp\libc-musl.a(vsnprintf.o)
 .text.vsnprintf
                0x0000000000000000       0x64 d:/mplab x ide/xc32_v4.60/bin/bin/../../lib/gcc/pic32c/8.3.1/../../../../pic32c/lib/thumb/v6-m/nofp\libc-musl.a(vsnprintf.o)
 .xc_stack_usage.hdr
                0x0000000000000000        0xe d:/mplab x ide/xc32_v4.60/bin/bin/../../lib/gcc/pic32c/8.3.1/../../../../pic32c/lib/thumb/v6-m/nofp\libc-musl.a(vsnprintf.o)
 .debug_info    0x0000000000000000      0x43a d:/mplab x ide/xc32_v4.60/bin/bin/../../lib/gcc/pic32c/8.3.1/../../../../pic32c/lib/thumb/v6-m/nofp\libc-musl.a(vsnprintf.o)
 .debug_abbrev  0x0000000000000000      0x195 d:/mplab x ide/xc32_v4.60/bin/bin/../../lib/gcc/pic32c/8.3.1/../../../../pic32c/lib/thumb/v6-m/nofp\libc-musl.a(vsnprintf.o)
 .debug_loc     0x0000000000000000      0x10c d:/mplab x ide/xc32_v4.60/bin/bin/../../lib/gcc/pic32c/8.3.1/../../../../pic32c/lib/thumb/v6-m/nofp\libc-musl.a(vsnprintf.o)
 .debug_aranges
                0x0000000000000000       0x20 d:/mplab x ide/xc32_v4.60/bin/bin/../../lib/gcc/pic32c/8.3.1/../../../../pic32c/lib/thumb/v6-m/nofp\libc-musl.a(vsnprintf.o)
 .debug_ranges  0x0000000000000000       0x10 d:/mplab x ide/xc32_v4.60/bin/bin/../../lib/gcc/pic32c/8.3.1/../../../../pic32c/lib/thumb/v6-m/nofp\libc-musl.a(vsnprintf.o)
 .debug_line    0x0000000000000000      0x23a d:/mplab x ide/xc32_v4.60/bin/bin/../../lib/gcc/pic32c/8.3.1/../../../../pic32c/lib/thumb/v6-m/nofp\libc-musl.a(vsnprintf.o)
 .debug_str     0x0000000000000000      0x381 d:/mplab x ide/xc32_v4.60/bin/bin/../../lib/gcc/pic32c/8.3.1/../../../../pic32c/lib/thumb/v6-m/nofp\libc-musl.a(vsnprintf.o)
 .comment       0x0000000000000000       0x2c d:/mplab x ide/xc32_v4.60/bin/bin/../../lib/gcc/pic32c/8.3.1/../../../../pic32c/lib/thumb/v6-m/nofp\libc-musl.a(vsnprintf.o)
 .note.GNU-stack
                0x0000000000000000        0x0 d:/mplab x ide/xc32_v4.60/bin/bin/../../lib/gcc/pic32c/8.3.1/../../../../pic32c/lib/thumb/v6-m/nofp\libc-musl.a(vsnprintf.o)
 .debug_frame   0x0000000000000000       0x34 d:/mplab x ide/xc32_v4.60/bin/bin/../../lib/gcc/pic32c/8.3.1/../../../../pic32c/lib/thumb/v6-m/nofp\libc-musl.a(vsnprintf.o)
 .ARM.attributes
                0x0000000000000000       0x2e d:/mplab x ide/xc32_v4.60/bin/bin/../../lib/gcc/pic32c/8.3.1/../../../../pic32c/lib/thumb/v6-m/nofp\libc-musl.a(vsnprintf.o)
 .text          0x0000000000000000        0x0 d:/mplab x ide/xc32_v4.60/bin/bin/../../lib/gcc/pic32c/8.3.1/../../../../pic32c/lib/thumb/v6-m/nofp\libc-musl.a(printf.o)
 .data          0x0000000000000000        0x0 d:/mplab x ide/xc32_v4.60/bin/bin/../../lib/gcc/pic32c/8.3.1/../../../../pic32c/lib/thumb/v6-m/nofp\libc-musl.a(printf.o)
 .bss           0x0000000000000000        0x0 d:/mplab x ide/xc32_v4.60/bin/bin/../../lib/gcc/pic32c/8.3.1/../../../../pic32c/lib/thumb/v6-m/nofp\libc-musl.a(printf.o)
 .xc_stack_usage
                0x0000000000000000       0x14 d:/mplab x ide/xc32_v4.60/bin/bin/../../lib/gcc/pic32c/8.3.1/../../../../pic32c/lib/thumb/v6-m/nofp\libc-musl.a(printf.o)
 .text.printf   0x0000000000000000       0x20 d:/mplab x ide/xc32_v4.60/bin/bin/../../lib/gcc/pic32c/8.3.1/../../../../pic32c/lib/thumb/v6-m/nofp\libc-musl.a(printf.o)
 .xc_stack_usage.hdr
                0x0000000000000000        0xe d:/mplab x ide/xc32_v4.60/bin/bin/../../lib/gcc/pic32c/8.3.1/../../../../pic32c/lib/thumb/v6-m/nofp\libc-musl.a(printf.o)
 .debug_info    0x0000000000000000      0x129 d:/mplab x ide/xc32_v4.60/bin/bin/../../lib/gcc/pic32c/8.3.1/../../../../pic32c/lib/thumb/v6-m/nofp\libc-musl.a(printf.o)
 .debug_abbrev  0x0000000000000000      0x11d d:/mplab x ide/xc32_v4.60/bin/bin/../../lib/gcc/pic32c/8.3.1/../../../../pic32c/lib/thumb/v6-m/nofp\libc-musl.a(printf.o)
 .debug_loc     0x0000000000000000       0x41 d:/mplab x ide/xc32_v4.60/bin/bin/../../lib/gcc/pic32c/8.3.1/../../../../pic32c/lib/thumb/v6-m/nofp\libc-musl.a(printf.o)
 .debug_aranges
                0x0000000000000000       0x20 d:/mplab x ide/xc32_v4.60/bin/bin/../../lib/gcc/pic32c/8.3.1/../../../../pic32c/lib/thumb/v6-m/nofp\libc-musl.a(printf.o)
 .debug_ranges  0x0000000000000000       0x10 d:/mplab x ide/xc32_v4.60/bin/bin/../../lib/gcc/pic32c/8.3.1/../../../../pic32c/lib/thumb/v6-m/nofp\libc-musl.a(printf.o)
 .debug_line    0x0000000000000000      0x15e d:/mplab x ide/xc32_v4.60/bin/bin/../../lib/gcc/pic32c/8.3.1/../../../../pic32c/lib/thumb/v6-m/nofp\libc-musl.a(printf.o)
 .debug_str     0x0000000000000000      0x23d d:/mplab x ide/xc32_v4.60/bin/bin/../../lib/gcc/pic32c/8.3.1/../../../../pic32c/lib/thumb/v6-m/nofp\libc-musl.a(printf.o)
 .comment       0x0000000000000000       0x2c d:/mplab x ide/xc32_v4.60/bin/bin/../../lib/gcc/pic32c/8.3.1/../../../../pic32c/lib/thumb/v6-m/nofp\libc-musl.a(printf.o)
 .note.GNU-stack
                0x0000000000000000        0x0 d:/mplab x ide/xc32_v4.60/bin/bin/../../lib/gcc/pic32c/8.3.1/../../../../pic32c/lib/thumb/v6-m/nofp\libc-musl.a(printf.o)
 .debug_frame   0x0000000000000000       0x30 d:/mplab x ide/xc32_v4.60/bin/bin/../../lib/gcc/pic32c/8.3.1/../../../../pic32c/lib/thumb/v6-m/nofp\libc-musl.a(printf.o)
 .ARM.attributes
                0x0000000000000000       0x2e d:/mplab x ide/xc32_v4.60/bin/bin/../../lib/gcc/pic32c/8.3.1/../../../../pic32c/lib/thumb/v6-m/nofp\libc-musl.a(printf.o)
 .text          0x0000000000000000        0x0 d:/mplab x ide/xc32_v4.60/bin/bin/../../lib/gcc/pic32c/8.3.1/../../../../pic32c/lib/thumb/v6-m/nofp\libc-musl.a(puts.o)
 .data          0x0000000000000000        0x0 d:/mplab x ide/xc32_v4.60/bin/bin/../../lib/gcc/pic32c/8.3.1/../../../../pic32c/lib/thumb/v6-m/nofp\libc-musl.a(puts.o)
 .bss           0x0000000000000000        0x0 d:/mplab x ide/xc32_v4.60/bin/bin/../../lib/gcc/pic32c/8.3.1/../../../../pic32c/lib/thumb/v6-m/nofp\libc-musl.a(puts.o)
 .xc_stack_usage
                0x0000000000000000       0x12 d:/mplab x ide/xc32_v4.60/bin/bin/../../lib/gcc/pic32c/8.3.1/../../../../pic32c/lib/thumb/v6-m/nofp\libc-musl.a(puts.o)
 .text.puts     0x0000000000000000       0x28 d:/mplab x ide/xc32_v4.60/bin/bin/../../lib/gcc/pic32c/8.3.1/../../../../pic32c/lib/thumb/v6-m/nofp\libc-musl.a(puts.o)
 .xc_stack_usage.hdr
                0x0000000000000000        0xe d:/mplab x ide/xc32_v4.60/bin/bin/../../lib/gcc/pic32c/8.3.1/../../../../pic32c/lib/thumb/v6-m/nofp\libc-musl.a(puts.o)
 .debug_info    0x0000000000000000      0x3ac d:/mplab x ide/xc32_v4.60/bin/bin/../../lib/gcc/pic32c/8.3.1/../../../../pic32c/lib/thumb/v6-m/nofp\libc-musl.a(puts.o)
 .debug_abbrev  0x0000000000000000      0x159 d:/mplab x ide/xc32_v4.60/bin/bin/../../lib/gcc/pic32c/8.3.1/../../../../pic32c/lib/thumb/v6-m/nofp\libc-musl.a(puts.o)
 .debug_loc     0x0000000000000000       0x6a d:/mplab x ide/xc32_v4.60/bin/bin/../../lib/gcc/pic32c/8.3.1/../../../../pic32c/lib/thumb/v6-m/nofp\libc-musl.a(puts.o)
 .debug_aranges
                0x0000000000000000       0x20 d:/mplab x ide/xc32_v4.60/bin/bin/../../lib/gcc/pic32c/8.3.1/../../../../pic32c/lib/thumb/v6-m/nofp\libc-musl.a(puts.o)
 .debug_ranges  0x0000000000000000       0x10 d:/mplab x ide/xc32_v4.60/bin/bin/../../lib/gcc/pic32c/8.3.1/../../../../pic32c/lib/thumb/v6-m/nofp\libc-musl.a(puts.o)
 .debug_line    0x0000000000000000      0x1c6 d:/mplab x ide/xc32_v4.60/bin/bin/../../lib/gcc/pic32c/8.3.1/../../../../pic32c/lib/thumb/v6-m/nofp\libc-musl.a(puts.o)
 .debug_str     0x0000000000000000      0x344 d:/mplab x ide/xc32_v4.60/bin/bin/../../lib/gcc/pic32c/8.3.1/../../../../pic32c/lib/thumb/v6-m/nofp\libc-musl.a(puts.o)
 .comment       0x0000000000000000       0x2c d:/mplab x ide/xc32_v4.60/bin/bin/../../lib/gcc/pic32c/8.3.1/../../../../pic32c/lib/thumb/v6-m/nofp\libc-musl.a(puts.o)
 .note.GNU-stack
                0x0000000000000000        0x0 d:/mplab x ide/xc32_v4.60/bin/bin/../../lib/gcc/pic32c/8.3.1/../../../../pic32c/lib/thumb/v6-m/nofp\libc-musl.a(puts.o)
 .debug_frame   0x0000000000000000       0x28 d:/mplab x ide/xc32_v4.60/bin/bin/../../lib/gcc/pic32c/8.3.1/../../../../pic32c/lib/thumb/v6-m/nofp\libc-musl.a(puts.o)
 .ARM.attributes
                0x0000000000000000       0x2e d:/mplab x ide/xc32_v4.60/bin/bin/../../lib/gcc/pic32c/8.3.1/../../../../pic32c/lib/thumb/v6-m/nofp\libc-musl.a(puts.o)
 .text          0x0000000000000000        0x0 d:/mplab x ide/xc32_v4.60/bin/bin/../../lib/gcc/pic32c/8.3.1/../../../../pic32c/lib/thumb/v6-m/nofp\libc-musl.a(__environ.o)
 .data          0x0000000000000000        0x0 d:/mplab x ide/xc32_v4.60/bin/bin/../../lib/gcc/pic32c/8.3.1/../../../../pic32c/lib/thumb/v6-m/nofp\libc-musl.a(__environ.o)
 .xc_stack_usage.hdr
                0x0000000000000000        0xe d:/mplab x ide/xc32_v4.60/bin/bin/../../lib/gcc/pic32c/8.3.1/../../../../pic32c/lib/thumb/v6-m/nofp\libc-musl.a(__environ.o)
 .text          0x0000000000000000        0x0 d:/mplab x ide/xc32_v4.60/bin/bin/../../lib/gcc/pic32c/8.3.1/../../../../pic32c/lib/thumb/v6-m/nofp\libc-musl.a(__errno_location.o)
 .data          0x0000000000000000        0x0 d:/mplab x ide/xc32_v4.60/bin/bin/../../lib/gcc/pic32c/8.3.1/../../../../pic32c/lib/thumb/v6-m/nofp\libc-musl.a(__errno_location.o)
 .bss           0x0000000000000000        0x4 d:/mplab x ide/xc32_v4.60/bin/bin/../../lib/gcc/pic32c/8.3.1/../../../../pic32c/lib/thumb/v6-m/nofp\libc-musl.a(__errno_location.o)
 .xc_stack_usage.hdr
                0x0000000000000000        0xe d:/mplab x ide/xc32_v4.60/bin/bin/../../lib/gcc/pic32c/8.3.1/../../../../pic32c/lib/thumb/v6-m/nofp\libc-musl.a(__errno_location.o)
 .debug_info    0x0000000000000000       0x5b d:/mplab x ide/xc32_v4.60/bin/bin/../../lib/gcc/pic32c/8.3.1/../../../../pic32c/lib/thumb/v6-m/nofp\libc-musl.a(__errno_location.o)
 .debug_abbrev  0x0000000000000000       0x39 d:/mplab x ide/xc32_v4.60/bin/bin/../../lib/gcc/pic32c/8.3.1/../../../../pic32c/lib/thumb/v6-m/nofp\libc-musl.a(__errno_location.o)
 .debug_aranges
                0x0000000000000000       0x18 d:/mplab x ide/xc32_v4.60/bin/bin/../../lib/gcc/pic32c/8.3.1/../../../../pic32c/lib/thumb/v6-m/nofp\libc-musl.a(__errno_location.o)
 .debug_line    0x0000000000000000       0x9a d:/mplab x ide/xc32_v4.60/bin/bin/../../lib/gcc/pic32c/8.3.1/../../../../pic32c/lib/thumb/v6-m/nofp\libc-musl.a(__errno_location.o)
 .debug_str     0x0000000000000000      0x229 d:/mplab x ide/xc32_v4.60/bin/bin/../../lib/gcc/pic32c/8.3.1/../../../../pic32c/lib/thumb/v6-m/nofp\libc-musl.a(__errno_location.o)
 .comment       0x0000000000000000       0x2c d:/mplab x ide/xc32_v4.60/bin/bin/../../lib/gcc/pic32c/8.3.1/../../../../pic32c/lib/thumb/v6-m/nofp\libc-musl.a(__errno_location.o)
 .note.GNU-stack
                0x0000000000000000        0x0 d:/mplab x ide/xc32_v4.60/bin/bin/../../lib/gcc/pic32c/8.3.1/../../../../pic32c/lib/thumb/v6-m/nofp\libc-musl.a(__errno_location.o)
 .ARM.attributes
                0x0000000000000000       0x2e d:/mplab x ide/xc32_v4.60/bin/bin/../../lib/gcc/pic32c/8.3.1/../../../../pic32c/lib/thumb/v6-m/nofp\libc-musl.a(__errno_location.o)
 .text          0x0000000000000000        0x0 d:/mplab x ide/xc32_v4.60/bin/bin/../../lib/gcc/pic32c/8.3.1/../../../../pic32c/lib/thumb/v6-m/nofp\libc-musl.a(fputs.o)
 .data          0x0000000000000000        0x0 d:/mplab x ide/xc32_v4.60/bin/bin/../../lib/gcc/pic32c/8.3.1/../../../../pic32c/lib/thumb/v6-m/nofp\libc-musl.a(fputs.o)
 .bss           0x0000000000000000        0x0 d:/mplab x ide/xc32_v4.60/bin/bin/../../lib/gcc/pic32c/8.3.1/../../../../pic32c/lib/thumb/v6-m/nofp\libc-musl.a(fputs.o)
 .xc_stack_usage
                0x0000000000000000       0x13 d:/mplab x ide/xc32_v4.60/bin/bin/../../lib/gcc/pic32c/8.3.1/../../../../pic32c/lib/thumb/v6-m/nofp\libc-musl.a(fputs.o)
 .text.fputs    0x0000000000000000       0x22 d:/mplab x ide/xc32_v4.60/bin/bin/../../lib/gcc/pic32c/8.3.1/../../../../pic32c/lib/thumb/v6-m/nofp\libc-musl.a(fputs.o)
 .xc_stack_usage.hdr
                0x0000000000000000        0xe d:/mplab x ide/xc32_v4.60/bin/bin/../../lib/gcc/pic32c/8.3.1/../../../../pic32c/lib/thumb/v6-m/nofp\libc-musl.a(fputs.o)
 .debug_info    0x0000000000000000      0x3b6 d:/mplab x ide/xc32_v4.60/bin/bin/../../lib/gcc/pic32c/8.3.1/../../../../pic32c/lib/thumb/v6-m/nofp\libc-musl.a(fputs.o)
 .debug_abbrev  0x0000000000000000      0x146 d:/mplab x ide/xc32_v4.60/bin/bin/../../lib/gcc/pic32c/8.3.1/../../../../pic32c/lib/thumb/v6-m/nofp\libc-musl.a(fputs.o)
 .debug_loc     0x0000000000000000       0xb3 d:/mplab x ide/xc32_v4.60/bin/bin/../../lib/gcc/pic32c/8.3.1/../../../../pic32c/lib/thumb/v6-m/nofp\libc-musl.a(fputs.o)
 .debug_aranges
                0x0000000000000000       0x20 d:/mplab x ide/xc32_v4.60/bin/bin/../../lib/gcc/pic32c/8.3.1/../../../../pic32c/lib/thumb/v6-m/nofp\libc-musl.a(fputs.o)
 .debug_ranges  0x0000000000000000       0x10 d:/mplab x ide/xc32_v4.60/bin/bin/../../lib/gcc/pic32c/8.3.1/../../../../pic32c/lib/thumb/v6-m/nofp\libc-musl.a(fputs.o)
 .debug_line    0x0000000000000000      0x236 d:/mplab x ide/xc32_v4.60/bin/bin/../../lib/gcc/pic32c/8.3.1/../../../../pic32c/lib/thumb/v6-m/nofp\libc-musl.a(fputs.o)
 .debug_str     0x0000000000000000      0x338 d:/mplab x ide/xc32_v4.60/bin/bin/../../lib/gcc/pic32c/8.3.1/../../../../pic32c/lib/thumb/v6-m/nofp\libc-musl.a(fputs.o)
 .comment       0x0000000000000000       0x2c d:/mplab x ide/xc32_v4.60/bin/bin/../../lib/gcc/pic32c/8.3.1/../../../../pic32c/lib/thumb/v6-m/nofp\libc-musl.a(fputs.o)
 .note.GNU-stack
                0x0000000000000000        0x0 d:/mplab x ide/xc32_v4.60/bin/bin/../../lib/gcc/pic32c/8.3.1/../../../../pic32c/lib/thumb/v6-m/nofp\libc-musl.a(fputs.o)
 .debug_frame   0x0000000000000000       0x2c d:/mplab x ide/xc32_v4.60/bin/bin/../../lib/gcc/pic32c/8.3.1/../../../../pic32c/lib/thumb/v6-m/nofp\libc-musl.a(fputs.o)
 .ARM.attributes
                0x0000000000000000       0x2e d:/mplab x ide/xc32_v4.60/bin/bin/../../lib/gcc/pic32c/8.3.1/../../../../pic32c/lib/thumb/v6-m/nofp\libc-musl.a(fputs.o)
 .text          0x0000000000000000        0x0 d:/mplab x ide/xc32_v4.60/bin/bin/../../lib/gcc/pic32c/8.3.1/../../../../pic32c/lib/thumb/v6-m/nofp\libc-musl.a(fwrite.o)
 .data          0x0000000000000000        0x0 d:/mplab x ide/xc32_v4.60/bin/bin/../../lib/gcc/pic32c/8.3.1/../../../../pic32c/lib/thumb/v6-m/nofp\libc-musl.a(fwrite.o)
 .bss           0x0000000000000000        0x0 d:/mplab x ide/xc32_v4.60/bin/bin/../../lib/gcc/pic32c/8.3.1/../../../../pic32c/lib/thumb/v6-m/nofp\libc-musl.a(fwrite.o)
 .xc_stack_usage
                0x0000000000000000       0x2e d:/mplab x ide/xc32_v4.60/bin/bin/../../lib/gcc/pic32c/8.3.1/../../../../pic32c/lib/thumb/v6-m/nofp\libc-musl.a(fwrite.o)
 .text.__fwrite_min
                0x0000000000000000        0xa d:/mplab x ide/xc32_v4.60/bin/bin/../../lib/gcc/pic32c/8.3.1/../../../../pic32c/lib/thumb/v6-m/nofp\libc-musl.a(fwrite.o)
 .text.fwrite   0x0000000000000000       0x2e d:/mplab x ide/xc32_v4.60/bin/bin/../../lib/gcc/pic32c/8.3.1/../../../../pic32c/lib/thumb/v6-m/nofp\libc-musl.a(fwrite.o)
 .xc_stack_usage.hdr
                0x0000000000000000        0xe d:/mplab x ide/xc32_v4.60/bin/bin/../../lib/gcc/pic32c/8.3.1/../../../../pic32c/lib/thumb/v6-m/nofp\libc-musl.a(fwrite.o)
 .debug_info    0x0000000000000000      0x257 d:/mplab x ide/xc32_v4.60/bin/bin/../../lib/gcc/pic32c/8.3.1/../../../../pic32c/lib/thumb/v6-m/nofp\libc-musl.a(fwrite.o)
 .debug_abbrev  0x0000000000000000      0x13c d:/mplab x ide/xc32_v4.60/bin/bin/../../lib/gcc/pic32c/8.3.1/../../../../pic32c/lib/thumb/v6-m/nofp\libc-musl.a(fwrite.o)
 .debug_loc     0x0000000000000000      0x1c5 d:/mplab x ide/xc32_v4.60/bin/bin/../../lib/gcc/pic32c/8.3.1/../../../../pic32c/lib/thumb/v6-m/nofp\libc-musl.a(fwrite.o)
 .debug_aranges
                0x0000000000000000       0x28 d:/mplab x ide/xc32_v4.60/bin/bin/../../lib/gcc/pic32c/8.3.1/../../../../pic32c/lib/thumb/v6-m/nofp\libc-musl.a(fwrite.o)
 .debug_ranges  0x0000000000000000       0x18 d:/mplab x ide/xc32_v4.60/bin/bin/../../lib/gcc/pic32c/8.3.1/../../../../pic32c/lib/thumb/v6-m/nofp\libc-musl.a(fwrite.o)
 .debug_line    0x0000000000000000      0x1f5 d:/mplab x ide/xc32_v4.60/bin/bin/../../lib/gcc/pic32c/8.3.1/../../../../pic32c/lib/thumb/v6-m/nofp\libc-musl.a(fwrite.o)
 .debug_str     0x0000000000000000      0x2d3 d:/mplab x ide/xc32_v4.60/bin/bin/../../lib/gcc/pic32c/8.3.1/../../../../pic32c/lib/thumb/v6-m/nofp\libc-musl.a(fwrite.o)
 .comment       0x0000000000000000       0x2c d:/mplab x ide/xc32_v4.60/bin/bin/../../lib/gcc/pic32c/8.3.1/../../../../pic32c/lib/thumb/v6-m/nofp\libc-musl.a(fwrite.o)
 .note.GNU-stack
                0x0000000000000000        0x0 d:/mplab x ide/xc32_v4.60/bin/bin/../../lib/gcc/pic32c/8.3.1/../../../../pic32c/lib/thumb/v6-m/nofp\libc-musl.a(fwrite.o)
 .debug_frame   0x0000000000000000       0x44 d:/mplab x ide/xc32_v4.60/bin/bin/../../lib/gcc/pic32c/8.3.1/../../../../pic32c/lib/thumb/v6-m/nofp\libc-musl.a(fwrite.o)
 .ARM.attributes
                0x0000000000000000       0x2e d:/mplab x ide/xc32_v4.60/bin/bin/../../lib/gcc/pic32c/8.3.1/../../../../pic32c/lib/thumb/v6-m/nofp\libc-musl.a(fwrite.o)
 .text          0x0000000000000000        0x0 d:/mplab x ide/xc32_v4.60/bin/bin/../../lib/gcc/pic32c/8.3.1/../../../../pic32c/lib/thumb/v6-m/nofp\libc-musl.a(putc.o)
 .data          0x0000000000000000        0x0 d:/mplab x ide/xc32_v4.60/bin/bin/../../lib/gcc/pic32c/8.3.1/../../../../pic32c/lib/thumb/v6-m/nofp\libc-musl.a(putc.o)
 .bss           0x0000000000000000        0x0 d:/mplab x ide/xc32_v4.60/bin/bin/../../lib/gcc/pic32c/8.3.1/../../../../pic32c/lib/thumb/v6-m/nofp\libc-musl.a(putc.o)
 .xc_stack_usage
                0x0000000000000000       0x4f d:/mplab x ide/xc32_v4.60/bin/bin/../../lib/gcc/pic32c/8.3.1/../../../../pic32c/lib/thumb/v6-m/nofp\libc-musl.a(putc.o)
 .text.__putc_unbuffered
                0x0000000000000000       0x36 d:/mplab x ide/xc32_v4.60/bin/bin/../../lib/gcc/pic32c/8.3.1/../../../../pic32c/lib/thumb/v6-m/nofp\libc-musl.a(putc.o)
 .text.putc     0x0000000000000000        0x8 d:/mplab x ide/xc32_v4.60/bin/bin/../../lib/gcc/pic32c/8.3.1/../../../../pic32c/lib/thumb/v6-m/nofp\libc-musl.a(putc.o)
 __xc_reference_data
                0x0000000000000000        0xc d:/mplab x ide/xc32_v4.60/bin/bin/../../lib/gcc/pic32c/8.3.1/../../../../pic32c/lib/thumb/v6-m/nofp\libc-musl.a(putc.o)
 .xc_stack_usage.hdr
                0x0000000000000000        0xe d:/mplab x ide/xc32_v4.60/bin/bin/../../lib/gcc/pic32c/8.3.1/../../../../pic32c/lib/thumb/v6-m/nofp\libc-musl.a(putc.o)
 .debug_info    0x0000000000000000      0x224 d:/mplab x ide/xc32_v4.60/bin/bin/../../lib/gcc/pic32c/8.3.1/../../../../pic32c/lib/thumb/v6-m/nofp\libc-musl.a(putc.o)
 .debug_abbrev  0x0000000000000000      0x122 d:/mplab x ide/xc32_v4.60/bin/bin/../../lib/gcc/pic32c/8.3.1/../../../../pic32c/lib/thumb/v6-m/nofp\libc-musl.a(putc.o)
 .debug_loc     0x0000000000000000      0x13b d:/mplab x ide/xc32_v4.60/bin/bin/../../lib/gcc/pic32c/8.3.1/../../../../pic32c/lib/thumb/v6-m/nofp\libc-musl.a(putc.o)
 .debug_aranges
                0x0000000000000000       0x30 d:/mplab x ide/xc32_v4.60/bin/bin/../../lib/gcc/pic32c/8.3.1/../../../../pic32c/lib/thumb/v6-m/nofp\libc-musl.a(putc.o)
 .debug_ranges  0x0000000000000000       0x20 d:/mplab x ide/xc32_v4.60/bin/bin/../../lib/gcc/pic32c/8.3.1/../../../../pic32c/lib/thumb/v6-m/nofp\libc-musl.a(putc.o)
 .debug_line    0x0000000000000000      0x1a3 d:/mplab x ide/xc32_v4.60/bin/bin/../../lib/gcc/pic32c/8.3.1/../../../../pic32c/lib/thumb/v6-m/nofp\libc-musl.a(putc.o)
 .debug_str     0x0000000000000000      0x2ea d:/mplab x ide/xc32_v4.60/bin/bin/../../lib/gcc/pic32c/8.3.1/../../../../pic32c/lib/thumb/v6-m/nofp\libc-musl.a(putc.o)
 .comment       0x0000000000000000       0x2c d:/mplab x ide/xc32_v4.60/bin/bin/../../lib/gcc/pic32c/8.3.1/../../../../pic32c/lib/thumb/v6-m/nofp\libc-musl.a(putc.o)
 .note.GNU-stack
                0x0000000000000000        0x0 d:/mplab x ide/xc32_v4.60/bin/bin/../../lib/gcc/pic32c/8.3.1/../../../../pic32c/lib/thumb/v6-m/nofp\libc-musl.a(putc.o)
 .debug_frame   0x0000000000000000       0x5c d:/mplab x ide/xc32_v4.60/bin/bin/../../lib/gcc/pic32c/8.3.1/../../../../pic32c/lib/thumb/v6-m/nofp\libc-musl.a(putc.o)
 .ARM.attributes
                0x0000000000000000       0x2e d:/mplab x ide/xc32_v4.60/bin/bin/../../lib/gcc/pic32c/8.3.1/../../../../pic32c/lib/thumb/v6-m/nofp\libc-musl.a(putc.o)
 .text          0x0000000000000000        0x0 d:/mplab x ide/xc32_v4.60/bin/bin/../../lib/gcc/pic32c/8.3.1/../../../../pic32c/lib/thumb/v6-m/nofp\libc-musl.a(stdout.o)
 .xc_stack_usage
                0x0000000000000000       0x51 d:/mplab x ide/xc32_v4.60/bin/bin/../../lib/gcc/pic32c/8.3.1/../../../../pic32c/lib/thumb/v6-m/nofp\libc-musl.a(stdout.o)
 .xc_stack_usage.hdr
                0x0000000000000000        0xe d:/mplab x ide/xc32_v4.60/bin/bin/../../lib/gcc/pic32c/8.3.1/../../../../pic32c/lib/thumb/v6-m/nofp\libc-musl.a(stdout.o)
 .text          0x0000000000000000        0x0 d:/mplab x ide/xc32_v4.60/bin/bin/../../lib/gcc/pic32c/8.3.1/../../../../pic32c/lib/thumb/v6-m/nofp\libc-musl.a(vfprintf.o)
 .data          0x0000000000000000        0x0 d:/mplab x ide/xc32_v4.60/bin/bin/../../lib/gcc/pic32c/8.3.1/../../../../pic32c/lib/thumb/v6-m/nofp\libc-musl.a(vfprintf.o)
 .bss           0x0000000000000000        0x0 d:/mplab x ide/xc32_v4.60/bin/bin/../../lib/gcc/pic32c/8.3.1/../../../../pic32c/lib/thumb/v6-m/nofp\libc-musl.a(vfprintf.o)
 .xc_stack_usage
                0x0000000000000000       0x38 d:/mplab x ide/xc32_v4.60/bin/bin/../../lib/gcc/pic32c/8.3.1/../../../../pic32c/lib/thumb/v6-m/nofp\libc-musl.a(vfprintf.o)
 .text.vfprintf
                0x0000000000000000       0x18 d:/mplab x ide/xc32_v4.60/bin/bin/../../lib/gcc/pic32c/8.3.1/../../../../pic32c/lib/thumb/v6-m/nofp\libc-musl.a(vfprintf.o)
 __xc_reference_data
                0x0000000000000000        0x8 d:/mplab x ide/xc32_v4.60/bin/bin/../../lib/gcc/pic32c/8.3.1/../../../../pic32c/lib/thumb/v6-m/nofp\libc-musl.a(vfprintf.o)
 .xc_stack_usage.hdr
                0x0000000000000000        0xe d:/mplab x ide/xc32_v4.60/bin/bin/../../lib/gcc/pic32c/8.3.1/../../../../pic32c/lib/thumb/v6-m/nofp\libc-musl.a(vfprintf.o)
 .debug_info    0x0000000000000000      0x40e d:/mplab x ide/xc32_v4.60/bin/bin/../../lib/gcc/pic32c/8.3.1/../../../../pic32c/lib/thumb/v6-m/nofp\libc-musl.a(vfprintf.o)
 .debug_abbrev  0x0000000000000000      0x18b d:/mplab x ide/xc32_v4.60/bin/bin/../../lib/gcc/pic32c/8.3.1/../../../../pic32c/lib/thumb/v6-m/nofp\libc-musl.a(vfprintf.o)
 .debug_loc     0x0000000000000000       0xd0 d:/mplab x ide/xc32_v4.60/bin/bin/../../lib/gcc/pic32c/8.3.1/../../../../pic32c/lib/thumb/v6-m/nofp\libc-musl.a(vfprintf.o)
 .debug_aranges
                0x0000000000000000       0x28 d:/mplab x ide/xc32_v4.60/bin/bin/../../lib/gcc/pic32c/8.3.1/../../../../pic32c/lib/thumb/v6-m/nofp\libc-musl.a(vfprintf.o)
 .debug_ranges  0x0000000000000000       0x18 d:/mplab x ide/xc32_v4.60/bin/bin/../../lib/gcc/pic32c/8.3.1/../../../../pic32c/lib/thumb/v6-m/nofp\libc-musl.a(vfprintf.o)
 .debug_line    0x0000000000000000      0x1fa d:/mplab x ide/xc32_v4.60/bin/bin/../../lib/gcc/pic32c/8.3.1/../../../../pic32c/lib/thumb/v6-m/nofp\libc-musl.a(vfprintf.o)
 .debug_str     0x0000000000000000      0x37f d:/mplab x ide/xc32_v4.60/bin/bin/../../lib/gcc/pic32c/8.3.1/../../../../pic32c/lib/thumb/v6-m/nofp\libc-musl.a(vfprintf.o)
 .comment       0x0000000000000000       0x2c d:/mplab x ide/xc32_v4.60/bin/bin/../../lib/gcc/pic32c/8.3.1/../../../../pic32c/lib/thumb/v6-m/nofp\libc-musl.a(vfprintf.o)
 .note.GNU-stack
                0x0000000000000000        0x0 d:/mplab x ide/xc32_v4.60/bin/bin/../../lib/gcc/pic32c/8.3.1/../../../../pic32c/lib/thumb/v6-m/nofp\libc-musl.a(vfprintf.o)
 .debug_frame   0x0000000000000000       0x44 d:/mplab x ide/xc32_v4.60/bin/bin/../../lib/gcc/pic32c/8.3.1/../../../../pic32c/lib/thumb/v6-m/nofp\libc-musl.a(vfprintf.o)
 .ARM.attributes
                0x0000000000000000       0x2e d:/mplab x ide/xc32_v4.60/bin/bin/../../lib/gcc/pic32c/8.3.1/../../../../pic32c/lib/thumb/v6-m/nofp\libc-musl.a(vfprintf.o)
 .text          0x0000000000000000        0x0 d:/mplab x ide/xc32_v4.60/bin/bin/../../lib/gcc/pic32c/8.3.1/../../../../pic32c/lib/thumb/v6-m/nofp\libc-musl.a(__io_fmt_needed.o)
 .data          0x0000000000000000        0x0 d:/mplab x ide/xc32_v4.60/bin/bin/../../lib/gcc/pic32c/8.3.1/../../../../pic32c/lib/thumb/v6-m/nofp\libc-musl.a(__io_fmt_needed.o)
 .bss           0x0000000000000000        0x0 d:/mplab x ide/xc32_v4.60/bin/bin/../../lib/gcc/pic32c/8.3.1/../../../../pic32c/lib/thumb/v6-m/nofp\libc-musl.a(__io_fmt_needed.o)
 .xc_stack_usage
                0x0000000000000000       0x1d d:/mplab x ide/xc32_v4.60/bin/bin/../../lib/gcc/pic32c/8.3.1/../../../../pic32c/lib/thumb/v6-m/nofp\libc-musl.a(__io_fmt_needed.o)
 __xc_reference_data
                0x0000000000000000       0x54 d:/mplab x ide/xc32_v4.60/bin/bin/../../lib/gcc/pic32c/8.3.1/../../../../pic32c/lib/thumb/v6-m/nofp\libc-musl.a(__io_fmt_needed.o)
 .xc_stack_usage.hdr
                0x0000000000000000        0xe d:/mplab x ide/xc32_v4.60/bin/bin/../../lib/gcc/pic32c/8.3.1/../../../../pic32c/lib/thumb/v6-m/nofp\libc-musl.a(__io_fmt_needed.o)
 .debug_info    0x0000000000000000      0x187 d:/mplab x ide/xc32_v4.60/bin/bin/../../lib/gcc/pic32c/8.3.1/../../../../pic32c/lib/thumb/v6-m/nofp\libc-musl.a(__io_fmt_needed.o)
 .debug_abbrev  0x0000000000000000       0x67 d:/mplab x ide/xc32_v4.60/bin/bin/../../lib/gcc/pic32c/8.3.1/../../../../pic32c/lib/thumb/v6-m/nofp\libc-musl.a(__io_fmt_needed.o)
 .debug_loc     0x0000000000000000       0x20 d:/mplab x ide/xc32_v4.60/bin/bin/../../lib/gcc/pic32c/8.3.1/../../../../pic32c/lib/thumb/v6-m/nofp\libc-musl.a(__io_fmt_needed.o)
 .debug_aranges
                0x0000000000000000       0x20 d:/mplab x ide/xc32_v4.60/bin/bin/../../lib/gcc/pic32c/8.3.1/../../../../pic32c/lib/thumb/v6-m/nofp\libc-musl.a(__io_fmt_needed.o)
 .debug_ranges  0x0000000000000000       0x10 d:/mplab x ide/xc32_v4.60/bin/bin/../../lib/gcc/pic32c/8.3.1/../../../../pic32c/lib/thumb/v6-m/nofp\libc-musl.a(__io_fmt_needed.o)
 .debug_line    0x0000000000000000       0xc2 d:/mplab x ide/xc32_v4.60/bin/bin/../../lib/gcc/pic32c/8.3.1/../../../../pic32c/lib/thumb/v6-m/nofp\libc-musl.a(__io_fmt_needed.o)
 .debug_str     0x0000000000000000      0x336 d:/mplab x ide/xc32_v4.60/bin/bin/../../lib/gcc/pic32c/8.3.1/../../../../pic32c/lib/thumb/v6-m/nofp\libc-musl.a(__io_fmt_needed.o)
 .comment       0x0000000000000000       0x2c d:/mplab x ide/xc32_v4.60/bin/bin/../../lib/gcc/pic32c/8.3.1/../../../../pic32c/lib/thumb/v6-m/nofp\libc-musl.a(__io_fmt_needed.o)
 .note.GNU-stack
                0x0000000000000000        0x0 d:/mplab x ide/xc32_v4.60/bin/bin/../../lib/gcc/pic32c/8.3.1/../../../../pic32c/lib/thumb/v6-m/nofp\libc-musl.a(__io_fmt_needed.o)
 .debug_frame   0x0000000000000000       0x28 d:/mplab x ide/xc32_v4.60/bin/bin/../../lib/gcc/pic32c/8.3.1/../../../../pic32c/lib/thumb/v6-m/nofp\libc-musl.a(__io_fmt_needed.o)
 .ARM.attributes
                0x0000000000000000       0x2e d:/mplab x ide/xc32_v4.60/bin/bin/../../lib/gcc/pic32c/8.3.1/../../../../pic32c/lib/thumb/v6-m/nofp\libc-musl.a(__io_fmt_needed.o)
 .text          0x0000000000000000        0x0 d:/mplab x ide/xc32_v4.60/bin/bin/../../lib/gcc/pic32c/8.3.1/../../../../pic32c/lib/thumb/v6-m/nofp\libc-musl.a(__io_init_needed.o)
 .data          0x0000000000000000        0x0 d:/mplab x ide/xc32_v4.60/bin/bin/../../lib/gcc/pic32c/8.3.1/../../../../pic32c/lib/thumb/v6-m/nofp\libc-musl.a(__io_init_needed.o)
 .bss           0x0000000000000000        0x0 d:/mplab x ide/xc32_v4.60/bin/bin/../../lib/gcc/pic32c/8.3.1/../../../../pic32c/lib/thumb/v6-m/nofp\libc-musl.a(__io_init_needed.o)
 .xc_stack_usage
                0x0000000000000000       0x40 d:/mplab x ide/xc32_v4.60/bin/bin/../../lib/gcc/pic32c/8.3.1/../../../../pic32c/lib/thumb/v6-m/nofp\libc-musl.a(__io_init_needed.o)
 .xc_stack_usage.hdr
                0x0000000000000000        0xe d:/mplab x ide/xc32_v4.60/bin/bin/../../lib/gcc/pic32c/8.3.1/../../../../pic32c/lib/thumb/v6-m/nofp\libc-musl.a(__io_init_needed.o)
 .debug_info    0x0000000000000000       0xea d:/mplab x ide/xc32_v4.60/bin/bin/../../lib/gcc/pic32c/8.3.1/../../../../pic32c/lib/thumb/v6-m/nofp\libc-musl.a(__io_init_needed.o)
 .debug_abbrev  0x0000000000000000       0x81 d:/mplab x ide/xc32_v4.60/bin/bin/../../lib/gcc/pic32c/8.3.1/../../../../pic32c/lib/thumb/v6-m/nofp\libc-musl.a(__io_init_needed.o)
 .debug_loc     0x0000000000000000       0x40 d:/mplab x ide/xc32_v4.60/bin/bin/../../lib/gcc/pic32c/8.3.1/../../../../pic32c/lib/thumb/v6-m/nofp\libc-musl.a(__io_init_needed.o)
 .debug_aranges
                0x0000000000000000       0x28 d:/mplab x ide/xc32_v4.60/bin/bin/../../lib/gcc/pic32c/8.3.1/../../../../pic32c/lib/thumb/v6-m/nofp\libc-musl.a(__io_init_needed.o)
 .debug_ranges  0x0000000000000000       0x18 d:/mplab x ide/xc32_v4.60/bin/bin/../../lib/gcc/pic32c/8.3.1/../../../../pic32c/lib/thumb/v6-m/nofp\libc-musl.a(__io_init_needed.o)
 .debug_line    0x0000000000000000      0x137 d:/mplab x ide/xc32_v4.60/bin/bin/../../lib/gcc/pic32c/8.3.1/../../../../pic32c/lib/thumb/v6-m/nofp\libc-musl.a(__io_init_needed.o)
 .debug_str     0x0000000000000000      0x2d4 d:/mplab x ide/xc32_v4.60/bin/bin/../../lib/gcc/pic32c/8.3.1/../../../../pic32c/lib/thumb/v6-m/nofp\libc-musl.a(__io_init_needed.o)
 .comment       0x0000000000000000       0x2c d:/mplab x ide/xc32_v4.60/bin/bin/../../lib/gcc/pic32c/8.3.1/../../../../pic32c/lib/thumb/v6-m/nofp\libc-musl.a(__io_init_needed.o)
 .note.GNU-stack
                0x0000000000000000        0x0 d:/mplab x ide/xc32_v4.60/bin/bin/../../lib/gcc/pic32c/8.3.1/../../../../pic32c/lib/thumb/v6-m/nofp\libc-musl.a(__io_init_needed.o)
 .debug_frame   0x0000000000000000       0x40 d:/mplab x ide/xc32_v4.60/bin/bin/../../lib/gcc/pic32c/8.3.1/../../../../pic32c/lib/thumb/v6-m/nofp\libc-musl.a(__io_init_needed.o)
 .ARM.attributes
                0x0000000000000000       0x2e d:/mplab x ide/xc32_v4.60/bin/bin/../../lib/gcc/pic32c/8.3.1/../../../../pic32c/lib/thumb/v6-m/nofp\libc-musl.a(__io_init_needed.o)
 .text          0x0000000000000000        0x0 d:/mplab x ide/xc32_v4.60/bin/bin/../../lib/gcc/pic32c/8.3.1/../../../../pic32c/lib/thumb/v6-m/nofp\libc-musl.a(__out.o)
 .data          0x0000000000000000        0x0 d:/mplab x ide/xc32_v4.60/bin/bin/../../lib/gcc/pic32c/8.3.1/../../../../pic32c/lib/thumb/v6-m/nofp\libc-musl.a(__out.o)
 .bss           0x0000000000000000        0x0 d:/mplab x ide/xc32_v4.60/bin/bin/../../lib/gcc/pic32c/8.3.1/../../../../pic32c/lib/thumb/v6-m/nofp\libc-musl.a(__out.o)
 .xc_stack_usage
                0x0000000000000000       0x2d d:/mplab x ide/xc32_v4.60/bin/bin/../../lib/gcc/pic32c/8.3.1/../../../../pic32c/lib/thumb/v6-m/nofp\libc-musl.a(__out.o)
 .text.__fwrite_min
                0x0000000000000000        0xa d:/mplab x ide/xc32_v4.60/bin/bin/../../lib/gcc/pic32c/8.3.1/../../../../pic32c/lib/thumb/v6-m/nofp\libc-musl.a(__out.o)
 .text.__out    0x0000000000000000       0x3c d:/mplab x ide/xc32_v4.60/bin/bin/../../lib/gcc/pic32c/8.3.1/../../../../pic32c/lib/thumb/v6-m/nofp\libc-musl.a(__out.o)
 .xc_stack_usage.hdr
                0x0000000000000000        0xe d:/mplab x ide/xc32_v4.60/bin/bin/../../lib/gcc/pic32c/8.3.1/../../../../pic32c/lib/thumb/v6-m/nofp\libc-musl.a(__out.o)
 .debug_info    0x0000000000000000      0x2ba d:/mplab x ide/xc32_v4.60/bin/bin/../../lib/gcc/pic32c/8.3.1/../../../../pic32c/lib/thumb/v6-m/nofp\libc-musl.a(__out.o)
 .debug_abbrev  0x0000000000000000      0x177 d:/mplab x ide/xc32_v4.60/bin/bin/../../lib/gcc/pic32c/8.3.1/../../../../pic32c/lib/thumb/v6-m/nofp\libc-musl.a(__out.o)
 .debug_loc     0x0000000000000000      0x1e6 d:/mplab x ide/xc32_v4.60/bin/bin/../../lib/gcc/pic32c/8.3.1/../../../../pic32c/lib/thumb/v6-m/nofp\libc-musl.a(__out.o)
 .debug_aranges
                0x0000000000000000       0x28 d:/mplab x ide/xc32_v4.60/bin/bin/../../lib/gcc/pic32c/8.3.1/../../../../pic32c/lib/thumb/v6-m/nofp\libc-musl.a(__out.o)
 .debug_ranges  0x0000000000000000       0x18 d:/mplab x ide/xc32_v4.60/bin/bin/../../lib/gcc/pic32c/8.3.1/../../../../pic32c/lib/thumb/v6-m/nofp\libc-musl.a(__out.o)
 .debug_line    0x0000000000000000      0x28f d:/mplab x ide/xc32_v4.60/bin/bin/../../lib/gcc/pic32c/8.3.1/../../../../pic32c/lib/thumb/v6-m/nofp\libc-musl.a(__out.o)
 .debug_str     0x0000000000000000      0x2da d:/mplab x ide/xc32_v4.60/bin/bin/../../lib/gcc/pic32c/8.3.1/../../../../pic32c/lib/thumb/v6-m/nofp\libc-musl.a(__out.o)
 .comment       0x0000000000000000       0x2c d:/mplab x ide/xc32_v4.60/bin/bin/../../lib/gcc/pic32c/8.3.1/../../../../pic32c/lib/thumb/v6-m/nofp\libc-musl.a(__out.o)
 .note.GNU-stack
                0x0000000000000000        0x0 d:/mplab x ide/xc32_v4.60/bin/bin/../../lib/gcc/pic32c/8.3.1/../../../../pic32c/lib/thumb/v6-m/nofp\libc-musl.a(__out.o)
 .debug_frame   0x0000000000000000       0x44 d:/mplab x ide/xc32_v4.60/bin/bin/../../lib/gcc/pic32c/8.3.1/../../../../pic32c/lib/thumb/v6-m/nofp\libc-musl.a(__out.o)
 .ARM.attributes
                0x0000000000000000       0x2e d:/mplab x ide/xc32_v4.60/bin/bin/../../lib/gcc/pic32c/8.3.1/../../../../pic32c/lib/thumb/v6-m/nofp\libc-musl.a(__out.o)
 .text          0x0000000000000000        0x0 d:/mplab x ide/xc32_v4.60/bin/bin/../../lib/gcc/pic32c/8.3.1/../../../../pic32c/lib/thumb/v6-m/nofp\libc-musl.a(__pop_float.o)
 .data          0x0000000000000000        0x0 d:/mplab x ide/xc32_v4.60/bin/bin/../../lib/gcc/pic32c/8.3.1/../../../../pic32c/lib/thumb/v6-m/nofp\libc-musl.a(__pop_float.o)
 .bss           0x0000000000000000        0x0 d:/mplab x ide/xc32_v4.60/bin/bin/../../lib/gcc/pic32c/8.3.1/../../../../pic32c/lib/thumb/v6-m/nofp\libc-musl.a(__pop_float.o)
 .xc_stack_usage
                0x0000000000000000       0x19 d:/mplab x ide/xc32_v4.60/bin/bin/../../lib/gcc/pic32c/8.3.1/../../../../pic32c/lib/thumb/v6-m/nofp\libc-musl.a(__pop_float.o)
 .text.__pop_float
                0x0000000000000000       0x2a d:/mplab x ide/xc32_v4.60/bin/bin/../../lib/gcc/pic32c/8.3.1/../../../../pic32c/lib/thumb/v6-m/nofp\libc-musl.a(__pop_float.o)
 .xc_stack_usage.hdr
                0x0000000000000000        0xe d:/mplab x ide/xc32_v4.60/bin/bin/../../lib/gcc/pic32c/8.3.1/../../../../pic32c/lib/thumb/v6-m/nofp\libc-musl.a(__pop_float.o)
 .debug_info    0x0000000000000000      0x162 d:/mplab x ide/xc32_v4.60/bin/bin/../../lib/gcc/pic32c/8.3.1/../../../../pic32c/lib/thumb/v6-m/nofp\libc-musl.a(__pop_float.o)
 .debug_abbrev  0x0000000000000000       0xdc d:/mplab x ide/xc32_v4.60/bin/bin/../../lib/gcc/pic32c/8.3.1/../../../../pic32c/lib/thumb/v6-m/nofp\libc-musl.a(__pop_float.o)
 .debug_loc     0x0000000000000000       0x6f d:/mplab x ide/xc32_v4.60/bin/bin/../../lib/gcc/pic32c/8.3.1/../../../../pic32c/lib/thumb/v6-m/nofp\libc-musl.a(__pop_float.o)
 .debug_aranges
                0x0000000000000000       0x20 d:/mplab x ide/xc32_v4.60/bin/bin/../../lib/gcc/pic32c/8.3.1/../../../../pic32c/lib/thumb/v6-m/nofp\libc-musl.a(__pop_float.o)
 .debug_ranges  0x0000000000000000       0x10 d:/mplab x ide/xc32_v4.60/bin/bin/../../lib/gcc/pic32c/8.3.1/../../../../pic32c/lib/thumb/v6-m/nofp\libc-musl.a(__pop_float.o)
 .debug_line    0x0000000000000000      0x166 d:/mplab x ide/xc32_v4.60/bin/bin/../../lib/gcc/pic32c/8.3.1/../../../../pic32c/lib/thumb/v6-m/nofp\libc-musl.a(__pop_float.o)
 .debug_str     0x0000000000000000      0x2c0 d:/mplab x ide/xc32_v4.60/bin/bin/../../lib/gcc/pic32c/8.3.1/../../../../pic32c/lib/thumb/v6-m/nofp\libc-musl.a(__pop_float.o)
 .comment       0x0000000000000000       0x2c d:/mplab x ide/xc32_v4.60/bin/bin/../../lib/gcc/pic32c/8.3.1/../../../../pic32c/lib/thumb/v6-m/nofp\libc-musl.a(__pop_float.o)
 .note.GNU-stack
                0x0000000000000000        0x0 d:/mplab x ide/xc32_v4.60/bin/bin/../../lib/gcc/pic32c/8.3.1/../../../../pic32c/lib/thumb/v6-m/nofp\libc-musl.a(__pop_float.o)
 .debug_frame   0x0000000000000000       0x20 d:/mplab x ide/xc32_v4.60/bin/bin/../../lib/gcc/pic32c/8.3.1/../../../../pic32c/lib/thumb/v6-m/nofp\libc-musl.a(__pop_float.o)
 .ARM.attributes
                0x0000000000000000       0x2e d:/mplab x ide/xc32_v4.60/bin/bin/../../lib/gcc/pic32c/8.3.1/../../../../pic32c/lib/thumb/v6-m/nofp\libc-musl.a(__pop_float.o)
 .text          0x0000000000000000        0x0 d:/mplab x ide/xc32_v4.60/bin/bin/../../lib/gcc/pic32c/8.3.1/../../../../pic32c/lib/thumb/v6-m/nofp\libc-musl.a(__pop_int.o)
 .data          0x0000000000000000        0x0 d:/mplab x ide/xc32_v4.60/bin/bin/../../lib/gcc/pic32c/8.3.1/../../../../pic32c/lib/thumb/v6-m/nofp\libc-musl.a(__pop_int.o)
 .bss           0x0000000000000000        0x0 d:/mplab x ide/xc32_v4.60/bin/bin/../../lib/gcc/pic32c/8.3.1/../../../../pic32c/lib/thumb/v6-m/nofp\libc-musl.a(__pop_int.o)
 .xc_stack_usage
                0x0000000000000000       0x17 d:/mplab x ide/xc32_v4.60/bin/bin/../../lib/gcc/pic32c/8.3.1/../../../../pic32c/lib/thumb/v6-m/nofp\libc-musl.a(__pop_int.o)
 .text.__pop_int
                0x0000000000000000       0xbe d:/mplab x ide/xc32_v4.60/bin/bin/../../lib/gcc/pic32c/8.3.1/../../../../pic32c/lib/thumb/v6-m/nofp\libc-musl.a(__pop_int.o)
 .xc_stack_usage.hdr
                0x0000000000000000        0xe d:/mplab x ide/xc32_v4.60/bin/bin/../../lib/gcc/pic32c/8.3.1/../../../../pic32c/lib/thumb/v6-m/nofp\libc-musl.a(__pop_int.o)
 .debug_info    0x0000000000000000      0x183 d:/mplab x ide/xc32_v4.60/bin/bin/../../lib/gcc/pic32c/8.3.1/../../../../pic32c/lib/thumb/v6-m/nofp\libc-musl.a(__pop_int.o)
 .debug_abbrev  0x0000000000000000       0xdc d:/mplab x ide/xc32_v4.60/bin/bin/../../lib/gcc/pic32c/8.3.1/../../../../pic32c/lib/thumb/v6-m/nofp\libc-musl.a(__pop_int.o)
 .debug_loc     0x0000000000000000      0x34c d:/mplab x ide/xc32_v4.60/bin/bin/../../lib/gcc/pic32c/8.3.1/../../../../pic32c/lib/thumb/v6-m/nofp\libc-musl.a(__pop_int.o)
 .debug_aranges
                0x0000000000000000       0x20 d:/mplab x ide/xc32_v4.60/bin/bin/../../lib/gcc/pic32c/8.3.1/../../../../pic32c/lib/thumb/v6-m/nofp\libc-musl.a(__pop_int.o)
 .debug_ranges  0x0000000000000000       0x10 d:/mplab x ide/xc32_v4.60/bin/bin/../../lib/gcc/pic32c/8.3.1/../../../../pic32c/lib/thumb/v6-m/nofp\libc-musl.a(__pop_int.o)
 .debug_line    0x0000000000000000      0x211 d:/mplab x ide/xc32_v4.60/bin/bin/../../lib/gcc/pic32c/8.3.1/../../../../pic32c/lib/thumb/v6-m/nofp\libc-musl.a(__pop_int.o)
 .debug_str     0x0000000000000000      0x2cb d:/mplab x ide/xc32_v4.60/bin/bin/../../lib/gcc/pic32c/8.3.1/../../../../pic32c/lib/thumb/v6-m/nofp\libc-musl.a(__pop_int.o)
 .comment       0x0000000000000000       0x2c d:/mplab x ide/xc32_v4.60/bin/bin/../../lib/gcc/pic32c/8.3.1/../../../../pic32c/lib/thumb/v6-m/nofp\libc-musl.a(__pop_int.o)
 .note.GNU-stack
                0x0000000000000000        0x0 d:/mplab x ide/xc32_v4.60/bin/bin/../../lib/gcc/pic32c/8.3.1/../../../../pic32c/lib/thumb/v6-m/nofp\libc-musl.a(__pop_int.o)
 .debug_frame   0x0000000000000000       0x28 d:/mplab x ide/xc32_v4.60/bin/bin/../../lib/gcc/pic32c/8.3.1/../../../../pic32c/lib/thumb/v6-m/nofp\libc-musl.a(__pop_int.o)
 .ARM.attributes
                0x0000000000000000       0x2e d:/mplab x ide/xc32_v4.60/bin/bin/../../lib/gcc/pic32c/8.3.1/../../../../pic32c/lib/thumb/v6-m/nofp\libc-musl.a(__pop_int.o)
 .text          0x0000000000000000        0x0 d:/mplab x ide/xc32_v4.60/bin/bin/../../lib/gcc/pic32c/8.3.1/../../../../pic32c/lib/thumb/v6-m/nofp\libc-musl.a(__pop_ptr.o)
 .data          0x0000000000000000        0x0 d:/mplab x ide/xc32_v4.60/bin/bin/../../lib/gcc/pic32c/8.3.1/../../../../pic32c/lib/thumb/v6-m/nofp\libc-musl.a(__pop_ptr.o)
 .bss           0x0000000000000000        0x0 d:/mplab x ide/xc32_v4.60/bin/bin/../../lib/gcc/pic32c/8.3.1/../../../../pic32c/lib/thumb/v6-m/nofp\libc-musl.a(__pop_ptr.o)
 .xc_stack_usage
                0x0000000000000000       0x17 d:/mplab x ide/xc32_v4.60/bin/bin/../../lib/gcc/pic32c/8.3.1/../../../../pic32c/lib/thumb/v6-m/nofp\libc-musl.a(__pop_ptr.o)
 .text.__pop_ptr
                0x0000000000000000       0x68 d:/mplab x ide/xc32_v4.60/bin/bin/../../lib/gcc/pic32c/8.3.1/../../../../pic32c/lib/thumb/v6-m/nofp\libc-musl.a(__pop_ptr.o)
 .xc_stack_usage.hdr
                0x0000000000000000        0xe d:/mplab x ide/xc32_v4.60/bin/bin/../../lib/gcc/pic32c/8.3.1/../../../../pic32c/lib/thumb/v6-m/nofp\libc-musl.a(__pop_ptr.o)
 .debug_info    0x0000000000000000      0x18d d:/mplab x ide/xc32_v4.60/bin/bin/../../lib/gcc/pic32c/8.3.1/../../../../pic32c/lib/thumb/v6-m/nofp\libc-musl.a(__pop_ptr.o)
 .debug_abbrev  0x0000000000000000       0xdc d:/mplab x ide/xc32_v4.60/bin/bin/../../lib/gcc/pic32c/8.3.1/../../../../pic32c/lib/thumb/v6-m/nofp\libc-musl.a(__pop_ptr.o)
 .debug_loc     0x0000000000000000      0x1fe d:/mplab x ide/xc32_v4.60/bin/bin/../../lib/gcc/pic32c/8.3.1/../../../../pic32c/lib/thumb/v6-m/nofp\libc-musl.a(__pop_ptr.o)
 .debug_aranges
                0x0000000000000000       0x20 d:/mplab x ide/xc32_v4.60/bin/bin/../../lib/gcc/pic32c/8.3.1/../../../../pic32c/lib/thumb/v6-m/nofp\libc-musl.a(__pop_ptr.o)
 .debug_ranges  0x0000000000000000       0x10 d:/mplab x ide/xc32_v4.60/bin/bin/../../lib/gcc/pic32c/8.3.1/../../../../pic32c/lib/thumb/v6-m/nofp\libc-musl.a(__pop_ptr.o)
 .debug_line    0x0000000000000000      0x1c8 d:/mplab x ide/xc32_v4.60/bin/bin/../../lib/gcc/pic32c/8.3.1/../../../../pic32c/lib/thumb/v6-m/nofp\libc-musl.a(__pop_ptr.o)
 .debug_str     0x0000000000000000      0x2cd d:/mplab x ide/xc32_v4.60/bin/bin/../../lib/gcc/pic32c/8.3.1/../../../../pic32c/lib/thumb/v6-m/nofp\libc-musl.a(__pop_ptr.o)
 .comment       0x0000000000000000       0x2c d:/mplab x ide/xc32_v4.60/bin/bin/../../lib/gcc/pic32c/8.3.1/../../../../pic32c/lib/thumb/v6-m/nofp\libc-musl.a(__pop_ptr.o)
 .note.GNU-stack
                0x0000000000000000        0x0 d:/mplab x ide/xc32_v4.60/bin/bin/../../lib/gcc/pic32c/8.3.1/../../../../pic32c/lib/thumb/v6-m/nofp\libc-musl.a(__pop_ptr.o)
 .debug_frame   0x0000000000000000       0x28 d:/mplab x ide/xc32_v4.60/bin/bin/../../lib/gcc/pic32c/8.3.1/../../../../pic32c/lib/thumb/v6-m/nofp\libc-musl.a(__pop_ptr.o)
 .ARM.attributes
                0x0000000000000000       0x2e d:/mplab x ide/xc32_v4.60/bin/bin/../../lib/gcc/pic32c/8.3.1/../../../../pic32c/lib/thumb/v6-m/nofp\libc-musl.a(__pop_ptr.o)
 .text          0x0000000000000000        0x0 d:/mplab x ide/xc32_v4.60/bin/bin/../../lib/gcc/pic32c/8.3.1/../../../../pic32c/lib/thumb/v6-m/nofp\libc-musl.a(__printf_core.o)
 .data          0x0000000000000000        0x0 d:/mplab x ide/xc32_v4.60/bin/bin/../../lib/gcc/pic32c/8.3.1/../../../../pic32c/lib/thumb/v6-m/nofp\libc-musl.a(__printf_core.o)
 .bss           0x0000000000000000        0x0 d:/mplab x ide/xc32_v4.60/bin/bin/../../lib/gcc/pic32c/8.3.1/../../../../pic32c/lib/thumb/v6-m/nofp\libc-musl.a(__printf_core.o)
 .xc_stack_usage
                0x0000000000000000       0xaf d:/mplab x ide/xc32_v4.60/bin/bin/../../lib/gcc/pic32c/8.3.1/../../../../pic32c/lib/thumb/v6-m/nofp\libc-musl.a(__printf_core.o)
 .text.__string_out
                0x0000000000000000       0x2a d:/mplab x ide/xc32_v4.60/bin/bin/../../lib/gcc/pic32c/8.3.1/../../../../pic32c/lib/thumb/v6-m/nofp\libc-musl.a(__printf_core.o)
 .text.__pad    0x0000000000000000       0x7a d:/mplab x ide/xc32_v4.60/bin/bin/../../lib/gcc/pic32c/8.3.1/../../../../pic32c/lib/thumb/v6-m/nofp\libc-musl.a(__printf_core.o)
 .text.__dummy_fmt3
                0x0000000000000000        0x4 d:/mplab x ide/xc32_v4.60/bin/bin/../../lib/gcc/pic32c/8.3.1/../../../../pic32c/lib/thumb/v6-m/nofp\libc-musl.a(__printf_core.o)
 .text.__dummy_fmt4
                0x0000000000000000        0x4 d:/mplab x ide/xc32_v4.60/bin/bin/../../lib/gcc/pic32c/8.3.1/../../../../pic32c/lib/thumb/v6-m/nofp\libc-musl.a(__printf_core.o)
 .text.__dummy_fmts
                0x0000000000000000        0x4 d:/mplab x ide/xc32_v4.60/bin/bin/../../lib/gcc/pic32c/8.3.1/../../../../pic32c/lib/thumb/v6-m/nofp\libc-musl.a(__printf_core.o)
 .text.__fmt_state
                0x0000000000000000       0x34 d:/mplab x ide/xc32_v4.60/bin/bin/../../lib/gcc/pic32c/8.3.1/../../../../pic32c/lib/thumb/v6-m/nofp\libc-musl.a(__printf_core.o)
 .text.__printf_core
                0x0000000000000000      0x33c d:/mplab x ide/xc32_v4.60/bin/bin/../../lib/gcc/pic32c/8.3.1/../../../../pic32c/lib/thumb/v6-m/nofp\libc-musl.a(__printf_core.o)
 .rodata        0x0000000000000000       0x16 d:/mplab x ide/xc32_v4.60/bin/bin/../../lib/gcc/pic32c/8.3.1/../../../../pic32c/lib/thumb/v6-m/nofp\libc-musl.a(__printf_core.o)
 .rodata.str1.1
                0x0000000000000000        0x8 d:/mplab x ide/xc32_v4.60/bin/bin/../../lib/gcc/pic32c/8.3.1/../../../../pic32c/lib/thumb/v6-m/nofp\libc-musl.a(__printf_core.o)
 .xc_stack_usage.hdr
                0x0000000000000000        0xe d:/mplab x ide/xc32_v4.60/bin/bin/../../lib/gcc/pic32c/8.3.1/../../../../pic32c/lib/thumb/v6-m/nofp\libc-musl.a(__printf_core.o)
 .debug_info    0x0000000000000000      0xa6f d:/mplab x ide/xc32_v4.60/bin/bin/../../lib/gcc/pic32c/8.3.1/../../../../pic32c/lib/thumb/v6-m/nofp\libc-musl.a(__printf_core.o)
 .debug_abbrev  0x0000000000000000      0x317 d:/mplab x ide/xc32_v4.60/bin/bin/../../lib/gcc/pic32c/8.3.1/../../../../pic32c/lib/thumb/v6-m/nofp\libc-musl.a(__printf_core.o)
 .debug_loc     0x0000000000000000      0x6d9 d:/mplab x ide/xc32_v4.60/bin/bin/../../lib/gcc/pic32c/8.3.1/../../../../pic32c/lib/thumb/v6-m/nofp\libc-musl.a(__printf_core.o)
 .debug_aranges
                0x0000000000000000       0x50 d:/mplab x ide/xc32_v4.60/bin/bin/../../lib/gcc/pic32c/8.3.1/../../../../pic32c/lib/thumb/v6-m/nofp\libc-musl.a(__printf_core.o)
 .debug_ranges  0x0000000000000000       0x58 d:/mplab x ide/xc32_v4.60/bin/bin/../../lib/gcc/pic32c/8.3.1/../../../../pic32c/lib/thumb/v6-m/nofp\libc-musl.a(__printf_core.o)
 .debug_line    0x0000000000000000      0x6c7 d:/mplab x ide/xc32_v4.60/bin/bin/../../lib/gcc/pic32c/8.3.1/../../../../pic32c/lib/thumb/v6-m/nofp\libc-musl.a(__printf_core.o)
 .debug_str     0x0000000000000000      0x3e7 d:/mplab x ide/xc32_v4.60/bin/bin/../../lib/gcc/pic32c/8.3.1/../../../../pic32c/lib/thumb/v6-m/nofp\libc-musl.a(__printf_core.o)
 .comment       0x0000000000000000       0x2c d:/mplab x ide/xc32_v4.60/bin/bin/../../lib/gcc/pic32c/8.3.1/../../../../pic32c/lib/thumb/v6-m/nofp\libc-musl.a(__printf_core.o)
 .note.GNU-stack
                0x0000000000000000        0x0 d:/mplab x ide/xc32_v4.60/bin/bin/../../lib/gcc/pic32c/8.3.1/../../../../pic32c/lib/thumb/v6-m/nofp\libc-musl.a(__printf_core.o)
 .debug_frame   0x0000000000000000       0xc0 d:/mplab x ide/xc32_v4.60/bin/bin/../../lib/gcc/pic32c/8.3.1/../../../../pic32c/lib/thumb/v6-m/nofp\libc-musl.a(__printf_core.o)
 .ARM.attributes
                0x0000000000000000       0x2e d:/mplab x ide/xc32_v4.60/bin/bin/../../lib/gcc/pic32c/8.3.1/../../../../pic32c/lib/thumb/v6-m/nofp\libc-musl.a(__printf_core.o)
 .text          0x0000000000000000        0x0 d:/mplab x ide/xc32_v4.60/bin/bin/../../lib/gcc/pic32c/8.3.1/../../../../pic32c/lib/thumb/v6-m/nofp\libc-musl.a(atoi.o)
 .data          0x0000000000000000        0x0 d:/mplab x ide/xc32_v4.60/bin/bin/../../lib/gcc/pic32c/8.3.1/../../../../pic32c/lib/thumb/v6-m/nofp\libc-musl.a(atoi.o)
 .bss           0x0000000000000000        0x0 d:/mplab x ide/xc32_v4.60/bin/bin/../../lib/gcc/pic32c/8.3.1/../../../../pic32c/lib/thumb/v6-m/nofp\libc-musl.a(atoi.o)
 .xc_stack_usage
                0x0000000000000000       0x12 d:/mplab x ide/xc32_v4.60/bin/bin/../../lib/gcc/pic32c/8.3.1/../../../../pic32c/lib/thumb/v6-m/nofp\libc-musl.a(atoi.o)
 .text.atoi     0x0000000000000000       0x40 d:/mplab x ide/xc32_v4.60/bin/bin/../../lib/gcc/pic32c/8.3.1/../../../../pic32c/lib/thumb/v6-m/nofp\libc-musl.a(atoi.o)
 .xc_stack_usage.hdr
                0x0000000000000000        0xe d:/mplab x ide/xc32_v4.60/bin/bin/../../lib/gcc/pic32c/8.3.1/../../../../pic32c/lib/thumb/v6-m/nofp\libc-musl.a(atoi.o)
 .debug_info    0x0000000000000000       0xf4 d:/mplab x ide/xc32_v4.60/bin/bin/../../lib/gcc/pic32c/8.3.1/../../../../pic32c/lib/thumb/v6-m/nofp\libc-musl.a(atoi.o)
 .debug_abbrev  0x0000000000000000       0xc6 d:/mplab x ide/xc32_v4.60/bin/bin/../../lib/gcc/pic32c/8.3.1/../../../../pic32c/lib/thumb/v6-m/nofp\libc-musl.a(atoi.o)
 .debug_loc     0x0000000000000000       0xdc d:/mplab x ide/xc32_v4.60/bin/bin/../../lib/gcc/pic32c/8.3.1/../../../../pic32c/lib/thumb/v6-m/nofp\libc-musl.a(atoi.o)
 .debug_aranges
                0x0000000000000000       0x20 d:/mplab x ide/xc32_v4.60/bin/bin/../../lib/gcc/pic32c/8.3.1/../../../../pic32c/lib/thumb/v6-m/nofp\libc-musl.a(atoi.o)
 .debug_ranges  0x0000000000000000       0x10 d:/mplab x ide/xc32_v4.60/bin/bin/../../lib/gcc/pic32c/8.3.1/../../../../pic32c/lib/thumb/v6-m/nofp\libc-musl.a(atoi.o)
 .debug_line    0x0000000000000000      0x173 d:/mplab x ide/xc32_v4.60/bin/bin/../../lib/gcc/pic32c/8.3.1/../../../../pic32c/lib/thumb/v6-m/nofp\libc-musl.a(atoi.o)
 .debug_str     0x0000000000000000      0x21c d:/mplab x ide/xc32_v4.60/bin/bin/../../lib/gcc/pic32c/8.3.1/../../../../pic32c/lib/thumb/v6-m/nofp\libc-musl.a(atoi.o)
 .comment       0x0000000000000000       0x2c d:/mplab x ide/xc32_v4.60/bin/bin/../../lib/gcc/pic32c/8.3.1/../../../../pic32c/lib/thumb/v6-m/nofp\libc-musl.a(atoi.o)
 .note.GNU-stack
                0x0000000000000000        0x0 d:/mplab x ide/xc32_v4.60/bin/bin/../../lib/gcc/pic32c/8.3.1/../../../../pic32c/lib/thumb/v6-m/nofp\libc-musl.a(atoi.o)
 .debug_frame   0x0000000000000000       0x28 d:/mplab x ide/xc32_v4.60/bin/bin/../../lib/gcc/pic32c/8.3.1/../../../../pic32c/lib/thumb/v6-m/nofp\libc-musl.a(atoi.o)
 .ARM.attributes
                0x0000000000000000       0x2e d:/mplab x ide/xc32_v4.60/bin/bin/../../lib/gcc/pic32c/8.3.1/../../../../pic32c/lib/thumb/v6-m/nofp\libc-musl.a(atoi.o)
 .text          0x0000000000000000        0x0 d:/mplab x ide/xc32_v4.60/bin/bin/../../lib/gcc/pic32c/8.3.1/../../../../pic32c/lib/thumb/v6-m/nofp\libc-musl.a(tolower.o)
 .data          0x0000000000000000        0x0 d:/mplab x ide/xc32_v4.60/bin/bin/../../lib/gcc/pic32c/8.3.1/../../../../pic32c/lib/thumb/v6-m/nofp\libc-musl.a(tolower.o)
 .bss           0x0000000000000000        0x0 d:/mplab x ide/xc32_v4.60/bin/bin/../../lib/gcc/pic32c/8.3.1/../../../../pic32c/lib/thumb/v6-m/nofp\libc-musl.a(tolower.o)
 .xc_stack_usage
                0x0000000000000000       0x2e d:/mplab x ide/xc32_v4.60/bin/bin/../../lib/gcc/pic32c/8.3.1/../../../../pic32c/lib/thumb/v6-m/nofp\libc-musl.a(tolower.o)
 .text.tolower  0x0000000000000000        0xe d:/mplab x ide/xc32_v4.60/bin/bin/../../lib/gcc/pic32c/8.3.1/../../../../pic32c/lib/thumb/v6-m/nofp\libc-musl.a(tolower.o)
 .text.__tolower_l
                0x0000000000000000        0x8 d:/mplab x ide/xc32_v4.60/bin/bin/../../lib/gcc/pic32c/8.3.1/../../../../pic32c/lib/thumb/v6-m/nofp\libc-musl.a(tolower.o)
 .xc_stack_usage.hdr
                0x0000000000000000        0xe d:/mplab x ide/xc32_v4.60/bin/bin/../../lib/gcc/pic32c/8.3.1/../../../../pic32c/lib/thumb/v6-m/nofp\libc-musl.a(tolower.o)
 .debug_info    0x0000000000000000      0x131 d:/mplab x ide/xc32_v4.60/bin/bin/../../lib/gcc/pic32c/8.3.1/../../../../pic32c/lib/thumb/v6-m/nofp\libc-musl.a(tolower.o)
 .debug_abbrev  0x0000000000000000       0xf4 d:/mplab x ide/xc32_v4.60/bin/bin/../../lib/gcc/pic32c/8.3.1/../../../../pic32c/lib/thumb/v6-m/nofp\libc-musl.a(tolower.o)
 .debug_loc     0x0000000000000000       0x8f d:/mplab x ide/xc32_v4.60/bin/bin/../../lib/gcc/pic32c/8.3.1/../../../../pic32c/lib/thumb/v6-m/nofp\libc-musl.a(tolower.o)
 .debug_aranges
                0x0000000000000000       0x28 d:/mplab x ide/xc32_v4.60/bin/bin/../../lib/gcc/pic32c/8.3.1/../../../../pic32c/lib/thumb/v6-m/nofp\libc-musl.a(tolower.o)
 .debug_ranges  0x0000000000000000       0x18 d:/mplab x ide/xc32_v4.60/bin/bin/../../lib/gcc/pic32c/8.3.1/../../../../pic32c/lib/thumb/v6-m/nofp\libc-musl.a(tolower.o)
 .debug_line    0x0000000000000000      0x15c d:/mplab x ide/xc32_v4.60/bin/bin/../../lib/gcc/pic32c/8.3.1/../../../../pic32c/lib/thumb/v6-m/nofp\libc-musl.a(tolower.o)
 .debug_str     0x0000000000000000      0x249 d:/mplab x ide/xc32_v4.60/bin/bin/../../lib/gcc/pic32c/8.3.1/../../../../pic32c/lib/thumb/v6-m/nofp\libc-musl.a(tolower.o)
 .comment       0x0000000000000000       0x2c d:/mplab x ide/xc32_v4.60/bin/bin/../../lib/gcc/pic32c/8.3.1/../../../../pic32c/lib/thumb/v6-m/nofp\libc-musl.a(tolower.o)
 .note.GNU-stack
                0x0000000000000000        0x0 d:/mplab x ide/xc32_v4.60/bin/bin/../../lib/gcc/pic32c/8.3.1/../../../../pic32c/lib/thumb/v6-m/nofp\libc-musl.a(tolower.o)
 .debug_frame   0x0000000000000000       0x38 d:/mplab x ide/xc32_v4.60/bin/bin/../../lib/gcc/pic32c/8.3.1/../../../../pic32c/lib/thumb/v6-m/nofp\libc-musl.a(tolower.o)
 .ARM.attributes
                0x0000000000000000       0x2e d:/mplab x ide/xc32_v4.60/bin/bin/../../lib/gcc/pic32c/8.3.1/../../../../pic32c/lib/thumb/v6-m/nofp\libc-musl.a(tolower.o)
 .text          0x0000000000000000        0x0 d:/mplab x ide/xc32_v4.60/bin/bin/../../lib/gcc/pic32c/8.3.1/../../../../pic32c/lib/thumb/v6-m/nofp\libc-musl.a(__fmt_a.o)
 .data          0x0000000000000000        0x0 d:/mplab x ide/xc32_v4.60/bin/bin/../../lib/gcc/pic32c/8.3.1/../../../../pic32c/lib/thumb/v6-m/nofp\libc-musl.a(__fmt_a.o)
 .bss           0x0000000000000000        0x0 d:/mplab x ide/xc32_v4.60/bin/bin/../../lib/gcc/pic32c/8.3.1/../../../../pic32c/lib/thumb/v6-m/nofp\libc-musl.a(__fmt_a.o)
 .xc_stack_usage
                0x0000000000000000       0x15 d:/mplab x ide/xc32_v4.60/bin/bin/../../lib/gcc/pic32c/8.3.1/../../../../pic32c/lib/thumb/v6-m/nofp\libc-musl.a(__fmt_a.o)
 .text.__fmt_a  0x0000000000000000      0x484 d:/mplab x ide/xc32_v4.60/bin/bin/../../lib/gcc/pic32c/8.3.1/../../../../pic32c/lib/thumb/v6-m/nofp\libc-musl.a(__fmt_a.o)
 .rodata.str1.1
                0x0000000000000000       0x10 d:/mplab x ide/xc32_v4.60/bin/bin/../../lib/gcc/pic32c/8.3.1/../../../../pic32c/lib/thumb/v6-m/nofp\libc-musl.a(__fmt_a.o)
 .xc_stack_usage.hdr
                0x0000000000000000        0xe d:/mplab x ide/xc32_v4.60/bin/bin/../../lib/gcc/pic32c/8.3.1/../../../../pic32c/lib/thumb/v6-m/nofp\libc-musl.a(__fmt_a.o)
 .debug_info    0x0000000000000000      0x5fb d:/mplab x ide/xc32_v4.60/bin/bin/../../lib/gcc/pic32c/8.3.1/../../../../pic32c/lib/thumb/v6-m/nofp\libc-musl.a(__fmt_a.o)
 .debug_abbrev  0x0000000000000000      0x1d5 d:/mplab x ide/xc32_v4.60/bin/bin/../../lib/gcc/pic32c/8.3.1/../../../../pic32c/lib/thumb/v6-m/nofp\libc-musl.a(__fmt_a.o)
 .debug_loc     0x0000000000000000      0xdb0 d:/mplab x ide/xc32_v4.60/bin/bin/../../lib/gcc/pic32c/8.3.1/../../../../pic32c/lib/thumb/v6-m/nofp\libc-musl.a(__fmt_a.o)
 .debug_aranges
                0x0000000000000000       0x20 d:/mplab x ide/xc32_v4.60/bin/bin/../../lib/gcc/pic32c/8.3.1/../../../../pic32c/lib/thumb/v6-m/nofp\libc-musl.a(__fmt_a.o)
 .debug_ranges  0x0000000000000000       0x10 d:/mplab x ide/xc32_v4.60/bin/bin/../../lib/gcc/pic32c/8.3.1/../../../../pic32c/lib/thumb/v6-m/nofp\libc-musl.a(__fmt_a.o)
 .debug_line    0x0000000000000000      0x646 d:/mplab x ide/xc32_v4.60/bin/bin/../../lib/gcc/pic32c/8.3.1/../../../../pic32c/lib/thumb/v6-m/nofp\libc-musl.a(__fmt_a.o)
 .debug_str     0x0000000000000000      0x333 d:/mplab x ide/xc32_v4.60/bin/bin/../../lib/gcc/pic32c/8.3.1/../../../../pic32c/lib/thumb/v6-m/nofp\libc-musl.a(__fmt_a.o)
 .comment       0x0000000000000000       0x2c d:/mplab x ide/xc32_v4.60/bin/bin/../../lib/gcc/pic32c/8.3.1/../../../../pic32c/lib/thumb/v6-m/nofp\libc-musl.a(__fmt_a.o)
 .note.GNU-stack
                0x0000000000000000        0x0 d:/mplab x ide/xc32_v4.60/bin/bin/../../lib/gcc/pic32c/8.3.1/../../../../pic32c/lib/thumb/v6-m/nofp\libc-musl.a(__fmt_a.o)
 .debug_frame   0x0000000000000000       0x30 d:/mplab x ide/xc32_v4.60/bin/bin/../../lib/gcc/pic32c/8.3.1/../../../../pic32c/lib/thumb/v6-m/nofp\libc-musl.a(__fmt_a.o)
 .ARM.attributes
                0x0000000000000000       0x2e d:/mplab x ide/xc32_v4.60/bin/bin/../../lib/gcc/pic32c/8.3.1/../../../../pic32c/lib/thumb/v6-m/nofp\libc-musl.a(__fmt_a.o)
 .text          0x0000000000000000        0x0 d:/mplab x ide/xc32_v4.60/bin/bin/../../lib/gcc/pic32c/8.3.1/../../../../pic32c/lib/thumb/v6-m/nofp\libc-musl.a(__fmt_d.o)
 .data          0x0000000000000000        0x0 d:/mplab x ide/xc32_v4.60/bin/bin/../../lib/gcc/pic32c/8.3.1/../../../../pic32c/lib/thumb/v6-m/nofp\libc-musl.a(__fmt_d.o)
 .bss           0x0000000000000000        0x0 d:/mplab x ide/xc32_v4.60/bin/bin/../../lib/gcc/pic32c/8.3.1/../../../../pic32c/lib/thumb/v6-m/nofp\libc-musl.a(__fmt_d.o)
 .xc_stack_usage
                0x0000000000000000       0x15 d:/mplab x ide/xc32_v4.60/bin/bin/../../lib/gcc/pic32c/8.3.1/../../../../pic32c/lib/thumb/v6-m/nofp\libc-musl.a(__fmt_d.o)
 .text.__fmt_d  0x0000000000000000       0xb2 d:/mplab x ide/xc32_v4.60/bin/bin/../../lib/gcc/pic32c/8.3.1/../../../../pic32c/lib/thumb/v6-m/nofp\libc-musl.a(__fmt_d.o)
 .xc_stack_usage.hdr
                0x0000000000000000        0xe d:/mplab x ide/xc32_v4.60/bin/bin/../../lib/gcc/pic32c/8.3.1/../../../../pic32c/lib/thumb/v6-m/nofp\libc-musl.a(__fmt_d.o)
 .debug_info    0x0000000000000000      0x330 d:/mplab x ide/xc32_v4.60/bin/bin/../../lib/gcc/pic32c/8.3.1/../../../../pic32c/lib/thumb/v6-m/nofp\libc-musl.a(__fmt_d.o)
 .debug_abbrev  0x0000000000000000      0x161 d:/mplab x ide/xc32_v4.60/bin/bin/../../lib/gcc/pic32c/8.3.1/../../../../pic32c/lib/thumb/v6-m/nofp\libc-musl.a(__fmt_d.o)
 .debug_loc     0x0000000000000000      0x2a6 d:/mplab x ide/xc32_v4.60/bin/bin/../../lib/gcc/pic32c/8.3.1/../../../../pic32c/lib/thumb/v6-m/nofp\libc-musl.a(__fmt_d.o)
 .debug_aranges
                0x0000000000000000       0x20 d:/mplab x ide/xc32_v4.60/bin/bin/../../lib/gcc/pic32c/8.3.1/../../../../pic32c/lib/thumb/v6-m/nofp\libc-musl.a(__fmt_d.o)
 .debug_ranges  0x0000000000000000       0x10 d:/mplab x ide/xc32_v4.60/bin/bin/../../lib/gcc/pic32c/8.3.1/../../../../pic32c/lib/thumb/v6-m/nofp\libc-musl.a(__fmt_d.o)
 .debug_line    0x0000000000000000      0x20b d:/mplab x ide/xc32_v4.60/bin/bin/../../lib/gcc/pic32c/8.3.1/../../../../pic32c/lib/thumb/v6-m/nofp\libc-musl.a(__fmt_d.o)
 .debug_str     0x0000000000000000      0x2f5 d:/mplab x ide/xc32_v4.60/bin/bin/../../lib/gcc/pic32c/8.3.1/../../../../pic32c/lib/thumb/v6-m/nofp\libc-musl.a(__fmt_d.o)
 .comment       0x0000000000000000       0x2c d:/mplab x ide/xc32_v4.60/bin/bin/../../lib/gcc/pic32c/8.3.1/../../../../pic32c/lib/thumb/v6-m/nofp\libc-musl.a(__fmt_d.o)
 .note.GNU-stack
                0x0000000000000000        0x0 d:/mplab x ide/xc32_v4.60/bin/bin/../../lib/gcc/pic32c/8.3.1/../../../../pic32c/lib/thumb/v6-m/nofp\libc-musl.a(__fmt_d.o)
 .debug_frame   0x0000000000000000       0x30 d:/mplab x ide/xc32_v4.60/bin/bin/../../lib/gcc/pic32c/8.3.1/../../../../pic32c/lib/thumb/v6-m/nofp\libc-musl.a(__fmt_d.o)
 .ARM.attributes
                0x0000000000000000       0x2e d:/mplab x ide/xc32_v4.60/bin/bin/../../lib/gcc/pic32c/8.3.1/../../../../pic32c/lib/thumb/v6-m/nofp\libc-musl.a(__fmt_d.o)
 .text          0x0000000000000000        0x0 d:/mplab x ide/xc32_v4.60/bin/bin/../../lib/gcc/pic32c/8.3.1/../../../../pic32c/lib/thumb/v6-m/nofp\libc-musl.a(__fmt_fp.o)
 .data          0x0000000000000000        0x0 d:/mplab x ide/xc32_v4.60/bin/bin/../../lib/gcc/pic32c/8.3.1/../../../../pic32c/lib/thumb/v6-m/nofp\libc-musl.a(__fmt_fp.o)
 .bss           0x0000000000000000        0x0 d:/mplab x ide/xc32_v4.60/bin/bin/../../lib/gcc/pic32c/8.3.1/../../../../pic32c/lib/thumb/v6-m/nofp\libc-musl.a(__fmt_fp.o)
 .xc_stack_usage
                0x0000000000000000       0x16 d:/mplab x ide/xc32_v4.60/bin/bin/../../lib/gcc/pic32c/8.3.1/../../../../pic32c/lib/thumb/v6-m/nofp\libc-musl.a(__fmt_fp.o)
 .text.__fmt_fp
                0x0000000000000000      0x4c0 d:/mplab x ide/xc32_v4.60/bin/bin/../../lib/gcc/pic32c/8.3.1/../../../../pic32c/lib/thumb/v6-m/nofp\libc-musl.a(__fmt_fp.o)
 .rodata.str1.1
                0x0000000000000000       0x10 d:/mplab x ide/xc32_v4.60/bin/bin/../../lib/gcc/pic32c/8.3.1/../../../../pic32c/lib/thumb/v6-m/nofp\libc-musl.a(__fmt_fp.o)
 .xc_stack_usage.hdr
                0x0000000000000000        0xe d:/mplab x ide/xc32_v4.60/bin/bin/../../lib/gcc/pic32c/8.3.1/../../../../pic32c/lib/thumb/v6-m/nofp\libc-musl.a(__fmt_fp.o)
 .debug_info    0x0000000000000000      0x676 d:/mplab x ide/xc32_v4.60/bin/bin/../../lib/gcc/pic32c/8.3.1/../../../../pic32c/lib/thumb/v6-m/nofp\libc-musl.a(__fmt_fp.o)
 .debug_abbrev  0x0000000000000000      0x1e3 d:/mplab x ide/xc32_v4.60/bin/bin/../../lib/gcc/pic32c/8.3.1/../../../../pic32c/lib/thumb/v6-m/nofp\libc-musl.a(__fmt_fp.o)
 .debug_loc     0x0000000000000000      0xc94 d:/mplab x ide/xc32_v4.60/bin/bin/../../lib/gcc/pic32c/8.3.1/../../../../pic32c/lib/thumb/v6-m/nofp\libc-musl.a(__fmt_fp.o)
 .debug_aranges
                0x0000000000000000       0x20 d:/mplab x ide/xc32_v4.60/bin/bin/../../lib/gcc/pic32c/8.3.1/../../../../pic32c/lib/thumb/v6-m/nofp\libc-musl.a(__fmt_fp.o)
 .debug_ranges  0x0000000000000000       0x10 d:/mplab x ide/xc32_v4.60/bin/bin/../../lib/gcc/pic32c/8.3.1/../../../../pic32c/lib/thumb/v6-m/nofp\libc-musl.a(__fmt_fp.o)
 .debug_line    0x0000000000000000      0x66d d:/mplab x ide/xc32_v4.60/bin/bin/../../lib/gcc/pic32c/8.3.1/../../../../pic32c/lib/thumb/v6-m/nofp\libc-musl.a(__fmt_fp.o)
 .debug_str     0x0000000000000000      0x354 d:/mplab x ide/xc32_v4.60/bin/bin/../../lib/gcc/pic32c/8.3.1/../../../../pic32c/lib/thumb/v6-m/nofp\libc-musl.a(__fmt_fp.o)
 .comment       0x0000000000000000       0x2c d:/mplab x ide/xc32_v4.60/bin/bin/../../lib/gcc/pic32c/8.3.1/../../../../pic32c/lib/thumb/v6-m/nofp\libc-musl.a(__fmt_fp.o)
 .note.GNU-stack
                0x0000000000000000        0x0 d:/mplab x ide/xc32_v4.60/bin/bin/../../lib/gcc/pic32c/8.3.1/../../../../pic32c/lib/thumb/v6-m/nofp\libc-musl.a(__fmt_fp.o)
 .debug_frame   0x0000000000000000       0x34 d:/mplab x ide/xc32_v4.60/bin/bin/../../lib/gcc/pic32c/8.3.1/../../../../pic32c/lib/thumb/v6-m/nofp\libc-musl.a(__fmt_fp.o)
 .ARM.attributes
                0x0000000000000000       0x2e d:/mplab x ide/xc32_v4.60/bin/bin/../../lib/gcc/pic32c/8.3.1/../../../../pic32c/lib/thumb/v6-m/nofp\libc-musl.a(__fmt_fp.o)
 .text          0x0000000000000000        0x0 d:/mplab x ide/xc32_v4.60/bin/bin/../../lib/gcc/pic32c/8.3.1/../../../../pic32c/lib/thumb/v6-m/nofp\libc-musl.a(__fmt_o.o)
 .data          0x0000000000000000        0x0 d:/mplab x ide/xc32_v4.60/bin/bin/../../lib/gcc/pic32c/8.3.1/../../../../pic32c/lib/thumb/v6-m/nofp\libc-musl.a(__fmt_o.o)
 .bss           0x0000000000000000        0x0 d:/mplab x ide/xc32_v4.60/bin/bin/../../lib/gcc/pic32c/8.3.1/../../../../pic32c/lib/thumb/v6-m/nofp\libc-musl.a(__fmt_o.o)
 .xc_stack_usage
                0x0000000000000000       0x15 d:/mplab x ide/xc32_v4.60/bin/bin/../../lib/gcc/pic32c/8.3.1/../../../../pic32c/lib/thumb/v6-m/nofp\libc-musl.a(__fmt_o.o)
 .text.__fmt_o  0x0000000000000000       0x6e d:/mplab x ide/xc32_v4.60/bin/bin/../../lib/gcc/pic32c/8.3.1/../../../../pic32c/lib/thumb/v6-m/nofp\libc-musl.a(__fmt_o.o)
 .xc_stack_usage.hdr
                0x0000000000000000        0xe d:/mplab x ide/xc32_v4.60/bin/bin/../../lib/gcc/pic32c/8.3.1/../../../../pic32c/lib/thumb/v6-m/nofp\libc-musl.a(__fmt_o.o)
 .debug_info    0x0000000000000000      0x301 d:/mplab x ide/xc32_v4.60/bin/bin/../../lib/gcc/pic32c/8.3.1/../../../../pic32c/lib/thumb/v6-m/nofp\libc-musl.a(__fmt_o.o)
 .debug_abbrev  0x0000000000000000      0x161 d:/mplab x ide/xc32_v4.60/bin/bin/../../lib/gcc/pic32c/8.3.1/../../../../pic32c/lib/thumb/v6-m/nofp\libc-musl.a(__fmt_o.o)
 .debug_loc     0x0000000000000000      0x12d d:/mplab x ide/xc32_v4.60/bin/bin/../../lib/gcc/pic32c/8.3.1/../../../../pic32c/lib/thumb/v6-m/nofp\libc-musl.a(__fmt_o.o)
 .debug_aranges
                0x0000000000000000       0x20 d:/mplab x ide/xc32_v4.60/bin/bin/../../lib/gcc/pic32c/8.3.1/../../../../pic32c/lib/thumb/v6-m/nofp\libc-musl.a(__fmt_o.o)
 .debug_ranges  0x0000000000000000       0x10 d:/mplab x ide/xc32_v4.60/bin/bin/../../lib/gcc/pic32c/8.3.1/../../../../pic32c/lib/thumb/v6-m/nofp\libc-musl.a(__fmt_o.o)
 .debug_line    0x0000000000000000      0x1b6 d:/mplab x ide/xc32_v4.60/bin/bin/../../lib/gcc/pic32c/8.3.1/../../../../pic32c/lib/thumb/v6-m/nofp\libc-musl.a(__fmt_o.o)
 .debug_str     0x0000000000000000      0x2f5 d:/mplab x ide/xc32_v4.60/bin/bin/../../lib/gcc/pic32c/8.3.1/../../../../pic32c/lib/thumb/v6-m/nofp\libc-musl.a(__fmt_o.o)
 .comment       0x0000000000000000       0x2c d:/mplab x ide/xc32_v4.60/bin/bin/../../lib/gcc/pic32c/8.3.1/../../../../pic32c/lib/thumb/v6-m/nofp\libc-musl.a(__fmt_o.o)
 .note.GNU-stack
                0x0000000000000000        0x0 d:/mplab x ide/xc32_v4.60/bin/bin/../../lib/gcc/pic32c/8.3.1/../../../../pic32c/lib/thumb/v6-m/nofp\libc-musl.a(__fmt_o.o)
 .debug_frame   0x0000000000000000       0x30 d:/mplab x ide/xc32_v4.60/bin/bin/../../lib/gcc/pic32c/8.3.1/../../../../pic32c/lib/thumb/v6-m/nofp\libc-musl.a(__fmt_o.o)
 .ARM.attributes
                0x0000000000000000       0x2e d:/mplab x ide/xc32_v4.60/bin/bin/../../lib/gcc/pic32c/8.3.1/../../../../pic32c/lib/thumb/v6-m/nofp\libc-musl.a(__fmt_o.o)
 .text          0x0000000000000000        0x0 d:/mplab x ide/xc32_v4.60/bin/bin/../../lib/gcc/pic32c/8.3.1/../../../../pic32c/lib/thumb/v6-m/nofp\libc-musl.a(__fmt_s.o)
 .data          0x0000000000000000        0x0 d:/mplab x ide/xc32_v4.60/bin/bin/../../lib/gcc/pic32c/8.3.1/../../../../pic32c/lib/thumb/v6-m/nofp\libc-musl.a(__fmt_s.o)
 .bss           0x0000000000000000        0x0 d:/mplab x ide/xc32_v4.60/bin/bin/../../lib/gcc/pic32c/8.3.1/../../../../pic32c/lib/thumb/v6-m/nofp\libc-musl.a(__fmt_s.o)
 .xc_stack_usage
                0x0000000000000000       0x15 d:/mplab x ide/xc32_v4.60/bin/bin/../../lib/gcc/pic32c/8.3.1/../../../../pic32c/lib/thumb/v6-m/nofp\libc-musl.a(__fmt_s.o)
 .text.__fmt_s  0x0000000000000000       0x50 d:/mplab x ide/xc32_v4.60/bin/bin/../../lib/gcc/pic32c/8.3.1/../../../../pic32c/lib/thumb/v6-m/nofp\libc-musl.a(__fmt_s.o)
 .rodata.str1.1
                0x0000000000000000        0x7 d:/mplab x ide/xc32_v4.60/bin/bin/../../lib/gcc/pic32c/8.3.1/../../../../pic32c/lib/thumb/v6-m/nofp\libc-musl.a(__fmt_s.o)
 .xc_stack_usage.hdr
                0x0000000000000000        0xe d:/mplab x ide/xc32_v4.60/bin/bin/../../lib/gcc/pic32c/8.3.1/../../../../pic32c/lib/thumb/v6-m/nofp\libc-musl.a(__fmt_s.o)
 .debug_info    0x0000000000000000      0x2e9 d:/mplab x ide/xc32_v4.60/bin/bin/../../lib/gcc/pic32c/8.3.1/../../../../pic32c/lib/thumb/v6-m/nofp\libc-musl.a(__fmt_s.o)
 .debug_abbrev  0x0000000000000000      0x15e d:/mplab x ide/xc32_v4.60/bin/bin/../../lib/gcc/pic32c/8.3.1/../../../../pic32c/lib/thumb/v6-m/nofp\libc-musl.a(__fmt_s.o)
 .debug_loc     0x0000000000000000      0x144 d:/mplab x ide/xc32_v4.60/bin/bin/../../lib/gcc/pic32c/8.3.1/../../../../pic32c/lib/thumb/v6-m/nofp\libc-musl.a(__fmt_s.o)
 .debug_aranges
                0x0000000000000000       0x20 d:/mplab x ide/xc32_v4.60/bin/bin/../../lib/gcc/pic32c/8.3.1/../../../../pic32c/lib/thumb/v6-m/nofp\libc-musl.a(__fmt_s.o)
 .debug_ranges  0x0000000000000000       0x10 d:/mplab x ide/xc32_v4.60/bin/bin/../../lib/gcc/pic32c/8.3.1/../../../../pic32c/lib/thumb/v6-m/nofp\libc-musl.a(__fmt_s.o)
 .debug_line    0x0000000000000000      0x204 d:/mplab x ide/xc32_v4.60/bin/bin/../../lib/gcc/pic32c/8.3.1/../../../../pic32c/lib/thumb/v6-m/nofp\libc-musl.a(__fmt_s.o)
 .debug_str     0x0000000000000000      0x2f9 d:/mplab x ide/xc32_v4.60/bin/bin/../../lib/gcc/pic32c/8.3.1/../../../../pic32c/lib/thumb/v6-m/nofp\libc-musl.a(__fmt_s.o)
 .comment       0x0000000000000000       0x2c d:/mplab x ide/xc32_v4.60/bin/bin/../../lib/gcc/pic32c/8.3.1/../../../../pic32c/lib/thumb/v6-m/nofp\libc-musl.a(__fmt_s.o)
 .note.GNU-stack
                0x0000000000000000        0x0 d:/mplab x ide/xc32_v4.60/bin/bin/../../lib/gcc/pic32c/8.3.1/../../../../pic32c/lib/thumb/v6-m/nofp\libc-musl.a(__fmt_s.o)
 .debug_frame   0x0000000000000000       0x30 d:/mplab x ide/xc32_v4.60/bin/bin/../../lib/gcc/pic32c/8.3.1/../../../../pic32c/lib/thumb/v6-m/nofp\libc-musl.a(__fmt_s.o)
 .ARM.attributes
                0x0000000000000000       0x2e d:/mplab x ide/xc32_v4.60/bin/bin/../../lib/gcc/pic32c/8.3.1/../../../../pic32c/lib/thumb/v6-m/nofp\libc-musl.a(__fmt_s.o)
 .text          0x0000000000000000        0x0 d:/mplab x ide/xc32_v4.60/bin/bin/../../lib/gcc/pic32c/8.3.1/../../../../pic32c/lib/thumb/v6-m/nofp\libc-musl.a(__fmt_u.o)
 .data          0x0000000000000000        0x0 d:/mplab x ide/xc32_v4.60/bin/bin/../../lib/gcc/pic32c/8.3.1/../../../../pic32c/lib/thumb/v6-m/nofp\libc-musl.a(__fmt_u.o)
 .bss           0x0000000000000000        0x0 d:/mplab x ide/xc32_v4.60/bin/bin/../../lib/gcc/pic32c/8.3.1/../../../../pic32c/lib/thumb/v6-m/nofp\libc-musl.a(__fmt_u.o)
 .xc_stack_usage
                0x0000000000000000       0x15 d:/mplab x ide/xc32_v4.60/bin/bin/../../lib/gcc/pic32c/8.3.1/../../../../pic32c/lib/thumb/v6-m/nofp\libc-musl.a(__fmt_u.o)
 .text.__fmt_u  0x0000000000000000       0x56 d:/mplab x ide/xc32_v4.60/bin/bin/../../lib/gcc/pic32c/8.3.1/../../../../pic32c/lib/thumb/v6-m/nofp\libc-musl.a(__fmt_u.o)
 .xc_stack_usage.hdr
                0x0000000000000000        0xe d:/mplab x ide/xc32_v4.60/bin/bin/../../lib/gcc/pic32c/8.3.1/../../../../pic32c/lib/thumb/v6-m/nofp\libc-musl.a(__fmt_u.o)
 .debug_info    0x0000000000000000      0x301 d:/mplab x ide/xc32_v4.60/bin/bin/../../lib/gcc/pic32c/8.3.1/../../../../pic32c/lib/thumb/v6-m/nofp\libc-musl.a(__fmt_u.o)
 .debug_abbrev  0x0000000000000000      0x161 d:/mplab x ide/xc32_v4.60/bin/bin/../../lib/gcc/pic32c/8.3.1/../../../../pic32c/lib/thumb/v6-m/nofp\libc-musl.a(__fmt_u.o)
 .debug_loc     0x0000000000000000      0x12d d:/mplab x ide/xc32_v4.60/bin/bin/../../lib/gcc/pic32c/8.3.1/../../../../pic32c/lib/thumb/v6-m/nofp\libc-musl.a(__fmt_u.o)
 .debug_aranges
                0x0000000000000000       0x20 d:/mplab x ide/xc32_v4.60/bin/bin/../../lib/gcc/pic32c/8.3.1/../../../../pic32c/lib/thumb/v6-m/nofp\libc-musl.a(__fmt_u.o)
 .debug_ranges  0x0000000000000000       0x10 d:/mplab x ide/xc32_v4.60/bin/bin/../../lib/gcc/pic32c/8.3.1/../../../../pic32c/lib/thumb/v6-m/nofp\libc-musl.a(__fmt_u.o)
 .debug_line    0x0000000000000000      0x187 d:/mplab x ide/xc32_v4.60/bin/bin/../../lib/gcc/pic32c/8.3.1/../../../../pic32c/lib/thumb/v6-m/nofp\libc-musl.a(__fmt_u.o)
 .debug_str     0x0000000000000000      0x2f5 d:/mplab x ide/xc32_v4.60/bin/bin/../../lib/gcc/pic32c/8.3.1/../../../../pic32c/lib/thumb/v6-m/nofp\libc-musl.a(__fmt_u.o)
 .comment       0x0000000000000000       0x2c d:/mplab x ide/xc32_v4.60/bin/bin/../../lib/gcc/pic32c/8.3.1/../../../../pic32c/lib/thumb/v6-m/nofp\libc-musl.a(__fmt_u.o)
 .note.GNU-stack
                0x0000000000000000        0x0 d:/mplab x ide/xc32_v4.60/bin/bin/../../lib/gcc/pic32c/8.3.1/../../../../pic32c/lib/thumb/v6-m/nofp\libc-musl.a(__fmt_u.o)
 .debug_frame   0x0000000000000000       0x30 d:/mplab x ide/xc32_v4.60/bin/bin/../../lib/gcc/pic32c/8.3.1/../../../../pic32c/lib/thumb/v6-m/nofp\libc-musl.a(__fmt_u.o)
 .ARM.attributes
                0x0000000000000000       0x2e d:/mplab x ide/xc32_v4.60/bin/bin/../../lib/gcc/pic32c/8.3.1/../../../../pic32c/lib/thumb/v6-m/nofp\libc-musl.a(__fmt_u.o)
 .text          0x0000000000000000        0x0 d:/mplab x ide/xc32_v4.60/bin/bin/../../lib/gcc/pic32c/8.3.1/../../../../pic32c/lib/thumb/v6-m/nofp\libc-musl.a(__fmt_x.o)
 .data          0x0000000000000000        0x0 d:/mplab x ide/xc32_v4.60/bin/bin/../../lib/gcc/pic32c/8.3.1/../../../../pic32c/lib/thumb/v6-m/nofp\libc-musl.a(__fmt_x.o)
 .bss           0x0000000000000000        0x0 d:/mplab x ide/xc32_v4.60/bin/bin/../../lib/gcc/pic32c/8.3.1/../../../../pic32c/lib/thumb/v6-m/nofp\libc-musl.a(__fmt_x.o)
 .xc_stack_usage
                0x0000000000000000       0x15 d:/mplab x ide/xc32_v4.60/bin/bin/../../lib/gcc/pic32c/8.3.1/../../../../pic32c/lib/thumb/v6-m/nofp\libc-musl.a(__fmt_x.o)
 .text.__fmt_x  0x0000000000000000      0x132 d:/mplab x ide/xc32_v4.60/bin/bin/../../lib/gcc/pic32c/8.3.1/../../../../pic32c/lib/thumb/v6-m/nofp\libc-musl.a(__fmt_x.o)
 .xc_stack_usage.hdr
                0x0000000000000000        0xe d:/mplab x ide/xc32_v4.60/bin/bin/../../lib/gcc/pic32c/8.3.1/../../../../pic32c/lib/thumb/v6-m/nofp\libc-musl.a(__fmt_x.o)
 .debug_info    0x0000000000000000      0x335 d:/mplab x ide/xc32_v4.60/bin/bin/../../lib/gcc/pic32c/8.3.1/../../../../pic32c/lib/thumb/v6-m/nofp\libc-musl.a(__fmt_x.o)
 .debug_abbrev  0x0000000000000000      0x150 d:/mplab x ide/xc32_v4.60/bin/bin/../../lib/gcc/pic32c/8.3.1/../../../../pic32c/lib/thumb/v6-m/nofp\libc-musl.a(__fmt_x.o)
 .debug_loc     0x0000000000000000      0x3be d:/mplab x ide/xc32_v4.60/bin/bin/../../lib/gcc/pic32c/8.3.1/../../../../pic32c/lib/thumb/v6-m/nofp\libc-musl.a(__fmt_x.o)
 .debug_aranges
                0x0000000000000000       0x20 d:/mplab x ide/xc32_v4.60/bin/bin/../../lib/gcc/pic32c/8.3.1/../../../../pic32c/lib/thumb/v6-m/nofp\libc-musl.a(__fmt_x.o)
 .debug_ranges  0x0000000000000000       0x10 d:/mplab x ide/xc32_v4.60/bin/bin/../../lib/gcc/pic32c/8.3.1/../../../../pic32c/lib/thumb/v6-m/nofp\libc-musl.a(__fmt_x.o)
 .debug_line    0x0000000000000000      0x2ec d:/mplab x ide/xc32_v4.60/bin/bin/../../lib/gcc/pic32c/8.3.1/../../../../pic32c/lib/thumb/v6-m/nofp\libc-musl.a(__fmt_x.o)
 .debug_str     0x0000000000000000      0x2f5 d:/mplab x ide/xc32_v4.60/bin/bin/../../lib/gcc/pic32c/8.3.1/../../../../pic32c/lib/thumb/v6-m/nofp\libc-musl.a(__fmt_x.o)
 .comment       0x0000000000000000       0x2c d:/mplab x ide/xc32_v4.60/bin/bin/../../lib/gcc/pic32c/8.3.1/../../../../pic32c/lib/thumb/v6-m/nofp\libc-musl.a(__fmt_x.o)
 .note.GNU-stack
                0x0000000000000000        0x0 d:/mplab x ide/xc32_v4.60/bin/bin/../../lib/gcc/pic32c/8.3.1/../../../../pic32c/lib/thumb/v6-m/nofp\libc-musl.a(__fmt_x.o)
 .debug_frame   0x0000000000000000       0x30 d:/mplab x ide/xc32_v4.60/bin/bin/../../lib/gcc/pic32c/8.3.1/../../../../pic32c/lib/thumb/v6-m/nofp\libc-musl.a(__fmt_x.o)
 .ARM.attributes
                0x0000000000000000       0x2e d:/mplab x ide/xc32_v4.60/bin/bin/../../lib/gcc/pic32c/8.3.1/../../../../pic32c/lib/thumb/v6-m/nofp\libc-musl.a(__fmt_x.o)
 .text          0x0000000000000000        0x0 d:/mplab x ide/xc32_v4.60/bin/bin/../../lib/gcc/pic32c/8.3.1/../../../../pic32c/lib/thumb/v6-m/nofp\libc-musl.a(__init_stdio.o)
 .data          0x0000000000000000        0x0 d:/mplab x ide/xc32_v4.60/bin/bin/../../lib/gcc/pic32c/8.3.1/../../../../pic32c/lib/thumb/v6-m/nofp\libc-musl.a(__init_stdio.o)
 .bss           0x0000000000000000        0x0 d:/mplab x ide/xc32_v4.60/bin/bin/../../lib/gcc/pic32c/8.3.1/../../../../pic32c/lib/thumb/v6-m/nofp\libc-musl.a(__init_stdio.o)
 .xc_stack_usage
                0x0000000000000000       0x2f d:/mplab x ide/xc32_v4.60/bin/bin/../../lib/gcc/pic32c/8.3.1/../../../../pic32c/lib/thumb/v6-m/nofp\libc-musl.a(__init_stdio.o)
 .xc_stack_usage.hdr
                0x0000000000000000        0xe d:/mplab x ide/xc32_v4.60/bin/bin/../../lib/gcc/pic32c/8.3.1/../../../../pic32c/lib/thumb/v6-m/nofp\libc-musl.a(__init_stdio.o)
 .text          0x0000000000000000        0x0 d:/mplab x ide/xc32_v4.60/bin/bin/../../lib/gcc/pic32c/8.3.1/../../../../pic32c/lib/thumb/v6-m/nofp\libc-musl.a(__io_file_needed.o)
 .data          0x0000000000000000        0x0 d:/mplab x ide/xc32_v4.60/bin/bin/../../lib/gcc/pic32c/8.3.1/../../../../pic32c/lib/thumb/v6-m/nofp\libc-musl.a(__io_file_needed.o)
 .bss           0x0000000000000000        0x0 d:/mplab x ide/xc32_v4.60/bin/bin/../../lib/gcc/pic32c/8.3.1/../../../../pic32c/lib/thumb/v6-m/nofp\libc-musl.a(__io_file_needed.o)
 .xc_stack_usage
                0x0000000000000000       0x1e d:/mplab x ide/xc32_v4.60/bin/bin/../../lib/gcc/pic32c/8.3.1/../../../../pic32c/lib/thumb/v6-m/nofp\libc-musl.a(__io_file_needed.o)
 .xc_stack_usage.hdr
                0x0000000000000000        0xe d:/mplab x ide/xc32_v4.60/bin/bin/../../lib/gcc/pic32c/8.3.1/../../../../pic32c/lib/thumb/v6-m/nofp\libc-musl.a(__io_file_needed.o)
 .debug_info    0x0000000000000000       0xb8 d:/mplab x ide/xc32_v4.60/bin/bin/../../lib/gcc/pic32c/8.3.1/../../../../pic32c/lib/thumb/v6-m/nofp\libc-musl.a(__io_file_needed.o)
 .debug_abbrev  0x0000000000000000       0x67 d:/mplab x ide/xc32_v4.60/bin/bin/../../lib/gcc/pic32c/8.3.1/../../../../pic32c/lib/thumb/v6-m/nofp\libc-musl.a(__io_file_needed.o)
 .debug_loc     0x0000000000000000       0x20 d:/mplab x ide/xc32_v4.60/bin/bin/../../lib/gcc/pic32c/8.3.1/../../../../pic32c/lib/thumb/v6-m/nofp\libc-musl.a(__io_file_needed.o)
 .debug_aranges
                0x0000000000000000       0x20 d:/mplab x ide/xc32_v4.60/bin/bin/../../lib/gcc/pic32c/8.3.1/../../../../pic32c/lib/thumb/v6-m/nofp\libc-musl.a(__io_file_needed.o)
 .debug_ranges  0x0000000000000000       0x10 d:/mplab x ide/xc32_v4.60/bin/bin/../../lib/gcc/pic32c/8.3.1/../../../../pic32c/lib/thumb/v6-m/nofp\libc-musl.a(__io_file_needed.o)
 .debug_line    0x0000000000000000       0xb6 d:/mplab x ide/xc32_v4.60/bin/bin/../../lib/gcc/pic32c/8.3.1/../../../../pic32c/lib/thumb/v6-m/nofp\libc-musl.a(__io_file_needed.o)
 .debug_str     0x0000000000000000      0x2a7 d:/mplab x ide/xc32_v4.60/bin/bin/../../lib/gcc/pic32c/8.3.1/../../../../pic32c/lib/thumb/v6-m/nofp\libc-musl.a(__io_file_needed.o)
 .comment       0x0000000000000000       0x2c d:/mplab x ide/xc32_v4.60/bin/bin/../../lib/gcc/pic32c/8.3.1/../../../../pic32c/lib/thumb/v6-m/nofp\libc-musl.a(__io_file_needed.o)
 .note.GNU-stack
                0x0000000000000000        0x0 d:/mplab x ide/xc32_v4.60/bin/bin/../../lib/gcc/pic32c/8.3.1/../../../../pic32c/lib/thumb/v6-m/nofp\libc-musl.a(__io_file_needed.o)
 .debug_frame   0x0000000000000000       0x28 d:/mplab x ide/xc32_v4.60/bin/bin/../../lib/gcc/pic32c/8.3.1/../../../../pic32c/lib/thumb/v6-m/nofp\libc-musl.a(__io_file_needed.o)
 .ARM.attributes
                0x0000000000000000       0x2e d:/mplab x ide/xc32_v4.60/bin/bin/../../lib/gcc/pic32c/8.3.1/../../../../pic32c/lib/thumb/v6-m/nofp\libc-musl.a(__io_file_needed.o)
 .text          0x0000000000000000        0x0 d:/mplab x ide/xc32_v4.60/bin/bin/../../lib/gcc/pic32c/8.3.1/../../../../pic32c/lib/thumb/v6-m/nofp\libc-musl.a(toupper.o)
 .data          0x0000000000000000        0x0 d:/mplab x ide/xc32_v4.60/bin/bin/../../lib/gcc/pic32c/8.3.1/../../../../pic32c/lib/thumb/v6-m/nofp\libc-musl.a(toupper.o)
 .bss           0x0000000000000000        0x0 d:/mplab x ide/xc32_v4.60/bin/bin/../../lib/gcc/pic32c/8.3.1/../../../../pic32c/lib/thumb/v6-m/nofp\libc-musl.a(toupper.o)
 .xc_stack_usage
                0x0000000000000000       0x2e d:/mplab x ide/xc32_v4.60/bin/bin/../../lib/gcc/pic32c/8.3.1/../../../../pic32c/lib/thumb/v6-m/nofp\libc-musl.a(toupper.o)
 .text.toupper  0x0000000000000000        0xe d:/mplab x ide/xc32_v4.60/bin/bin/../../lib/gcc/pic32c/8.3.1/../../../../pic32c/lib/thumb/v6-m/nofp\libc-musl.a(toupper.o)
 .text.__toupper_l
                0x0000000000000000        0x8 d:/mplab x ide/xc32_v4.60/bin/bin/../../lib/gcc/pic32c/8.3.1/../../../../pic32c/lib/thumb/v6-m/nofp\libc-musl.a(toupper.o)
 .xc_stack_usage.hdr
                0x0000000000000000        0xe d:/mplab x ide/xc32_v4.60/bin/bin/../../lib/gcc/pic32c/8.3.1/../../../../pic32c/lib/thumb/v6-m/nofp\libc-musl.a(toupper.o)
 .debug_info    0x0000000000000000      0x131 d:/mplab x ide/xc32_v4.60/bin/bin/../../lib/gcc/pic32c/8.3.1/../../../../pic32c/lib/thumb/v6-m/nofp\libc-musl.a(toupper.o)
 .debug_abbrev  0x0000000000000000       0xf4 d:/mplab x ide/xc32_v4.60/bin/bin/../../lib/gcc/pic32c/8.3.1/../../../../pic32c/lib/thumb/v6-m/nofp\libc-musl.a(toupper.o)
 .debug_loc     0x0000000000000000       0x8f d:/mplab x ide/xc32_v4.60/bin/bin/../../lib/gcc/pic32c/8.3.1/../../../../pic32c/lib/thumb/v6-m/nofp\libc-musl.a(toupper.o)
 .debug_aranges
                0x0000000000000000       0x28 d:/mplab x ide/xc32_v4.60/bin/bin/../../lib/gcc/pic32c/8.3.1/../../../../pic32c/lib/thumb/v6-m/nofp\libc-musl.a(toupper.o)
 .debug_ranges  0x0000000000000000       0x18 d:/mplab x ide/xc32_v4.60/bin/bin/../../lib/gcc/pic32c/8.3.1/../../../../pic32c/lib/thumb/v6-m/nofp\libc-musl.a(toupper.o)
 .debug_line    0x0000000000000000      0x15c d:/mplab x ide/xc32_v4.60/bin/bin/../../lib/gcc/pic32c/8.3.1/../../../../pic32c/lib/thumb/v6-m/nofp\libc-musl.a(toupper.o)
 .debug_str     0x0000000000000000      0x249 d:/mplab x ide/xc32_v4.60/bin/bin/../../lib/gcc/pic32c/8.3.1/../../../../pic32c/lib/thumb/v6-m/nofp\libc-musl.a(toupper.o)
 .comment       0x0000000000000000       0x2c d:/mplab x ide/xc32_v4.60/bin/bin/../../lib/gcc/pic32c/8.3.1/../../../../pic32c/lib/thumb/v6-m/nofp\libc-musl.a(toupper.o)
 .note.GNU-stack
                0x0000000000000000        0x0 d:/mplab x ide/xc32_v4.60/bin/bin/../../lib/gcc/pic32c/8.3.1/../../../../pic32c/lib/thumb/v6-m/nofp\libc-musl.a(toupper.o)
 .debug_frame   0x0000000000000000       0x38 d:/mplab x ide/xc32_v4.60/bin/bin/../../lib/gcc/pic32c/8.3.1/../../../../pic32c/lib/thumb/v6-m/nofp\libc-musl.a(toupper.o)
 .ARM.attributes
                0x0000000000000000       0x2e d:/mplab x ide/xc32_v4.60/bin/bin/../../lib/gcc/pic32c/8.3.1/../../../../pic32c/lib/thumb/v6-m/nofp\libc-musl.a(toupper.o)
 .text          0x0000000000000000        0x0 d:/mplab x ide/xc32_v4.60/bin/bin/../../lib/gcc/pic32c/8.3.1/../../../../pic32c/lib/thumb/v6-m/nofp\libc-musl.a(__cvt_u.o)
 .data          0x0000000000000000        0x0 d:/mplab x ide/xc32_v4.60/bin/bin/../../lib/gcc/pic32c/8.3.1/../../../../pic32c/lib/thumb/v6-m/nofp\libc-musl.a(__cvt_u.o)
 .bss           0x0000000000000000        0x0 d:/mplab x ide/xc32_v4.60/bin/bin/../../lib/gcc/pic32c/8.3.1/../../../../pic32c/lib/thumb/v6-m/nofp\libc-musl.a(__cvt_u.o)
 .xc_stack_usage
                0x0000000000000000       0x15 d:/mplab x ide/xc32_v4.60/bin/bin/../../lib/gcc/pic32c/8.3.1/../../../../pic32c/lib/thumb/v6-m/nofp\libc-musl.a(__cvt_u.o)
 .text.__cvt_u  0x0000000000000000       0x76 d:/mplab x ide/xc32_v4.60/bin/bin/../../lib/gcc/pic32c/8.3.1/../../../../pic32c/lib/thumb/v6-m/nofp\libc-musl.a(__cvt_u.o)
 .xc_stack_usage.hdr
                0x0000000000000000        0xe d:/mplab x ide/xc32_v4.60/bin/bin/../../lib/gcc/pic32c/8.3.1/../../../../pic32c/lib/thumb/v6-m/nofp\libc-musl.a(__cvt_u.o)
 .debug_info    0x0000000000000000      0x1cf d:/mplab x ide/xc32_v4.60/bin/bin/../../lib/gcc/pic32c/8.3.1/../../../../pic32c/lib/thumb/v6-m/nofp\libc-musl.a(__cvt_u.o)
 .debug_abbrev  0x0000000000000000       0xf3 d:/mplab x ide/xc32_v4.60/bin/bin/../../lib/gcc/pic32c/8.3.1/../../../../pic32c/lib/thumb/v6-m/nofp\libc-musl.a(__cvt_u.o)
 .debug_loc     0x0000000000000000      0x1d3 d:/mplab x ide/xc32_v4.60/bin/bin/../../lib/gcc/pic32c/8.3.1/../../../../pic32c/lib/thumb/v6-m/nofp\libc-musl.a(__cvt_u.o)
 .debug_aranges
                0x0000000000000000       0x20 d:/mplab x ide/xc32_v4.60/bin/bin/../../lib/gcc/pic32c/8.3.1/../../../../pic32c/lib/thumb/v6-m/nofp\libc-musl.a(__cvt_u.o)
 .debug_ranges  0x0000000000000000       0x10 d:/mplab x ide/xc32_v4.60/bin/bin/../../lib/gcc/pic32c/8.3.1/../../../../pic32c/lib/thumb/v6-m/nofp\libc-musl.a(__cvt_u.o)
 .debug_line    0x0000000000000000      0x1d7 d:/mplab x ide/xc32_v4.60/bin/bin/../../lib/gcc/pic32c/8.3.1/../../../../pic32c/lib/thumb/v6-m/nofp\libc-musl.a(__cvt_u.o)
 .debug_str     0x0000000000000000      0x2b1 d:/mplab x ide/xc32_v4.60/bin/bin/../../lib/gcc/pic32c/8.3.1/../../../../pic32c/lib/thumb/v6-m/nofp\libc-musl.a(__cvt_u.o)
 .comment       0x0000000000000000       0x2c d:/mplab x ide/xc32_v4.60/bin/bin/../../lib/gcc/pic32c/8.3.1/../../../../pic32c/lib/thumb/v6-m/nofp\libc-musl.a(__cvt_u.o)
 .note.GNU-stack
                0x0000000000000000        0x0 d:/mplab x ide/xc32_v4.60/bin/bin/../../lib/gcc/pic32c/8.3.1/../../../../pic32c/lib/thumb/v6-m/nofp\libc-musl.a(__cvt_u.o)
 .debug_frame   0x0000000000000000       0x34 d:/mplab x ide/xc32_v4.60/bin/bin/../../lib/gcc/pic32c/8.3.1/../../../../pic32c/lib/thumb/v6-m/nofp\libc-musl.a(__cvt_u.o)
 .ARM.attributes
                0x0000000000000000       0x2e d:/mplab x ide/xc32_v4.60/bin/bin/../../lib/gcc/pic32c/8.3.1/../../../../pic32c/lib/thumb/v6-m/nofp\libc-musl.a(__cvt_u.o)
 .ARM.attributes
                0x0000000000000000       0x2c d:/mplab x ide/xc32_v4.60/bin/bin/../../lib/gcc/pic32c/8.3.1/../../../../pic32c/lib/thumb/v6-m/nofp\libm-fast-emfloat.a(fma.o)
 .comment       0x0000000000000000       0x2c d:/mplab x ide/xc32_v4.60/bin/bin/../../lib/gcc/pic32c/8.3.1/../../../../pic32c/lib/thumb/v6-m/nofp\libm-fast-emfloat.a(fma.o)
 .text.fma      0x0000000000000000       0x10 d:/mplab x ide/xc32_v4.60/bin/bin/../../lib/gcc/pic32c/8.3.1/../../../../pic32c/lib/thumb/v6-m/nofp\libm-fast-emfloat.a(fma.o)
 .xc_stack_usage.hdr
                0x0000000000000000        0xe d:/mplab x ide/xc32_v4.60/bin/bin/../../lib/gcc/pic32c/8.3.1/../../../../pic32c/lib/thumb/v6-m/nofp\libm-fast-emfloat.a(fma.o)
 .xc_stack_usage
                0x0000000000000000       0x11 d:/mplab x ide/xc32_v4.60/bin/bin/../../lib/gcc/pic32c/8.3.1/../../../../pic32c/lib/thumb/v6-m/nofp\libm-fast-emfloat.a(fma.o)
 .ARM.attributes
                0x0000000000000000       0x2c d:/mplab x ide/xc32_v4.60/bin/bin/../../lib/gcc/pic32c/8.3.1/../../../../pic32c/lib/thumb/v6-m/nofp\libm-fast-emfloat.a(floor.o)
 .comment       0x0000000000000000       0x2c d:/mplab x ide/xc32_v4.60/bin/bin/../../lib/gcc/pic32c/8.3.1/../../../../pic32c/lib/thumb/v6-m/nofp\libm-fast-emfloat.a(floor.o)
 .text.floor    0x0000000000000000       0xb4 d:/mplab x ide/xc32_v4.60/bin/bin/../../lib/gcc/pic32c/8.3.1/../../../../pic32c/lib/thumb/v6-m/nofp\libm-fast-emfloat.a(floor.o)
 .xc_stack_usage.hdr
                0x0000000000000000        0xe d:/mplab x ide/xc32_v4.60/bin/bin/../../lib/gcc/pic32c/8.3.1/../../../../pic32c/lib/thumb/v6-m/nofp\libm-fast-emfloat.a(floor.o)
 .xc_stack_usage
                0x0000000000000000       0x13 d:/mplab x ide/xc32_v4.60/bin/bin/../../lib/gcc/pic32c/8.3.1/../../../../pic32c/lib/thumb/v6-m/nofp\libm-fast-emfloat.a(floor.o)
 .ARM.attributes
                0x0000000000000000       0x1c d:/mplab x ide/xc32_v4.60/bin/bin/../../lib/gcc/pic32c/8.3.1/../../../../pic32c/lib/thumb/v6-m/nofp\libm-fast-emfloat.a(__aeabi_dadd.o)
 .text.__aeabi_dadd
                0x0000000000000000      0x1c8 d:/mplab x ide/xc32_v4.60/bin/bin/../../lib/gcc/pic32c/8.3.1/../../../../pic32c/lib/thumb/v6-m/nofp\libm-fast-emfloat.a(__aeabi_dadd.o)
 .xc_stack_usage.hdr
                0x0000000000000000        0xe d:/mplab x ide/xc32_v4.60/bin/bin/../../lib/gcc/pic32c/8.3.1/../../../../pic32c/lib/thumb/v6-m/nofp\libm-fast-emfloat.a(__aeabi_dadd.o)
 .xc_stack_usage
                0x0000000000000000       0x41 d:/mplab x ide/xc32_v4.60/bin/bin/../../lib/gcc/pic32c/8.3.1/../../../../pic32c/lib/thumb/v6-m/nofp\libm-fast-emfloat.a(__aeabi_dadd.o)
 .ARM.attributes
                0x0000000000000000       0x1c d:/mplab x ide/xc32_v4.60/bin/bin/../../lib/gcc/pic32c/8.3.1/../../../../pic32c/lib/thumb/v6-m/nofp\libm-fast-emfloat.a(__aeabi_dsub.o)
 .text.__aeabi_dsub
                0x0000000000000000       0x10 d:/mplab x ide/xc32_v4.60/bin/bin/../../lib/gcc/pic32c/8.3.1/../../../../pic32c/lib/thumb/v6-m/nofp\libm-fast-emfloat.a(__aeabi_dsub.o)
 .xc_stack_usage.hdr
                0x0000000000000000        0xe d:/mplab x ide/xc32_v4.60/bin/bin/../../lib/gcc/pic32c/8.3.1/../../../../pic32c/lib/thumb/v6-m/nofp\libm-fast-emfloat.a(__aeabi_dsub.o)
 .xc_stack_usage
                0x0000000000000000       0x1a d:/mplab x ide/xc32_v4.60/bin/bin/../../lib/gcc/pic32c/8.3.1/../../../../pic32c/lib/thumb/v6-m/nofp\libm-fast-emfloat.a(__aeabi_dsub.o)
 .ARM.attributes
                0x0000000000000000       0x1c d:/mplab x ide/xc32_v4.60/bin/bin/../../lib/gcc/pic32c/8.3.1/../../../../pic32c/lib/thumb/v6-m/nofp\libm-fast-emfloat.a(__aeabi_dmul_aux.o)
 .text.__aeabi_dmul_aux
                0x0000000000000000      0x18a d:/mplab x ide/xc32_v4.60/bin/bin/../../lib/gcc/pic32c/8.3.1/../../../../pic32c/lib/thumb/v6-m/nofp\libm-fast-emfloat.a(__aeabi_dmul_aux.o)
 .xc_stack_usage.hdr
                0x0000000000000000        0xe d:/mplab x ide/xc32_v4.60/bin/bin/../../lib/gcc/pic32c/8.3.1/../../../../pic32c/lib/thumb/v6-m/nofp\libm-fast-emfloat.a(__aeabi_dmul_aux.o)
 .xc_stack_usage
                0x0000000000000000       0x38 d:/mplab x ide/xc32_v4.60/bin/bin/../../lib/gcc/pic32c/8.3.1/../../../../pic32c/lib/thumb/v6-m/nofp\libm-fast-emfloat.a(__aeabi_dmul_aux.o)
 .ARM.attributes
                0x0000000000000000       0x1c d:/mplab x ide/xc32_v4.60/bin/bin/../../lib/gcc/pic32c/8.3.1/../../../../pic32c/lib/thumb/v6-m/nofp\libm-fast-emfloat.a(__aeabi_ddiv.o)
 .text.__aeabi_ddiv
                0x0000000000000000       0xc4 d:/mplab x ide/xc32_v4.60/bin/bin/../../lib/gcc/pic32c/8.3.1/../../../../pic32c/lib/thumb/v6-m/nofp\libm-fast-emfloat.a(__aeabi_ddiv.o)
 .xc_stack_usage.hdr
                0x0000000000000000        0xe d:/mplab x ide/xc32_v4.60/bin/bin/../../lib/gcc/pic32c/8.3.1/../../../../pic32c/lib/thumb/v6-m/nofp\libm-fast-emfloat.a(__aeabi_ddiv.o)
 .xc_stack_usage
                0x0000000000000000       0x1a d:/mplab x ide/xc32_v4.60/bin/bin/../../lib/gcc/pic32c/8.3.1/../../../../pic32c/lib/thumb/v6-m/nofp\libm-fast-emfloat.a(__aeabi_ddiv.o)
 .ARM.attributes
                0x0000000000000000       0x1c d:/mplab x ide/xc32_v4.60/bin/bin/../../lib/gcc/pic32c/8.3.1/../../../../pic32c/lib/thumb/v6-m/nofp\libm-fast-emfloat.a(__aeabi_dcmple.o)
 .text.__aeabi_dcmple
                0x0000000000000000       0x44 d:/mplab x ide/xc32_v4.60/bin/bin/../../lib/gcc/pic32c/8.3.1/../../../../pic32c/lib/thumb/v6-m/nofp\libm-fast-emfloat.a(__aeabi_dcmple.o)
 .xc_stack_usage.hdr
                0x0000000000000000        0xe d:/mplab x ide/xc32_v4.60/bin/bin/../../lib/gcc/pic32c/8.3.1/../../../../pic32c/lib/thumb/v6-m/nofp\libm-fast-emfloat.a(__aeabi_dcmple.o)
 .xc_stack_usage
                0x0000000000000000       0x1c d:/mplab x ide/xc32_v4.60/bin/bin/../../lib/gcc/pic32c/8.3.1/../../../../pic32c/lib/thumb/v6-m/nofp\libm-fast-emfloat.a(__aeabi_dcmple.o)
 .ARM.attributes
                0x0000000000000000       0x1c d:/mplab x ide/xc32_v4.60/bin/bin/../../lib/gcc/pic32c/8.3.1/../../../../pic32c/lib/thumb/v6-m/nofp\libm-fast-emfloat.a(__aeabi_dcmpeq.o)
 .text.__aeabi_dcmpeq
                0x0000000000000000       0x2e d:/mplab x ide/xc32_v4.60/bin/bin/../../lib/gcc/pic32c/8.3.1/../../../../pic32c/lib/thumb/v6-m/nofp\libm-fast-emfloat.a(__aeabi_dcmpeq.o)
 .xc_stack_usage.hdr
                0x0000000000000000        0xe d:/mplab x ide/xc32_v4.60/bin/bin/../../lib/gcc/pic32c/8.3.1/../../../../pic32c/lib/thumb/v6-m/nofp\libm-fast-emfloat.a(__aeabi_dcmpeq.o)
 .xc_stack_usage
                0x0000000000000000       0x1c d:/mplab x ide/xc32_v4.60/bin/bin/../../lib/gcc/pic32c/8.3.1/../../../../pic32c/lib/thumb/v6-m/nofp\libm-fast-emfloat.a(__aeabi_dcmpeq.o)
 .ARM.attributes
                0x0000000000000000       0x1c d:/mplab x ide/xc32_v4.60/bin/bin/../../lib/gcc/pic32c/8.3.1/../../../../pic32c/lib/thumb/v6-m/nofp\libm-fast-emfloat.a(__aeabi_dcmpgt.o)
 .text.__aeabi_dcmpgt
                0x0000000000000000       0x3e d:/mplab x ide/xc32_v4.60/bin/bin/../../lib/gcc/pic32c/8.3.1/../../../../pic32c/lib/thumb/v6-m/nofp\libm-fast-emfloat.a(__aeabi_dcmpgt.o)
 .xc_stack_usage.hdr
                0x0000000000000000        0xe d:/mplab x ide/xc32_v4.60/bin/bin/../../lib/gcc/pic32c/8.3.1/../../../../pic32c/lib/thumb/v6-m/nofp\libm-fast-emfloat.a(__aeabi_dcmpgt.o)
 .xc_stack_usage
                0x0000000000000000       0x1c d:/mplab x ide/xc32_v4.60/bin/bin/../../lib/gcc/pic32c/8.3.1/../../../../pic32c/lib/thumb/v6-m/nofp\libm-fast-emfloat.a(__aeabi_dcmpgt.o)
 .ARM.attributes
                0x0000000000000000       0x1c d:/mplab x ide/xc32_v4.60/bin/bin/../../lib/gcc/pic32c/8.3.1/../../../../pic32c/lib/thumb/v6-m/nofp\libm-fast-emfloat.a(__aeabi_dcmplt.o)
 .text.__aeabi_dcmplt
                0x0000000000000000       0x3e d:/mplab x ide/xc32_v4.60/bin/bin/../../lib/gcc/pic32c/8.3.1/../../../../pic32c/lib/thumb/v6-m/nofp\libm-fast-emfloat.a(__aeabi_dcmplt.o)
 .xc_stack_usage.hdr
                0x0000000000000000        0xe d:/mplab x ide/xc32_v4.60/bin/bin/../../lib/gcc/pic32c/8.3.1/../../../../pic32c/lib/thumb/v6-m/nofp\libm-fast-emfloat.a(__aeabi_dcmplt.o)
 .xc_stack_usage
                0x0000000000000000       0x1c d:/mplab x ide/xc32_v4.60/bin/bin/../../lib/gcc/pic32c/8.3.1/../../../../pic32c/lib/thumb/v6-m/nofp\libm-fast-emfloat.a(__aeabi_dcmplt.o)
 .ARM.attributes
                0x0000000000000000       0x1c d:/mplab x ide/xc32_v4.60/bin/bin/../../lib/gcc/pic32c/8.3.1/../../../../pic32c/lib/thumb/v6-m/nofp\libm-fast-emfloat.a(__aeabi_d2iz.o)
 .text.__aeabi_d2iz
                0x0000000000000000       0x34 d:/mplab x ide/xc32_v4.60/bin/bin/../../lib/gcc/pic32c/8.3.1/../../../../pic32c/lib/thumb/v6-m/nofp\libm-fast-emfloat.a(__aeabi_d2iz.o)
 .xc_stack_usage.hdr
                0x0000000000000000        0xe d:/mplab x ide/xc32_v4.60/bin/bin/../../lib/gcc/pic32c/8.3.1/../../../../pic32c/lib/thumb/v6-m/nofp\libm-fast-emfloat.a(__aeabi_d2iz.o)
 .xc_stack_usage
                0x0000000000000000       0x1a d:/mplab x ide/xc32_v4.60/bin/bin/../../lib/gcc/pic32c/8.3.1/../../../../pic32c/lib/thumb/v6-m/nofp\libm-fast-emfloat.a(__aeabi_d2iz.o)
 .ARM.attributes
                0x0000000000000000       0x1c d:/mplab x ide/xc32_v4.60/bin/bin/../../lib/gcc/pic32c/8.3.1/../../../../pic32c/lib/thumb/v6-m/nofp\libm-fast-emfloat.a(__aeabi_d2uiz.o)
 .text.__aeabi_d2uiz
                0x0000000000000000       0x2e d:/mplab x ide/xc32_v4.60/bin/bin/../../lib/gcc/pic32c/8.3.1/../../../../pic32c/lib/thumb/v6-m/nofp\libm-fast-emfloat.a(__aeabi_d2uiz.o)
 .xc_stack_usage.hdr
                0x0000000000000000        0xe d:/mplab x ide/xc32_v4.60/bin/bin/../../lib/gcc/pic32c/8.3.1/../../../../pic32c/lib/thumb/v6-m/nofp\libm-fast-emfloat.a(__aeabi_d2uiz.o)
 .xc_stack_usage
                0x0000000000000000       0x43 d:/mplab x ide/xc32_v4.60/bin/bin/../../lib/gcc/pic32c/8.3.1/../../../../pic32c/lib/thumb/v6-m/nofp\libm-fast-emfloat.a(__aeabi_d2uiz.o)
 .text          0x0000000000000000       0x8c d:/mplab x ide/xc32_v4.60/bin/bin/../../lib/gcc/pic32c/8.3.1/thumb/v6-m/nofp\libgcc.a(_udivsi3.o)
 .data          0x0000000000000000        0x0 d:/mplab x ide/xc32_v4.60/bin/bin/../../lib/gcc/pic32c/8.3.1/thumb/v6-m/nofp\libgcc.a(_udivsi3.o)
 .bss           0x0000000000000000        0x0 d:/mplab x ide/xc32_v4.60/bin/bin/../../lib/gcc/pic32c/8.3.1/thumb/v6-m/nofp\libgcc.a(_udivsi3.o)
 .debug_frame   0x0000000000000000       0x20 d:/mplab x ide/xc32_v4.60/bin/bin/../../lib/gcc/pic32c/8.3.1/thumb/v6-m/nofp\libgcc.a(_udivsi3.o)
 .xc_stack_usage.hdr
                0x0000000000000000        0xe d:/mplab x ide/xc32_v4.60/bin/bin/../../lib/gcc/pic32c/8.3.1/thumb/v6-m/nofp\libgcc.a(_udivsi3.o)
 .xc_stack_usage
                0x0000000000000000       0x35 d:/mplab x ide/xc32_v4.60/bin/bin/../../lib/gcc/pic32c/8.3.1/thumb/v6-m/nofp\libgcc.a(_udivsi3.o)
 .debug_line    0x0000000000000000       0xa8 d:/mplab x ide/xc32_v4.60/bin/bin/../../lib/gcc/pic32c/8.3.1/thumb/v6-m/nofp\libgcc.a(_udivsi3.o)
 .debug_info    0x0000000000000000       0x26 d:/mplab x ide/xc32_v4.60/bin/bin/../../lib/gcc/pic32c/8.3.1/thumb/v6-m/nofp\libgcc.a(_udivsi3.o)
 .debug_abbrev  0x0000000000000000       0x14 d:/mplab x ide/xc32_v4.60/bin/bin/../../lib/gcc/pic32c/8.3.1/thumb/v6-m/nofp\libgcc.a(_udivsi3.o)
 .debug_aranges
                0x0000000000000000       0x20 d:/mplab x ide/xc32_v4.60/bin/bin/../../lib/gcc/pic32c/8.3.1/thumb/v6-m/nofp\libgcc.a(_udivsi3.o)
 .debug_str     0x0000000000000000       0xd6 d:/mplab x ide/xc32_v4.60/bin/bin/../../lib/gcc/pic32c/8.3.1/thumb/v6-m/nofp\libgcc.a(_udivsi3.o)
 .ARM.attributes
                0x0000000000000000       0x1e d:/mplab x ide/xc32_v4.60/bin/bin/../../lib/gcc/pic32c/8.3.1/thumb/v6-m/nofp\libgcc.a(_udivsi3.o)
 .text          0x0000000000000000       0xa8 d:/mplab x ide/xc32_v4.60/bin/bin/../../lib/gcc/pic32c/8.3.1/thumb/v6-m/nofp\libgcc.a(_divsi3.o)
 .data          0x0000000000000000        0x0 d:/mplab x ide/xc32_v4.60/bin/bin/../../lib/gcc/pic32c/8.3.1/thumb/v6-m/nofp\libgcc.a(_divsi3.o)
 .bss           0x0000000000000000        0x0 d:/mplab x ide/xc32_v4.60/bin/bin/../../lib/gcc/pic32c/8.3.1/thumb/v6-m/nofp\libgcc.a(_divsi3.o)
 .debug_frame   0x0000000000000000       0x20 d:/mplab x ide/xc32_v4.60/bin/bin/../../lib/gcc/pic32c/8.3.1/thumb/v6-m/nofp\libgcc.a(_divsi3.o)
 .xc_stack_usage.hdr
                0x0000000000000000        0xe d:/mplab x ide/xc32_v4.60/bin/bin/../../lib/gcc/pic32c/8.3.1/thumb/v6-m/nofp\libgcc.a(_divsi3.o)
 .xc_stack_usage
                0x0000000000000000       0x33 d:/mplab x ide/xc32_v4.60/bin/bin/../../lib/gcc/pic32c/8.3.1/thumb/v6-m/nofp\libgcc.a(_divsi3.o)
 .debug_line    0x0000000000000000       0xb6 d:/mplab x ide/xc32_v4.60/bin/bin/../../lib/gcc/pic32c/8.3.1/thumb/v6-m/nofp\libgcc.a(_divsi3.o)
 .debug_info    0x0000000000000000       0x26 d:/mplab x ide/xc32_v4.60/bin/bin/../../lib/gcc/pic32c/8.3.1/thumb/v6-m/nofp\libgcc.a(_divsi3.o)
 .debug_abbrev  0x0000000000000000       0x14 d:/mplab x ide/xc32_v4.60/bin/bin/../../lib/gcc/pic32c/8.3.1/thumb/v6-m/nofp\libgcc.a(_divsi3.o)
 .debug_aranges
                0x0000000000000000       0x20 d:/mplab x ide/xc32_v4.60/bin/bin/../../lib/gcc/pic32c/8.3.1/thumb/v6-m/nofp\libgcc.a(_divsi3.o)
 .debug_str     0x0000000000000000       0xd6 d:/mplab x ide/xc32_v4.60/bin/bin/../../lib/gcc/pic32c/8.3.1/thumb/v6-m/nofp\libgcc.a(_divsi3.o)
 .ARM.attributes
                0x0000000000000000       0x1e d:/mplab x ide/xc32_v4.60/bin/bin/../../lib/gcc/pic32c/8.3.1/thumb/v6-m/nofp\libgcc.a(_divsi3.o)
 .text          0x0000000000000000        0x4 d:/mplab x ide/xc32_v4.60/bin/bin/../../lib/gcc/pic32c/8.3.1/thumb/v6-m/nofp\libgcc.a(_dvmd_tls.o)
 .data          0x0000000000000000        0x0 d:/mplab x ide/xc32_v4.60/bin/bin/../../lib/gcc/pic32c/8.3.1/thumb/v6-m/nofp\libgcc.a(_dvmd_tls.o)
 .bss           0x0000000000000000        0x0 d:/mplab x ide/xc32_v4.60/bin/bin/../../lib/gcc/pic32c/8.3.1/thumb/v6-m/nofp\libgcc.a(_dvmd_tls.o)
 .xc_stack_usage.hdr
                0x0000000000000000        0xe d:/mplab x ide/xc32_v4.60/bin/bin/../../lib/gcc/pic32c/8.3.1/thumb/v6-m/nofp\libgcc.a(_dvmd_tls.o)
 .xc_stack_usage
                0x0000000000000000       0x36 d:/mplab x ide/xc32_v4.60/bin/bin/../../lib/gcc/pic32c/8.3.1/thumb/v6-m/nofp\libgcc.a(_dvmd_tls.o)
 .debug_line    0x0000000000000000       0x91 d:/mplab x ide/xc32_v4.60/bin/bin/../../lib/gcc/pic32c/8.3.1/thumb/v6-m/nofp\libgcc.a(_dvmd_tls.o)
 .debug_info    0x0000000000000000       0x26 d:/mplab x ide/xc32_v4.60/bin/bin/../../lib/gcc/pic32c/8.3.1/thumb/v6-m/nofp\libgcc.a(_dvmd_tls.o)
 .debug_abbrev  0x0000000000000000       0x14 d:/mplab x ide/xc32_v4.60/bin/bin/../../lib/gcc/pic32c/8.3.1/thumb/v6-m/nofp\libgcc.a(_dvmd_tls.o)
 .debug_aranges
                0x0000000000000000       0x20 d:/mplab x ide/xc32_v4.60/bin/bin/../../lib/gcc/pic32c/8.3.1/thumb/v6-m/nofp\libgcc.a(_dvmd_tls.o)
 .debug_str     0x0000000000000000       0xd6 d:/mplab x ide/xc32_v4.60/bin/bin/../../lib/gcc/pic32c/8.3.1/thumb/v6-m/nofp\libgcc.a(_dvmd_tls.o)
 .ARM.attributes
                0x0000000000000000       0x1e d:/mplab x ide/xc32_v4.60/bin/bin/../../lib/gcc/pic32c/8.3.1/thumb/v6-m/nofp\libgcc.a(_dvmd_tls.o)
 .text          0x0000000000000000       0x48 d:/mplab x ide/xc32_v4.60/bin/bin/../../lib/gcc/pic32c/8.3.1/thumb/v6-m/nofp\libgcc.a(_aeabi_ldivmod.o)
 .data          0x0000000000000000        0x0 d:/mplab x ide/xc32_v4.60/bin/bin/../../lib/gcc/pic32c/8.3.1/thumb/v6-m/nofp\libgcc.a(_aeabi_ldivmod.o)
 .bss           0x0000000000000000        0x0 d:/mplab x ide/xc32_v4.60/bin/bin/../../lib/gcc/pic32c/8.3.1/thumb/v6-m/nofp\libgcc.a(_aeabi_ldivmod.o)
 .xc_stack_usage.hdr
                0x0000000000000000        0xe d:/mplab x ide/xc32_v4.60/bin/bin/../../lib/gcc/pic32c/8.3.1/thumb/v6-m/nofp\libgcc.a(_aeabi_ldivmod.o)
 .xc_stack_usage
                0x0000000000000000       0x1d d:/mplab x ide/xc32_v4.60/bin/bin/../../lib/gcc/pic32c/8.3.1/thumb/v6-m/nofp\libgcc.a(_aeabi_ldivmod.o)
 .debug_line    0x0000000000000000       0x9c d:/mplab x ide/xc32_v4.60/bin/bin/../../lib/gcc/pic32c/8.3.1/thumb/v6-m/nofp\libgcc.a(_aeabi_ldivmod.o)
 .debug_info    0x0000000000000000       0x26 d:/mplab x ide/xc32_v4.60/bin/bin/../../lib/gcc/pic32c/8.3.1/thumb/v6-m/nofp\libgcc.a(_aeabi_ldivmod.o)
 .debug_abbrev  0x0000000000000000       0x14 d:/mplab x ide/xc32_v4.60/bin/bin/../../lib/gcc/pic32c/8.3.1/thumb/v6-m/nofp\libgcc.a(_aeabi_ldivmod.o)
 .debug_aranges
                0x0000000000000000       0x20 d:/mplab x ide/xc32_v4.60/bin/bin/../../lib/gcc/pic32c/8.3.1/thumb/v6-m/nofp\libgcc.a(_aeabi_ldivmod.o)
 .debug_str     0x0000000000000000       0xd6 d:/mplab x ide/xc32_v4.60/bin/bin/../../lib/gcc/pic32c/8.3.1/thumb/v6-m/nofp\libgcc.a(_aeabi_ldivmod.o)
 .ARM.attributes
                0x0000000000000000       0x1e d:/mplab x ide/xc32_v4.60/bin/bin/../../lib/gcc/pic32c/8.3.1/thumb/v6-m/nofp\libgcc.a(_aeabi_ldivmod.o)
 .text          0x0000000000000000       0x40 d:/mplab x ide/xc32_v4.60/bin/bin/../../lib/gcc/pic32c/8.3.1/thumb/v6-m/nofp\libgcc.a(_aeabi_uldivmod.o)
 .data          0x0000000000000000        0x0 d:/mplab x ide/xc32_v4.60/bin/bin/../../lib/gcc/pic32c/8.3.1/thumb/v6-m/nofp\libgcc.a(_aeabi_uldivmod.o)
 .bss           0x0000000000000000        0x0 d:/mplab x ide/xc32_v4.60/bin/bin/../../lib/gcc/pic32c/8.3.1/thumb/v6-m/nofp\libgcc.a(_aeabi_uldivmod.o)
 .xc_stack_usage.hdr
                0x0000000000000000        0xe d:/mplab x ide/xc32_v4.60/bin/bin/../../lib/gcc/pic32c/8.3.1/thumb/v6-m/nofp\libgcc.a(_aeabi_uldivmod.o)
 .xc_stack_usage
                0x0000000000000000       0x1e d:/mplab x ide/xc32_v4.60/bin/bin/../../lib/gcc/pic32c/8.3.1/thumb/v6-m/nofp\libgcc.a(_aeabi_uldivmod.o)
 .debug_line    0x0000000000000000       0x9c d:/mplab x ide/xc32_v4.60/bin/bin/../../lib/gcc/pic32c/8.3.1/thumb/v6-m/nofp\libgcc.a(_aeabi_uldivmod.o)
 .debug_info    0x0000000000000000       0x26 d:/mplab x ide/xc32_v4.60/bin/bin/../../lib/gcc/pic32c/8.3.1/thumb/v6-m/nofp\libgcc.a(_aeabi_uldivmod.o)
 .debug_abbrev  0x0000000000000000       0x14 d:/mplab x ide/xc32_v4.60/bin/bin/../../lib/gcc/pic32c/8.3.1/thumb/v6-m/nofp\libgcc.a(_aeabi_uldivmod.o)
 .debug_aranges
                0x0000000000000000       0x20 d:/mplab x ide/xc32_v4.60/bin/bin/../../lib/gcc/pic32c/8.3.1/thumb/v6-m/nofp\libgcc.a(_aeabi_uldivmod.o)
 .debug_str     0x0000000000000000       0xd6 d:/mplab x ide/xc32_v4.60/bin/bin/../../lib/gcc/pic32c/8.3.1/thumb/v6-m/nofp\libgcc.a(_aeabi_uldivmod.o)
 .ARM.attributes
                0x0000000000000000       0x1e d:/mplab x ide/xc32_v4.60/bin/bin/../../lib/gcc/pic32c/8.3.1/thumb/v6-m/nofp\libgcc.a(_aeabi_uldivmod.o)
 .text          0x0000000000000000       0x44 d:/mplab x ide/xc32_v4.60/bin/bin/../../lib/gcc/pic32c/8.3.1/thumb/v6-m/nofp\libgcc.a(_muldi3.o)
 .data          0x0000000000000000        0x0 d:/mplab x ide/xc32_v4.60/bin/bin/../../lib/gcc/pic32c/8.3.1/thumb/v6-m/nofp\libgcc.a(_muldi3.o)
 .bss           0x0000000000000000        0x0 d:/mplab x ide/xc32_v4.60/bin/bin/../../lib/gcc/pic32c/8.3.1/thumb/v6-m/nofp\libgcc.a(_muldi3.o)
 .xc_stack_usage
                0x0000000000000000       0x16 d:/mplab x ide/xc32_v4.60/bin/bin/../../lib/gcc/pic32c/8.3.1/thumb/v6-m/nofp\libgcc.a(_muldi3.o)
 .xc_stack_usage.hdr
                0x0000000000000000        0xe d:/mplab x ide/xc32_v4.60/bin/bin/../../lib/gcc/pic32c/8.3.1/thumb/v6-m/nofp\libgcc.a(_muldi3.o)
 .debug_info    0x0000000000000000      0x243 d:/mplab x ide/xc32_v4.60/bin/bin/../../lib/gcc/pic32c/8.3.1/thumb/v6-m/nofp\libgcc.a(_muldi3.o)
 .debug_abbrev  0x0000000000000000      0x10b d:/mplab x ide/xc32_v4.60/bin/bin/../../lib/gcc/pic32c/8.3.1/thumb/v6-m/nofp\libgcc.a(_muldi3.o)
 .debug_loc     0x0000000000000000      0x176 d:/mplab x ide/xc32_v4.60/bin/bin/../../lib/gcc/pic32c/8.3.1/thumb/v6-m/nofp\libgcc.a(_muldi3.o)
 .debug_aranges
                0x0000000000000000       0x20 d:/mplab x ide/xc32_v4.60/bin/bin/../../lib/gcc/pic32c/8.3.1/thumb/v6-m/nofp\libgcc.a(_muldi3.o)
 .debug_ranges  0x0000000000000000       0x28 d:/mplab x ide/xc32_v4.60/bin/bin/../../lib/gcc/pic32c/8.3.1/thumb/v6-m/nofp\libgcc.a(_muldi3.o)
 .debug_line    0x0000000000000000       0xe7 d:/mplab x ide/xc32_v4.60/bin/bin/../../lib/gcc/pic32c/8.3.1/thumb/v6-m/nofp\libgcc.a(_muldi3.o)
 .debug_str     0x0000000000000000      0x2af d:/mplab x ide/xc32_v4.60/bin/bin/../../lib/gcc/pic32c/8.3.1/thumb/v6-m/nofp\libgcc.a(_muldi3.o)
 .comment       0x0000000000000000       0x2c d:/mplab x ide/xc32_v4.60/bin/bin/../../lib/gcc/pic32c/8.3.1/thumb/v6-m/nofp\libgcc.a(_muldi3.o)
 .debug_frame   0x0000000000000000       0x34 d:/mplab x ide/xc32_v4.60/bin/bin/../../lib/gcc/pic32c/8.3.1/thumb/v6-m/nofp\libgcc.a(_muldi3.o)
 .ARM.attributes
                0x0000000000000000       0x2c d:/mplab x ide/xc32_v4.60/bin/bin/../../lib/gcc/pic32c/8.3.1/thumb/v6-m/nofp\libgcc.a(_muldi3.o)
 .text          0x0000000000000000       0xe2 d:/mplab x ide/xc32_v4.60/bin/bin/../../lib/gcc/pic32c/8.3.1/thumb/v6-m/nofp\libgcc.a(_udivmoddi4.o)
 .data          0x0000000000000000        0x0 d:/mplab x ide/xc32_v4.60/bin/bin/../../lib/gcc/pic32c/8.3.1/thumb/v6-m/nofp\libgcc.a(_udivmoddi4.o)
 .bss           0x0000000000000000        0x0 d:/mplab x ide/xc32_v4.60/bin/bin/../../lib/gcc/pic32c/8.3.1/thumb/v6-m/nofp\libgcc.a(_udivmoddi4.o)
 .xc_stack_usage
                0x0000000000000000       0x1a d:/mplab x ide/xc32_v4.60/bin/bin/../../lib/gcc/pic32c/8.3.1/thumb/v6-m/nofp\libgcc.a(_udivmoddi4.o)
 .ARM.extab     0x0000000000000000        0x0 d:/mplab x ide/xc32_v4.60/bin/bin/../../lib/gcc/pic32c/8.3.1/thumb/v6-m/nofp\libgcc.a(_udivmoddi4.o)
 .ARM.exidx     0x0000000000000000        0x8 d:/mplab x ide/xc32_v4.60/bin/bin/../../lib/gcc/pic32c/8.3.1/thumb/v6-m/nofp\libgcc.a(_udivmoddi4.o)
 .xc_stack_usage.hdr
                0x0000000000000000        0xe d:/mplab x ide/xc32_v4.60/bin/bin/../../lib/gcc/pic32c/8.3.1/thumb/v6-m/nofp\libgcc.a(_udivmoddi4.o)
 .debug_info    0x0000000000000000      0x193 d:/mplab x ide/xc32_v4.60/bin/bin/../../lib/gcc/pic32c/8.3.1/thumb/v6-m/nofp\libgcc.a(_udivmoddi4.o)
 .debug_abbrev  0x0000000000000000       0x99 d:/mplab x ide/xc32_v4.60/bin/bin/../../lib/gcc/pic32c/8.3.1/thumb/v6-m/nofp\libgcc.a(_udivmoddi4.o)
 .debug_loc     0x0000000000000000      0x2e4 d:/mplab x ide/xc32_v4.60/bin/bin/../../lib/gcc/pic32c/8.3.1/thumb/v6-m/nofp\libgcc.a(_udivmoddi4.o)
 .debug_aranges
                0x0000000000000000       0x20 d:/mplab x ide/xc32_v4.60/bin/bin/../../lib/gcc/pic32c/8.3.1/thumb/v6-m/nofp\libgcc.a(_udivmoddi4.o)
 .debug_line    0x0000000000000000      0x188 d:/mplab x ide/xc32_v4.60/bin/bin/../../lib/gcc/pic32c/8.3.1/thumb/v6-m/nofp\libgcc.a(_udivmoddi4.o)
 .debug_str     0x0000000000000000      0x27c d:/mplab x ide/xc32_v4.60/bin/bin/../../lib/gcc/pic32c/8.3.1/thumb/v6-m/nofp\libgcc.a(_udivmoddi4.o)
 .comment       0x0000000000000000       0x2c d:/mplab x ide/xc32_v4.60/bin/bin/../../lib/gcc/pic32c/8.3.1/thumb/v6-m/nofp\libgcc.a(_udivmoddi4.o)
 .debug_frame   0x0000000000000000       0x30 d:/mplab x ide/xc32_v4.60/bin/bin/../../lib/gcc/pic32c/8.3.1/thumb/v6-m/nofp\libgcc.a(_udivmoddi4.o)
 .ARM.attributes
                0x0000000000000000       0x2c d:/mplab x ide/xc32_v4.60/bin/bin/../../lib/gcc/pic32c/8.3.1/thumb/v6-m/nofp\libgcc.a(_udivmoddi4.o)
 .text          0x0000000000000000       0x34 d:/mplab x ide/xc32_v4.60/bin/bin/../../lib/gcc/pic32c/8.3.1/thumb/v6-m/nofp\libgcc.a(bpabi.o)
 .data          0x0000000000000000        0x0 d:/mplab x ide/xc32_v4.60/bin/bin/../../lib/gcc/pic32c/8.3.1/thumb/v6-m/nofp\libgcc.a(bpabi.o)
 .bss           0x0000000000000000        0x0 d:/mplab x ide/xc32_v4.60/bin/bin/../../lib/gcc/pic32c/8.3.1/thumb/v6-m/nofp\libgcc.a(bpabi.o)
 .xc_stack_usage
                0x0000000000000000       0x22 d:/mplab x ide/xc32_v4.60/bin/bin/../../lib/gcc/pic32c/8.3.1/thumb/v6-m/nofp\libgcc.a(bpabi.o)
 .xc_stack_usage.hdr
                0x0000000000000000        0xe d:/mplab x ide/xc32_v4.60/bin/bin/../../lib/gcc/pic32c/8.3.1/thumb/v6-m/nofp\libgcc.a(bpabi.o)
 .debug_info    0x0000000000000000       0xd5 d:/mplab x ide/xc32_v4.60/bin/bin/../../lib/gcc/pic32c/8.3.1/thumb/v6-m/nofp\libgcc.a(bpabi.o)
 .debug_abbrev  0x0000000000000000       0xaa d:/mplab x ide/xc32_v4.60/bin/bin/../../lib/gcc/pic32c/8.3.1/thumb/v6-m/nofp\libgcc.a(bpabi.o)
 .debug_loc     0x0000000000000000       0x9c d:/mplab x ide/xc32_v4.60/bin/bin/../../lib/gcc/pic32c/8.3.1/thumb/v6-m/nofp\libgcc.a(bpabi.o)
 .debug_aranges
                0x0000000000000000       0x20 d:/mplab x ide/xc32_v4.60/bin/bin/../../lib/gcc/pic32c/8.3.1/thumb/v6-m/nofp\libgcc.a(bpabi.o)
 .debug_line    0x0000000000000000       0xb9 d:/mplab x ide/xc32_v4.60/bin/bin/../../lib/gcc/pic32c/8.3.1/thumb/v6-m/nofp\libgcc.a(bpabi.o)
 .debug_str     0x0000000000000000      0x1f2 d:/mplab x ide/xc32_v4.60/bin/bin/../../lib/gcc/pic32c/8.3.1/thumb/v6-m/nofp\libgcc.a(bpabi.o)
 .comment       0x0000000000000000       0x2c d:/mplab x ide/xc32_v4.60/bin/bin/../../lib/gcc/pic32c/8.3.1/thumb/v6-m/nofp\libgcc.a(bpabi.o)
 .debug_frame   0x0000000000000000       0x34 d:/mplab x ide/xc32_v4.60/bin/bin/../../lib/gcc/pic32c/8.3.1/thumb/v6-m/nofp\libgcc.a(bpabi.o)
 .ARM.attributes
                0x0000000000000000       0x2c d:/mplab x ide/xc32_v4.60/bin/bin/../../lib/gcc/pic32c/8.3.1/thumb/v6-m/nofp\libgcc.a(bpabi.o)
 .text          0x0000000000000000       0x18 d:/mplab x ide/xc32_v4.60/bin/bin/../../lib/gcc/pic32c/8.3.1/thumb/v6-m/nofp\libgcc.a(_lshrdi3.o)
 .data          0x0000000000000000        0x0 d:/mplab x ide/xc32_v4.60/bin/bin/../../lib/gcc/pic32c/8.3.1/thumb/v6-m/nofp\libgcc.a(_lshrdi3.o)
 .bss           0x0000000000000000        0x0 d:/mplab x ide/xc32_v4.60/bin/bin/../../lib/gcc/pic32c/8.3.1/thumb/v6-m/nofp\libgcc.a(_lshrdi3.o)
 .xc_stack_usage.hdr
                0x0000000000000000        0xe d:/mplab x ide/xc32_v4.60/bin/bin/../../lib/gcc/pic32c/8.3.1/thumb/v6-m/nofp\libgcc.a(_lshrdi3.o)
 .xc_stack_usage
                0x0000000000000000       0x17 d:/mplab x ide/xc32_v4.60/bin/bin/../../lib/gcc/pic32c/8.3.1/thumb/v6-m/nofp\libgcc.a(_lshrdi3.o)
 .debug_line    0x0000000000000000       0x9c d:/mplab x ide/xc32_v4.60/bin/bin/../../lib/gcc/pic32c/8.3.1/thumb/v6-m/nofp\libgcc.a(_lshrdi3.o)
 .debug_info    0x0000000000000000       0x26 d:/mplab x ide/xc32_v4.60/bin/bin/../../lib/gcc/pic32c/8.3.1/thumb/v6-m/nofp\libgcc.a(_lshrdi3.o)
 .debug_abbrev  0x0000000000000000       0x14 d:/mplab x ide/xc32_v4.60/bin/bin/../../lib/gcc/pic32c/8.3.1/thumb/v6-m/nofp\libgcc.a(_lshrdi3.o)
 .debug_aranges
                0x0000000000000000       0x20 d:/mplab x ide/xc32_v4.60/bin/bin/../../lib/gcc/pic32c/8.3.1/thumb/v6-m/nofp\libgcc.a(_lshrdi3.o)
 .debug_str     0x0000000000000000       0xd6 d:/mplab x ide/xc32_v4.60/bin/bin/../../lib/gcc/pic32c/8.3.1/thumb/v6-m/nofp\libgcc.a(_lshrdi3.o)
 .ARM.attributes
                0x0000000000000000       0x1e d:/mplab x ide/xc32_v4.60/bin/bin/../../lib/gcc/pic32c/8.3.1/thumb/v6-m/nofp\libgcc.a(_lshrdi3.o)
 .text          0x0000000000000000       0x18 d:/mplab x ide/xc32_v4.60/bin/bin/../../lib/gcc/pic32c/8.3.1/thumb/v6-m/nofp\libgcc.a(_ashldi3.o)
 .data          0x0000000000000000        0x0 d:/mplab x ide/xc32_v4.60/bin/bin/../../lib/gcc/pic32c/8.3.1/thumb/v6-m/nofp\libgcc.a(_ashldi3.o)
 .bss           0x0000000000000000        0x0 d:/mplab x ide/xc32_v4.60/bin/bin/../../lib/gcc/pic32c/8.3.1/thumb/v6-m/nofp\libgcc.a(_ashldi3.o)
 .xc_stack_usage.hdr
                0x0000000000000000        0xe d:/mplab x ide/xc32_v4.60/bin/bin/../../lib/gcc/pic32c/8.3.1/thumb/v6-m/nofp\libgcc.a(_ashldi3.o)
 .xc_stack_usage
                0x0000000000000000       0x17 d:/mplab x ide/xc32_v4.60/bin/bin/../../lib/gcc/pic32c/8.3.1/thumb/v6-m/nofp\libgcc.a(_ashldi3.o)
 .debug_line    0x0000000000000000       0x9c d:/mplab x ide/xc32_v4.60/bin/bin/../../lib/gcc/pic32c/8.3.1/thumb/v6-m/nofp\libgcc.a(_ashldi3.o)
 .debug_info    0x0000000000000000       0x26 d:/mplab x ide/xc32_v4.60/bin/bin/../../lib/gcc/pic32c/8.3.1/thumb/v6-m/nofp\libgcc.a(_ashldi3.o)
 .debug_abbrev  0x0000000000000000       0x14 d:/mplab x ide/xc32_v4.60/bin/bin/../../lib/gcc/pic32c/8.3.1/thumb/v6-m/nofp\libgcc.a(_ashldi3.o)
 .debug_aranges
                0x0000000000000000       0x20 d:/mplab x ide/xc32_v4.60/bin/bin/../../lib/gcc/pic32c/8.3.1/thumb/v6-m/nofp\libgcc.a(_ashldi3.o)
 .debug_str     0x0000000000000000       0xd6 d:/mplab x ide/xc32_v4.60/bin/bin/../../lib/gcc/pic32c/8.3.1/thumb/v6-m/nofp\libgcc.a(_ashldi3.o)
 .ARM.attributes
                0x0000000000000000       0x1e d:/mplab x ide/xc32_v4.60/bin/bin/../../lib/gcc/pic32c/8.3.1/thumb/v6-m/nofp\libgcc.a(_ashldi3.o)
 .text          0x0000000000000000       0x18 d:/mplab x ide/xc32_v4.60/bin/bin/../../lib/gcc/pic32c/8.3.1/thumb/v6-m/nofp\libgcc.a(_clzdi2.o)
 .data          0x0000000000000000        0x0 d:/mplab x ide/xc32_v4.60/bin/bin/../../lib/gcc/pic32c/8.3.1/thumb/v6-m/nofp\libgcc.a(_clzdi2.o)
 .bss           0x0000000000000000        0x0 d:/mplab x ide/xc32_v4.60/bin/bin/../../lib/gcc/pic32c/8.3.1/thumb/v6-m/nofp\libgcc.a(_clzdi2.o)
 .xc_stack_usage.hdr
                0x0000000000000000        0xe d:/mplab x ide/xc32_v4.60/bin/bin/../../lib/gcc/pic32c/8.3.1/thumb/v6-m/nofp\libgcc.a(_clzdi2.o)
 .xc_stack_usage
                0x0000000000000000       0x16 d:/mplab x ide/xc32_v4.60/bin/bin/../../lib/gcc/pic32c/8.3.1/thumb/v6-m/nofp\libgcc.a(_clzdi2.o)
 .debug_line    0x0000000000000000       0x9b d:/mplab x ide/xc32_v4.60/bin/bin/../../lib/gcc/pic32c/8.3.1/thumb/v6-m/nofp\libgcc.a(_clzdi2.o)
 .debug_info    0x0000000000000000       0x26 d:/mplab x ide/xc32_v4.60/bin/bin/../../lib/gcc/pic32c/8.3.1/thumb/v6-m/nofp\libgcc.a(_clzdi2.o)
 .debug_abbrev  0x0000000000000000       0x14 d:/mplab x ide/xc32_v4.60/bin/bin/../../lib/gcc/pic32c/8.3.1/thumb/v6-m/nofp\libgcc.a(_clzdi2.o)
 .debug_aranges
                0x0000000000000000       0x20 d:/mplab x ide/xc32_v4.60/bin/bin/../../lib/gcc/pic32c/8.3.1/thumb/v6-m/nofp\libgcc.a(_clzdi2.o)
 .debug_str     0x0000000000000000       0xd6 d:/mplab x ide/xc32_v4.60/bin/bin/../../lib/gcc/pic32c/8.3.1/thumb/v6-m/nofp\libgcc.a(_clzdi2.o)
 .ARM.attributes
                0x0000000000000000       0x1e d:/mplab x ide/xc32_v4.60/bin/bin/../../lib/gcc/pic32c/8.3.1/thumb/v6-m/nofp\libgcc.a(_clzdi2.o)
 .text          0x0000000000000000      0x130 d:/mplab x ide/xc32_v4.60/bin/bin/../../lib/gcc/pic32c/8.3.1/thumb/v6-m/nofp\libgcc.a(_divdi3.o)
 .data          0x0000000000000000        0x0 d:/mplab x ide/xc32_v4.60/bin/bin/../../lib/gcc/pic32c/8.3.1/thumb/v6-m/nofp\libgcc.a(_divdi3.o)
 .bss           0x0000000000000000        0x0 d:/mplab x ide/xc32_v4.60/bin/bin/../../lib/gcc/pic32c/8.3.1/thumb/v6-m/nofp\libgcc.a(_divdi3.o)
 .xc_stack_usage
                0x0000000000000000       0x16 d:/mplab x ide/xc32_v4.60/bin/bin/../../lib/gcc/pic32c/8.3.1/thumb/v6-m/nofp\libgcc.a(_divdi3.o)
 .ARM.extab     0x0000000000000000        0x0 d:/mplab x ide/xc32_v4.60/bin/bin/../../lib/gcc/pic32c/8.3.1/thumb/v6-m/nofp\libgcc.a(_divdi3.o)
 .ARM.exidx     0x0000000000000000        0x8 d:/mplab x ide/xc32_v4.60/bin/bin/../../lib/gcc/pic32c/8.3.1/thumb/v6-m/nofp\libgcc.a(_divdi3.o)
 .xc_stack_usage.hdr
                0x0000000000000000        0xe d:/mplab x ide/xc32_v4.60/bin/bin/../../lib/gcc/pic32c/8.3.1/thumb/v6-m/nofp\libgcc.a(_divdi3.o)
 .debug_info    0x0000000000000000      0x2e1 d:/mplab x ide/xc32_v4.60/bin/bin/../../lib/gcc/pic32c/8.3.1/thumb/v6-m/nofp\libgcc.a(_divdi3.o)
 .debug_abbrev  0x0000000000000000      0x14e d:/mplab x ide/xc32_v4.60/bin/bin/../../lib/gcc/pic32c/8.3.1/thumb/v6-m/nofp\libgcc.a(_divdi3.o)
 .debug_loc     0x0000000000000000      0x4b0 d:/mplab x ide/xc32_v4.60/bin/bin/../../lib/gcc/pic32c/8.3.1/thumb/v6-m/nofp\libgcc.a(_divdi3.o)
 .debug_aranges
                0x0000000000000000       0x20 d:/mplab x ide/xc32_v4.60/bin/bin/../../lib/gcc/pic32c/8.3.1/thumb/v6-m/nofp\libgcc.a(_divdi3.o)
 .debug_ranges  0x0000000000000000       0x20 d:/mplab x ide/xc32_v4.60/bin/bin/../../lib/gcc/pic32c/8.3.1/thumb/v6-m/nofp\libgcc.a(_divdi3.o)
 .debug_line    0x0000000000000000      0x1d9 d:/mplab x ide/xc32_v4.60/bin/bin/../../lib/gcc/pic32c/8.3.1/thumb/v6-m/nofp\libgcc.a(_divdi3.o)
 .debug_str     0x0000000000000000      0x2a9 d:/mplab x ide/xc32_v4.60/bin/bin/../../lib/gcc/pic32c/8.3.1/thumb/v6-m/nofp\libgcc.a(_divdi3.o)
 .comment       0x0000000000000000       0x2c d:/mplab x ide/xc32_v4.60/bin/bin/../../lib/gcc/pic32c/8.3.1/thumb/v6-m/nofp\libgcc.a(_divdi3.o)
 .debug_frame   0x0000000000000000       0x30 d:/mplab x ide/xc32_v4.60/bin/bin/../../lib/gcc/pic32c/8.3.1/thumb/v6-m/nofp\libgcc.a(_divdi3.o)
 .ARM.attributes
                0x0000000000000000       0x2c d:/mplab x ide/xc32_v4.60/bin/bin/../../lib/gcc/pic32c/8.3.1/thumb/v6-m/nofp\libgcc.a(_divdi3.o)
 .text          0x0000000000000000       0x3c d:/mplab x ide/xc32_v4.60/bin/bin/../../lib/gcc/pic32c/8.3.1/thumb/v6-m/nofp\libgcc.a(_clzsi2.o)
 .data          0x0000000000000000        0x0 d:/mplab x ide/xc32_v4.60/bin/bin/../../lib/gcc/pic32c/8.3.1/thumb/v6-m/nofp\libgcc.a(_clzsi2.o)
 .bss           0x0000000000000000        0x0 d:/mplab x ide/xc32_v4.60/bin/bin/../../lib/gcc/pic32c/8.3.1/thumb/v6-m/nofp\libgcc.a(_clzsi2.o)
 .xc_stack_usage.hdr
                0x0000000000000000        0xe d:/mplab x ide/xc32_v4.60/bin/bin/../../lib/gcc/pic32c/8.3.1/thumb/v6-m/nofp\libgcc.a(_clzsi2.o)
 .xc_stack_usage
                0x0000000000000000       0x16 d:/mplab x ide/xc32_v4.60/bin/bin/../../lib/gcc/pic32c/8.3.1/thumb/v6-m/nofp\libgcc.a(_clzsi2.o)
 .debug_line    0x0000000000000000       0xa5 d:/mplab x ide/xc32_v4.60/bin/bin/../../lib/gcc/pic32c/8.3.1/thumb/v6-m/nofp\libgcc.a(_clzsi2.o)
 .debug_info    0x0000000000000000       0x26 d:/mplab x ide/xc32_v4.60/bin/bin/../../lib/gcc/pic32c/8.3.1/thumb/v6-m/nofp\libgcc.a(_clzsi2.o)
 .debug_abbrev  0x0000000000000000       0x14 d:/mplab x ide/xc32_v4.60/bin/bin/../../lib/gcc/pic32c/8.3.1/thumb/v6-m/nofp\libgcc.a(_clzsi2.o)
 .debug_aranges
                0x0000000000000000       0x20 d:/mplab x ide/xc32_v4.60/bin/bin/../../lib/gcc/pic32c/8.3.1/thumb/v6-m/nofp\libgcc.a(_clzsi2.o)
 .debug_str     0x0000000000000000       0xd6 d:/mplab x ide/xc32_v4.60/bin/bin/../../lib/gcc/pic32c/8.3.1/thumb/v6-m/nofp\libgcc.a(_clzsi2.o)
 .ARM.attributes
                0x0000000000000000       0x1e d:/mplab x ide/xc32_v4.60/bin/bin/../../lib/gcc/pic32c/8.3.1/thumb/v6-m/nofp\libgcc.a(_clzsi2.o)
 .text          0x0000000000000000        0x0 d:/mplab x ide/xc32_v4.60/bin/bin/../../lib/gcc/pic32c/8.3.1/../../../../pic32c/lib/thumb/v6-m/nofp\libc-size-musl.a(strcpy.o)
 .data          0x0000000000000000        0x0 d:/mplab x ide/xc32_v4.60/bin/bin/../../lib/gcc/pic32c/8.3.1/../../../../pic32c/lib/thumb/v6-m/nofp\libc-size-musl.a(strcpy.o)
 .bss           0x0000000000000000        0x0 d:/mplab x ide/xc32_v4.60/bin/bin/../../lib/gcc/pic32c/8.3.1/../../../../pic32c/lib/thumb/v6-m/nofp\libc-size-musl.a(strcpy.o)
 .xc_stack_usage
                0x0000000000000000       0x14 d:/mplab x ide/xc32_v4.60/bin/bin/../../lib/gcc/pic32c/8.3.1/../../../../pic32c/lib/thumb/v6-m/nofp\libc-size-musl.a(strcpy.o)
 .text.strcpy   0x0000000000000000        0xc d:/mplab x ide/xc32_v4.60/bin/bin/../../lib/gcc/pic32c/8.3.1/../../../../pic32c/lib/thumb/v6-m/nofp\libc-size-musl.a(strcpy.o)
 .xc_stack_usage.hdr
                0x0000000000000000        0xe d:/mplab x ide/xc32_v4.60/bin/bin/../../lib/gcc/pic32c/8.3.1/../../../../pic32c/lib/thumb/v6-m/nofp\libc-size-musl.a(strcpy.o)
 .debug_info    0x0000000000000000       0xbd d:/mplab x ide/xc32_v4.60/bin/bin/../../lib/gcc/pic32c/8.3.1/../../../../pic32c/lib/thumb/v6-m/nofp\libc-size-musl.a(strcpy.o)
 .debug_abbrev  0x0000000000000000       0xa2 d:/mplab x ide/xc32_v4.60/bin/bin/../../lib/gcc/pic32c/8.3.1/../../../../pic32c/lib/thumb/v6-m/nofp\libc-size-musl.a(strcpy.o)
 .debug_loc     0x0000000000000000       0x74 d:/mplab x ide/xc32_v4.60/bin/bin/../../lib/gcc/pic32c/8.3.1/../../../../pic32c/lib/thumb/v6-m/nofp\libc-size-musl.a(strcpy.o)
 .debug_aranges
                0x0000000000000000       0x20 d:/mplab x ide/xc32_v4.60/bin/bin/../../lib/gcc/pic32c/8.3.1/../../../../pic32c/lib/thumb/v6-m/nofp\libc-size-musl.a(strcpy.o)
 .debug_ranges  0x0000000000000000       0x10 d:/mplab x ide/xc32_v4.60/bin/bin/../../lib/gcc/pic32c/8.3.1/../../../../pic32c/lib/thumb/v6-m/nofp\libc-size-musl.a(strcpy.o)
 .debug_line    0x0000000000000000       0xb2 d:/mplab x ide/xc32_v4.60/bin/bin/../../lib/gcc/pic32c/8.3.1/../../../../pic32c/lib/thumb/v6-m/nofp\libc-size-musl.a(strcpy.o)
 .debug_str     0x0000000000000000      0x20d d:/mplab x ide/xc32_v4.60/bin/bin/../../lib/gcc/pic32c/8.3.1/../../../../pic32c/lib/thumb/v6-m/nofp\libc-size-musl.a(strcpy.o)
 .comment       0x0000000000000000       0x2c d:/mplab x ide/xc32_v4.60/bin/bin/../../lib/gcc/pic32c/8.3.1/../../../../pic32c/lib/thumb/v6-m/nofp\libc-size-musl.a(strcpy.o)
 .note.GNU-stack
                0x0000000000000000        0x0 d:/mplab x ide/xc32_v4.60/bin/bin/../../lib/gcc/pic32c/8.3.1/../../../../pic32c/lib/thumb/v6-m/nofp\libc-size-musl.a(strcpy.o)
 .debug_frame   0x0000000000000000       0x28 d:/mplab x ide/xc32_v4.60/bin/bin/../../lib/gcc/pic32c/8.3.1/../../../../pic32c/lib/thumb/v6-m/nofp\libc-size-musl.a(strcpy.o)
 .ARM.attributes
                0x0000000000000000       0x2e d:/mplab x ide/xc32_v4.60/bin/bin/../../lib/gcc/pic32c/8.3.1/../../../../pic32c/lib/thumb/v6-m/nofp\libc-size-musl.a(strcpy.o)
 .text          0x0000000000000000        0x0 d:/mplab x ide/xc32_v4.60/bin/bin/../../lib/gcc/pic32c/8.3.1/../../../../pic32c/lib/thumb/v6-m/nofp\libc-size-musl.a(stpcpy.o)
 .data          0x0000000000000000        0x0 d:/mplab x ide/xc32_v4.60/bin/bin/../../lib/gcc/pic32c/8.3.1/../../../../pic32c/lib/thumb/v6-m/nofp\libc-size-musl.a(stpcpy.o)
 .bss           0x0000000000000000        0x0 d:/mplab x ide/xc32_v4.60/bin/bin/../../lib/gcc/pic32c/8.3.1/../../../../pic32c/lib/thumb/v6-m/nofp\libc-size-musl.a(stpcpy.o)
 .xc_stack_usage
                0x0000000000000000       0x14 d:/mplab x ide/xc32_v4.60/bin/bin/../../lib/gcc/pic32c/8.3.1/../../../../pic32c/lib/thumb/v6-m/nofp\libc-size-musl.a(stpcpy.o)
 .text.stpcpy   0x0000000000000000       0x14 d:/mplab x ide/xc32_v4.60/bin/bin/../../lib/gcc/pic32c/8.3.1/../../../../pic32c/lib/thumb/v6-m/nofp\libc-size-musl.a(stpcpy.o)
 .xc_stack_usage.hdr
                0x0000000000000000        0xe d:/mplab x ide/xc32_v4.60/bin/bin/../../lib/gcc/pic32c/8.3.1/../../../../pic32c/lib/thumb/v6-m/nofp\libc-size-musl.a(stpcpy.o)
 .debug_info    0x0000000000000000       0xac d:/mplab x ide/xc32_v4.60/bin/bin/../../lib/gcc/pic32c/8.3.1/../../../../pic32c/lib/thumb/v6-m/nofp\libc-size-musl.a(stpcpy.o)
 .debug_abbrev  0x0000000000000000       0x6e d:/mplab x ide/xc32_v4.60/bin/bin/../../lib/gcc/pic32c/8.3.1/../../../../pic32c/lib/thumb/v6-m/nofp\libc-size-musl.a(stpcpy.o)
 .debug_loc     0x0000000000000000       0x90 d:/mplab x ide/xc32_v4.60/bin/bin/../../lib/gcc/pic32c/8.3.1/../../../../pic32c/lib/thumb/v6-m/nofp\libc-size-musl.a(stpcpy.o)
 .debug_aranges
                0x0000000000000000       0x20 d:/mplab x ide/xc32_v4.60/bin/bin/../../lib/gcc/pic32c/8.3.1/../../../../pic32c/lib/thumb/v6-m/nofp\libc-size-musl.a(stpcpy.o)
 .debug_ranges  0x0000000000000000       0x10 d:/mplab x ide/xc32_v4.60/bin/bin/../../lib/gcc/pic32c/8.3.1/../../../../pic32c/lib/thumb/v6-m/nofp\libc-size-musl.a(stpcpy.o)
 .debug_line    0x0000000000000000       0xc1 d:/mplab x ide/xc32_v4.60/bin/bin/../../lib/gcc/pic32c/8.3.1/../../../../pic32c/lib/thumb/v6-m/nofp\libc-size-musl.a(stpcpy.o)
 .debug_str     0x0000000000000000      0x221 d:/mplab x ide/xc32_v4.60/bin/bin/../../lib/gcc/pic32c/8.3.1/../../../../pic32c/lib/thumb/v6-m/nofp\libc-size-musl.a(stpcpy.o)
 .comment       0x0000000000000000       0x2c d:/mplab x ide/xc32_v4.60/bin/bin/../../lib/gcc/pic32c/8.3.1/../../../../pic32c/lib/thumb/v6-m/nofp\libc-size-musl.a(stpcpy.o)
 .note.GNU-stack
                0x0000000000000000        0x0 d:/mplab x ide/xc32_v4.60/bin/bin/../../lib/gcc/pic32c/8.3.1/../../../../pic32c/lib/thumb/v6-m/nofp\libc-size-musl.a(stpcpy.o)
 .debug_frame   0x0000000000000000       0x20 d:/mplab x ide/xc32_v4.60/bin/bin/../../lib/gcc/pic32c/8.3.1/../../../../pic32c/lib/thumb/v6-m/nofp\libc-size-musl.a(stpcpy.o)
 .ARM.attributes
                0x0000000000000000       0x2e d:/mplab x ide/xc32_v4.60/bin/bin/../../lib/gcc/pic32c/8.3.1/../../../../pic32c/lib/thumb/v6-m/nofp\libc-size-musl.a(stpcpy.o)
 .text          0x0000000000000000        0x0 d:/mplab x ide/xc32_v4.60/bin/bin/../../lib/gcc/pic32c/8.3.1/thumb/v6-m/nofp/crtend.o
 .data          0x0000000000000000        0x0 d:/mplab x ide/xc32_v4.60/bin/bin/../../lib/gcc/pic32c/8.3.1/thumb/v6-m/nofp/crtend.o
 .bss           0x0000000000000000        0x0 d:/mplab x ide/xc32_v4.60/bin/bin/../../lib/gcc/pic32c/8.3.1/thumb/v6-m/nofp/crtend.o
 .eh_frame      0x0000000000000000        0x4 d:/mplab x ide/xc32_v4.60/bin/bin/../../lib/gcc/pic32c/8.3.1/thumb/v6-m/nofp/crtend.o
 .xc_stack_usage.hdr
                0x0000000000000000        0xe d:/mplab x ide/xc32_v4.60/bin/bin/../../lib/gcc/pic32c/8.3.1/thumb/v6-m/nofp/crtend.o
 .comment       0x0000000000000000       0x2c d:/mplab x ide/xc32_v4.60/bin/bin/../../lib/gcc/pic32c/8.3.1/thumb/v6-m/nofp/crtend.o
 .ARM.attributes
                0x0000000000000000       0x2c d:/mplab x ide/xc32_v4.60/bin/bin/../../lib/gcc/pic32c/8.3.1/thumb/v6-m/nofp/crtend.o
 .text          0x0000000000000000        0x0 d:/mplab x ide/xc32_v4.60/bin/bin/../../lib/gcc/pic32c/8.3.1/thumb/v6-m/nofp/crtn.o
 .data          0x0000000000000000        0x0 d:/mplab x ide/xc32_v4.60/bin/bin/../../lib/gcc/pic32c/8.3.1/thumb/v6-m/nofp/crtn.o
 .bss           0x0000000000000000        0x0 d:/mplab x ide/xc32_v4.60/bin/bin/../../lib/gcc/pic32c/8.3.1/thumb/v6-m/nofp/crtn.o
 .xc_stack_usage.hdr
                0x0000000000000000        0xe d:/mplab x ide/xc32_v4.60/bin/bin/../../lib/gcc/pic32c/8.3.1/thumb/v6-m/nofp/crtn.o
 .text          0x0000000000000000        0x0 d:/mplab x ide/xc32_v4.60/bin/bin/../../lib/gcc/pic32c/8.3.1/../../../../pic32c/lib/thumb/v6-m/nofp\libpic32c.a(pic32_data_init_clear.o)
 .data          0x0000000000000000        0x0 d:/mplab x ide/xc32_v4.60/bin/bin/../../lib/gcc/pic32c/8.3.1/../../../../pic32c/lib/thumb/v6-m/nofp\libpic32c.a(pic32_data_init_clear.o)
 .bss           0x0000000000000000        0x0 d:/mplab x ide/xc32_v4.60/bin/bin/../../lib/gcc/pic32c/8.3.1/../../../../pic32c/lib/thumb/v6-m/nofp\libpic32c.a(pic32_data_init_clear.o)
 .xc_stack_usage
                0x0000000000000000       0x1b d:/mplab x ide/xc32_v4.60/bin/bin/../../lib/gcc/pic32c/8.3.1/../../../../pic32c/lib/thumb/v6-m/nofp\libpic32c.a(pic32_data_init_clear.o)
 .xc_stack_usage.hdr
                0x0000000000000000        0xe d:/mplab x ide/xc32_v4.60/bin/bin/../../lib/gcc/pic32c/8.3.1/../../../../pic32c/lib/thumb/v6-m/nofp\libpic32c.a(pic32_data_init_clear.o)
 .text          0x0000000000000000        0x0 d:/mplab x ide/xc32_v4.60/bin/bin/../../lib/gcc/pic32c/8.3.1/../../../../pic32c/lib/thumb/v6-m/nofp\libpic32c.a(pic32_data_init_copy.o)
 .data          0x0000000000000000        0x0 d:/mplab x ide/xc32_v4.60/bin/bin/../../lib/gcc/pic32c/8.3.1/../../../../pic32c/lib/thumb/v6-m/nofp\libpic32c.a(pic32_data_init_copy.o)
 .bss           0x0000000000000000        0x0 d:/mplab x ide/xc32_v4.60/bin/bin/../../lib/gcc/pic32c/8.3.1/../../../../pic32c/lib/thumb/v6-m/nofp\libpic32c.a(pic32_data_init_copy.o)
 .xc_stack_usage
                0x0000000000000000       0x1a d:/mplab x ide/xc32_v4.60/bin/bin/../../lib/gcc/pic32c/8.3.1/../../../../pic32c/lib/thumb/v6-m/nofp\libpic32c.a(pic32_data_init_copy.o)
 .xc_stack_usage.hdr
                0x0000000000000000        0xe d:/mplab x ide/xc32_v4.60/bin/bin/../../lib/gcc/pic32c/8.3.1/../../../../pic32c/lib/thumb/v6-m/nofp\libpic32c.a(pic32_data_init_copy.o)

Memory Configuration

Name             Origin             Length             Attributes
rom              0x0000000000000000 0x0000000000040000 xrl
ram              0x0000000020000000 0x0000000000008000 xw !r
config_00804000  0x0000000000804000 0x0000000000000004
config_00804004  0x0000000000804004 0x0000000000000004
*default*        0x0000000000000000 0xffffffffffffffff

Linker script and memory map

LOAD d:/mplab x ide/xc32_v4.60/bin/bin/../../lib/gcc/pic32c/8.3.1/thumb/v6-m/nofp/crti.o
LOAD d:/mplab x ide/xc32_v4.60/bin/bin/../../lib/gcc/pic32c/8.3.1/thumb/v6-m/nofp/crtbegin.o
LOAD build/default/production/_ext/1529399856/osal_freertos.o
LOAD build/default/production/_ext/60163342/plib_adc0.o
LOAD build/default/production/_ext/60165182/plib_can1.o
LOAD build/default/production/_ext/1984496892/plib_clock.o
LOAD build/default/production/_ext/60167341/plib_eic.o
LOAD build/default/production/_ext/1986646378/plib_evsys.o
LOAD build/default/production/_ext/1865468468/plib_nvic.o
LOAD build/default/production/_ext/1593096446/plib_nvmctrl.o
LOAD build/default/production/_ext/1865521619/plib_port.o
LOAD build/default/production/_ext/1865585090/plib_rstc.o
LOAD build/default/production/_ext/17022449/plib_sercom3_spi_master.o
LOAD build/default/production/_ext/17022449/plib_sercom0_spi_master.o
LOAD build/default/production/_ext/504274921/plib_sercom7_usart.o
LOAD build/default/production/_ext/504274921/plib_sercom5_usart.o
LOAD build/default/production/_ext/829342655/plib_tc2.o
LOAD build/default/production/_ext/829342655/plib_tc4.o
LOAD build/default/production/_ext/60184501/plib_wdt.o
LOAD build/default/production/_ext/163028504/xc32_monitor.o
LOAD build/default/production/_ext/1832805299/sys_console.o
LOAD build/default/production/_ext/1832805299/sys_console_uart.o
LOAD build/default/production/_ext/1832805299/sys_console_usb_cdc.o
LOAD build/default/production/_ext/944882569/sys_debug.o
LOAD build/default/production/_ext/1881668453/sys_int.o
LOAD build/default/production/_ext/1171490990/initialization.o
LOAD build/default/production/_ext/1171490990/interrupts.o
LOAD build/default/production/_ext/1171490990/exceptions.o
LOAD build/default/production/_ext/1171490990/startup_xc32.o
LOAD build/default/production/_ext/1171490990/libc_syscalls.o
LOAD build/default/production/_ext/1171490990/freertos_hooks.o
LOAD build/default/production/_ext/1171490990/tasks.o
LOAD build/default/production/_ext/1624415188/port.o
LOAD build/default/production/_ext/1624415188/portasm.o
LOAD build/default/production/_ext/1665200909/heap_1.o
LOAD build/default/production/_ext/404212886/croutine.o
LOAD build/default/production/_ext/404212886/list.o
LOAD build/default/production/_ext/404212886/queue.o
LOAD build/default/production/_ext/404212886/FreeRTOS_tasks.o
LOAD build/default/production/_ext/404212886/timers.o
LOAD build/default/production/_ext/404212886/event_groups.o
LOAD build/default/production/_ext/404212886/stream_buffer.o
LOAD build/default/production/_ext/1360937237/main.o
LOAD build/default/production/_ext/1360937237/app.o
LOAD build/default/production/_ext/1360937237/Global_Vars.o
LOAD build/default/production/_ext/1500443788/ext_flash.o
LOAD build/default/production/_ext/1500443788/McuSwReset.o
LOAD build/default/production/_ext/1500443788/tlv_flash.o
LOAD build/default/production/_ext/1096015630/CRC.o
LOAD build/default/production/_ext/1096015630/Functions.o
LOAD build/default/production/_ext/1433801640/TMC4671.o
LOAD build/default/production/_ext/33404887/LinearRamp.o
LOAD build/default/production/_ext/33404887/LinearRamp1.o
LOAD build/default/production/_ext/33404887/Ramp.o
LOAD build/default/production/_ext/2089947380/Step_Counter.o
LOAD build/default/production/_ext/2089947380/TMC2209.o
LOAD build/default/production/_ext/2089947380/TMC2209_motion.o
LOAD build/default/production/_ext/2089947380/TMC2209_Simple_Rotation.o
LOAD build/default/production/_ext/221583569/my_spi_func.o
LOAD build/default/production/_ext/149991522/spi.o
LOAD build/default/production/_ext/1360937237/freertos_daemon.o
                0x0000000000000001                __MPLAB_BUILD = 0x1
                0x0000000000040000                __rom_end = (ORIGIN (rom) + LENGTH (rom))
                0x0000000020008000                __ram_end = (ORIGIN (ram) + LENGTH (ram))

.config_00804000
 *(.config_00804000)

.config_00804004
 *(.config_00804004)

.vectors        0x0000000000000000       0xbc
                0x0000000000000000                . = ALIGN (0x4)
                0x0000000000000000                _sfixed = .
 *(.vectors .vectors.* .vectors_default .vectors_default.*)
 .vectors.exception_table
                0x0000000000000000       0xbc build/default/production/_ext/1171490990/interrupts.o
                0x0000000000000000                exception_table
 *(.isr_vector)
 *(.reset*)
 *(.after_vectors)

.text           0x00000000000000bc       0x20
                0x00000000000000bc                . = ALIGN (0x4)
 *(.glue_7t)
 .glue_7t       0x00000000000000bc        0x0 linker stubs
 *(.glue_7)
 .glue_7        0x00000000000000bc        0x0 linker stubs
 *(.gnu.linkonce.r.*)
 *(.ARM.extab* .gnu.linkonce.armextab.*)
                0x00000000000000bc                . = ALIGN (0x4)
 *(.init)
 .init          0x00000000000000bc        0x4 d:/mplab x ide/xc32_v4.60/bin/bin/../../lib/gcc/pic32c/8.3.1/thumb/v6-m/nofp/crti.o
                0x00000000000000bc                _init
 .init          0x00000000000000c0        0x8 d:/mplab x ide/xc32_v4.60/bin/bin/../../lib/gcc/pic32c/8.3.1/thumb/v6-m/nofp/crtn.o
                0x00000000000000c8                . = ALIGN (0x4)
                0x00000000000000c8                __preinit_array_start = .
 *(.preinit_array)
                0x00000000000000c8                __preinit_array_end = .
                0x00000000000000c8                . = ALIGN (0x4)
                0x00000000000000c8                __init_array_start = .
 *(SORT_BY_NAME(.init_array.*))
 *(.init_array)
 .init_array    0x00000000000000c8        0x4 d:/mplab x ide/xc32_v4.60/bin/bin/../../lib/gcc/pic32c/8.3.1/thumb/v6-m/nofp/crtbegin.o
                0x00000000000000cc                __init_array_end = .
                0x00000000000000cc                . = ALIGN (0x4)
 *crtbegin.o(.ctors)
 *(EXCLUDE_FILE(*crtend.o) .ctors)
 *(SORT_BY_NAME(.ctors.*))
 *crtend.o(.ctors)
                0x00000000000000cc                . = ALIGN (0x4)
 *(.fini)
 .fini          0x00000000000000cc        0x4 d:/mplab x ide/xc32_v4.60/bin/bin/../../lib/gcc/pic32c/8.3.1/thumb/v6-m/nofp/crti.o
                0x00000000000000cc                _fini
 .fini          0x00000000000000d0        0x8 d:/mplab x ide/xc32_v4.60/bin/bin/../../lib/gcc/pic32c/8.3.1/thumb/v6-m/nofp/crtn.o
                0x00000000000000d8                . = ALIGN (0x4)
                0x00000000000000d8                __fini_array_start = .
 *(.fini_array)
 .fini_array    0x00000000000000d8        0x4 d:/mplab x ide/xc32_v4.60/bin/bin/../../lib/gcc/pic32c/8.3.1/thumb/v6-m/nofp/crtbegin.o
 *(SORT_BY_NAME(.fini_array.*))
                0x00000000000000dc                __fini_array_end = .
 *crtbegin.o(.dtors)
 *(EXCLUDE_FILE(*crtend.o) .dtors)
 *(SORT_BY_NAME(.dtors.*))
 *crtend.o(.dtors)
                0x00000000000000dc                . = ALIGN (0x4)
                0x00000000000000dc                _efixed = .
                [!provide]                        PROVIDE (__exidx_start = .)

.ARM.exidx
 *(.ARM.exidx* .gnu.linkonce.armexidx.*)
                [!provide]                        PROVIDE (__exidx_end = .)
                0x00000000000000dc                . = ALIGN (0x4)
                0x00000000000000dc                _etext = .

.bss            0x0000000020000000       0x14
                0x0000000020000000                . = ALIGN (0x4)
                0x0000000020000000                __bss_start__ = .
                0x0000000020000000                _sbss = .
                0x0000000020000000                _szero = .
 *(COMMON)
 COMMON         0x0000000020000000        0x4 build/default/production/_ext/944882569/sys_debug.o
                0x0000000020000000                gblErrLvl
 COMMON         0x0000000020000004        0x8 build/default/production/_ext/1171490990/initialization.o
                0x0000000020000004                sysObj
 COMMON         0x000000002000000c        0x4 build/default/production/_ext/1171490990/tasks.o
                0x000000002000000c                xAPP_Tasks
 COMMON         0x0000000020000010        0x1 build/default/production/_ext/1360937237/app.o
                0x0000000020000010                appData
                0x0000000020000014                . = ALIGN (0x4)
 *fill*         0x0000000020000011        0x3 
                0x0000000020000014                __bss_end__ = .
                0x0000000020000014                _ebss = .
                0x0000000020000014                _ezero = .
                0x0000000020000014                . = ALIGN (0x4)
                0x0000000020000014                _end = .
                0x0000000020007fff                _ram_end_ = ((ORIGIN (ram) + LENGTH (ram)) - 0x1)
                0x0000000000000200                _min_heap_size = 0x200
START GROUP
LOAD d:/mplab x ide/xc32_v4.60/bin/bin/../../lib/gcc/pic32c/8.3.1/../../../../pic32c/lib/thumb/v6-m/nofp\libpic32c.a
LOAD d:/mplab x ide/xc32_v4.60/bin/bin/../../lib/gcc/pic32c/8.3.1/../../../../pic32c/lib/thumb/v6-m/nofp\libc-size-musl.a
LOAD d:/mplab x ide/xc32_v4.60/bin/bin/../../lib/gcc/pic32c/8.3.1/../../../../pic32c/lib/thumb/v6-m/nofp\liblmalloc-musl.a
LOAD d:/mplab x ide/xc32_v4.60/bin/bin/../../lib/gcc/pic32c/8.3.1/../../../../pic32c/lib/thumb/v6-m/nofp\libm-fast-emfloat.a
LOAD d:/mplab x ide/xc32_v4.60/bin/bin/../../lib/gcc/pic32c/8.3.1/../../../../pic32c/lib/thumb/v6-m/nofp\libm-musl.a
LOAD d:/mplab x ide/xc32_v4.60/bin/bin/../../lib/gcc/pic32c/8.3.1/../../../../pic32c/lib/thumb/v6-m/nofp\libc-musl.a
LOAD d:/mplab x ide/xc32_v4.60/bin/bin/../../lib/gcc/pic32c/8.3.1/../../../../pic32c/lib/thumb/v6-m/nofp\libm-fast-emfloat.a
LOAD d:/mplab x ide/xc32_v4.60/bin/bin/../../lib/gcc/pic32c/8.3.1/../../../../pic32c/lib/thumb/v6-m/nofp\libm-musl.a
LOAD d:/mplab x ide/xc32_v4.60/bin/bin/../../lib/gcc/pic32c/8.3.1/thumb/v6-m/nofp\libgcc.a
END GROUP
LOAD d:/mplab x ide/xc32_v4.60/bin/bin/../../lib/gcc/pic32c/8.3.1/thumb/v6-m/nofp/crtend.o
LOAD d:/mplab x ide/xc32_v4.60/bin/bin/../../lib/gcc/pic32c/8.3.1/thumb/v6-m/nofp/crtn.o
OUTPUT(dist/default/production/NextGen_GTron_AxC.X.production.elf elf32-littlearm)
LOAD data_init
LOAD stack

.ARM.attributes
                0x0000000000000000       0x2a
 .ARM.attributes
                0x0000000000000000       0x1e d:/mplab x ide/xc32_v4.60/bin/bin/../../lib/gcc/pic32c/8.3.1/thumb/v6-m/nofp/crti.o
 .ARM.attributes
                0x000000000000001e       0x2c d:/mplab x ide/xc32_v4.60/bin/bin/../../lib/gcc/pic32c/8.3.1/thumb/v6-m/nofp/crtbegin.o
 .ARM.attributes
                0x000000000000004a       0x2c build/default/production/_ext/1529399856/osal_freertos.o
 .ARM.attributes
                0x0000000000000076       0x2c build/default/production/_ext/60163342/plib_adc0.o
 .ARM.attributes
                0x00000000000000a2       0x2c build/default/production/_ext/60165182/plib_can1.o
 .ARM.attributes
                0x00000000000000ce       0x2c build/default/production/_ext/1984496892/plib_clock.o
 .ARM.attributes
                0x00000000000000fa       0x2c build/default/production/_ext/60167341/plib_eic.o
 .ARM.attributes
                0x0000000000000126       0x2c build/default/production/_ext/1986646378/plib_evsys.o
 .ARM.attributes
                0x0000000000000152       0x2c build/default/production/_ext/1865468468/plib_nvic.o
 .ARM.attributes
                0x000000000000017e       0x2c build/default/production/_ext/1593096446/plib_nvmctrl.o
 .ARM.attributes
                0x00000000000001aa       0x2c build/default/production/_ext/1865521619/plib_port.o
 .ARM.attributes
                0x00000000000001d6       0x2c build/default/production/_ext/17022449/plib_sercom3_spi_master.o
 .ARM.attributes
                0x0000000000000202       0x2c build/default/production/_ext/17022449/plib_sercom0_spi_master.o
 .ARM.attributes
                0x000000000000022e       0x2c build/default/production/_ext/504274921/plib_sercom7_usart.o
 .ARM.attributes
                0x000000000000025a       0x2c build/default/production/_ext/504274921/plib_sercom5_usart.o
 .ARM.attributes
                0x0000000000000286       0x2c build/default/production/_ext/829342655/plib_tc2.o
 .ARM.attributes
                0x00000000000002b2       0x2c build/default/production/_ext/829342655/plib_tc4.o
 .ARM.attributes
                0x00000000000002de       0x2c build/default/production/_ext/1832805299/sys_console.o
 .ARM.attributes
                0x000000000000030a       0x2c build/default/production/_ext/1832805299/sys_console_uart.o
 .ARM.attributes
                0x0000000000000336       0x2c build/default/production/_ext/944882569/sys_debug.o
 .ARM.attributes
                0x0000000000000362       0x2c build/default/production/_ext/1171490990/initialization.o
 .ARM.attributes
                0x000000000000038e       0x2c build/default/production/_ext/1171490990/interrupts.o
 .ARM.attributes
                0x00000000000003ba       0x2c build/default/production/_ext/1171490990/exceptions.o
 .ARM.attributes
                0x00000000000003e6       0x2c build/default/production/_ext/1171490990/startup_xc32.o
 .ARM.attributes
                0x0000000000000412       0x2c build/default/production/_ext/1171490990/freertos_hooks.o
 .ARM.attributes
                0x000000000000043e       0x2c build/default/production/_ext/1171490990/tasks.o
 .ARM.attributes
                0x000000000000046a       0x2c build/default/production/_ext/1624415188/port.o
 .ARM.attributes
                0x0000000000000496       0x2c build/default/production/_ext/1624415188/portasm.o
 .ARM.attributes
                0x00000000000004c2       0x2c build/default/production/_ext/1665200909/heap_1.o
 .ARM.attributes
                0x00000000000004ee       0x2c build/default/production/_ext/404212886/list.o
 .ARM.attributes
                0x000000000000051a       0x2c build/default/production/_ext/404212886/queue.o
 .ARM.attributes
                0x0000000000000546       0x2c build/default/production/_ext/404212886/FreeRTOS_tasks.o
 .ARM.attributes
                0x0000000000000572       0x2c build/default/production/_ext/404212886/timers.o
 .ARM.attributes
                0x000000000000059e       0x2c build/default/production/_ext/1360937237/main.o
 .ARM.attributes
                0x00000000000005ca       0x2c build/default/production/_ext/1360937237/app.o
 .ARM.attributes
                0x00000000000005f6       0x2c build/default/production/_ext/1360937237/freertos_daemon.o
 .ARM.attributes
                0x0000000000000622       0x2c d:/mplab x ide/xc32_v4.60/bin/bin/../../lib/gcc/pic32c/8.3.1/../../../../pic32c/lib/thumb/v6-m/nofp\libpic32c.a(data_init.o)
 .ARM.attributes
                0x000000000000064e       0x2e d:/mplab x ide/xc32_v4.60/bin/bin/../../lib/gcc/pic32c/8.3.1/../../../../pic32c/lib/thumb/v6-m/nofp\libc-size-musl.a(memcpy.o)
 .ARM.attributes
                0x000000000000067c       0x2e d:/mplab x ide/xc32_v4.60/bin/bin/../../lib/gcc/pic32c/8.3.1/../../../../pic32c/lib/thumb/v6-m/nofp\libc-size-musl.a(memset.o)
 .ARM.attributes
                0x00000000000006aa       0x2e d:/mplab x ide/xc32_v4.60/bin/bin/../../lib/gcc/pic32c/8.3.1/../../../../pic32c/lib/thumb/v6-m/nofp\libc-musl.a(__libc_start_main.o)
 .ARM.attributes
                0x00000000000006d8       0x2e d:/mplab x ide/xc32_v4.60/bin/bin/../../lib/gcc/pic32c/8.3.1/../../../../pic32c/lib/thumb/v6-m/nofp\libc-musl.a(libc.o)
 .ARM.attributes
                0x0000000000000706       0x2e d:/mplab x ide/xc32_v4.60/bin/bin/../../lib/gcc/pic32c/8.3.1/../../../../pic32c/lib/thumb/v6-m/nofp\libc-musl.a(__environ.o)
 .ARM.attributes
                0x0000000000000734       0x2e d:/mplab x ide/xc32_v4.60/bin/bin/../../lib/gcc/pic32c/8.3.1/../../../../pic32c/lib/thumb/v6-m/nofp\libc-musl.a(stdout.o)
 .ARM.attributes
                0x0000000000000762       0x2e d:/mplab x ide/xc32_v4.60/bin/bin/../../lib/gcc/pic32c/8.3.1/../../../../pic32c/lib/thumb/v6-m/nofp\libc-musl.a(__init_stdio.o)
 .ARM.attributes
                0x0000000000000790       0x1e d:/mplab x ide/xc32_v4.60/bin/bin/../../lib/gcc/pic32c/8.3.1/thumb/v6-m/nofp/crtn.o
 .ARM.attributes
                0x00000000000007ae       0x2c d:/mplab x ide/xc32_v4.60/bin/bin/../../lib/gcc/pic32c/8.3.1/../../../../pic32c/lib/thumb/v6-m/nofp\libpic32c.a(pic32_data_init_clear.o)
 .ARM.attributes
                0x00000000000007da       0x2c d:/mplab x ide/xc32_v4.60/bin/bin/../../lib/gcc/pic32c/8.3.1/../../../../pic32c/lib/thumb/v6-m/nofp\libpic32c.a(pic32_data_init_copy.o)

.comment        0x0000000000000000       0x2b
 .comment       0x0000000000000000       0x2b d:/mplab x ide/xc32_v4.60/bin/bin/../../lib/gcc/pic32c/8.3.1/thumb/v6-m/nofp/crtbegin.o
                                         0x2c (size before relaxing)
 .comment       0x000000000000002b       0x2c build/default/production/_ext/1529399856/osal_freertos.o
 .comment       0x000000000000002b       0x2c build/default/production/_ext/60163342/plib_adc0.o
 .comment       0x000000000000002b       0x2c build/default/production/_ext/60165182/plib_can1.o
 .comment       0x000000000000002b       0x2c build/default/production/_ext/1984496892/plib_clock.o
 .comment       0x000000000000002b       0x2c build/default/production/_ext/60167341/plib_eic.o
 .comment       0x000000000000002b       0x2c build/default/production/_ext/1986646378/plib_evsys.o
 .comment       0x000000000000002b       0x2c build/default/production/_ext/1865468468/plib_nvic.o
 .comment       0x000000000000002b       0x2c build/default/production/_ext/1593096446/plib_nvmctrl.o
 .comment       0x000000000000002b       0x2c build/default/production/_ext/1865521619/plib_port.o
 .comment       0x000000000000002b       0x2c build/default/production/_ext/17022449/plib_sercom3_spi_master.o
 .comment       0x000000000000002b       0x2c build/default/production/_ext/17022449/plib_sercom0_spi_master.o
 .comment       0x000000000000002b       0x2c build/default/production/_ext/504274921/plib_sercom7_usart.o
 .comment       0x000000000000002b       0x2c build/default/production/_ext/504274921/plib_sercom5_usart.o
 .comment       0x000000000000002b       0x2c build/default/production/_ext/829342655/plib_tc2.o
 .comment       0x000000000000002b       0x2c build/default/production/_ext/829342655/plib_tc4.o
 .comment       0x000000000000002b       0x2c build/default/production/_ext/1832805299/sys_console.o
 .comment       0x000000000000002b       0x2c build/default/production/_ext/1832805299/sys_console_uart.o
 .comment       0x000000000000002b       0x2c build/default/production/_ext/944882569/sys_debug.o
 .comment       0x000000000000002b       0x2c build/default/production/_ext/1171490990/initialization.o
 .comment       0x000000000000002b       0x2c build/default/production/_ext/1171490990/interrupts.o
 .comment       0x000000000000002b       0x2c build/default/production/_ext/1171490990/exceptions.o
 .comment       0x000000000000002b       0x2c build/default/production/_ext/1171490990/startup_xc32.o
 .comment       0x000000000000002b       0x2c build/default/production/_ext/1171490990/freertos_hooks.o
 .comment       0x000000000000002b       0x2c build/default/production/_ext/1171490990/tasks.o
 .comment       0x000000000000002b       0x2c build/default/production/_ext/1624415188/port.o
 .comment       0x000000000000002b       0x2c build/default/production/_ext/1624415188/portasm.o
 .comment       0x000000000000002b       0x2c build/default/production/_ext/1665200909/heap_1.o
 .comment       0x000000000000002b       0x2c build/default/production/_ext/404212886/list.o
 .comment       0x000000000000002b       0x2c build/default/production/_ext/404212886/queue.o
 .comment       0x000000000000002b       0x2c build/default/production/_ext/404212886/FreeRTOS_tasks.o
 .comment       0x000000000000002b       0x2c build/default/production/_ext/404212886/timers.o
 .comment       0x000000000000002b       0x2c build/default/production/_ext/1360937237/main.o
 .comment       0x000000000000002b       0x2c build/default/production/_ext/1360937237/app.o
 .comment       0x000000000000002b       0x2c build/default/production/_ext/1360937237/freertos_daemon.o
 .comment       0x000000000000002b       0x2c d:/mplab x ide/xc32_v4.60/bin/bin/../../lib/gcc/pic32c/8.3.1/../../../../pic32c/lib/thumb/v6-m/nofp\libpic32c.a(data_init.o)
 .comment       0x000000000000002b       0x2c d:/mplab x ide/xc32_v4.60/bin/bin/../../lib/gcc/pic32c/8.3.1/../../../../pic32c/lib/thumb/v6-m/nofp\libc-size-musl.a(memcpy.o)
 .comment       0x000000000000002b       0x2c d:/mplab x ide/xc32_v4.60/bin/bin/../../lib/gcc/pic32c/8.3.1/../../../../pic32c/lib/thumb/v6-m/nofp\libc-size-musl.a(memset.o)
 .comment       0x000000000000002b       0x2c d:/mplab x ide/xc32_v4.60/bin/bin/../../lib/gcc/pic32c/8.3.1/../../../../pic32c/lib/thumb/v6-m/nofp\libc-musl.a(__libc_start_main.o)
 .comment       0x000000000000002b       0x2c d:/mplab x ide/xc32_v4.60/bin/bin/../../lib/gcc/pic32c/8.3.1/../../../../pic32c/lib/thumb/v6-m/nofp\libc-musl.a(libc.o)
 .comment       0x000000000000002b       0x2c d:/mplab x ide/xc32_v4.60/bin/bin/../../lib/gcc/pic32c/8.3.1/../../../../pic32c/lib/thumb/v6-m/nofp\libc-musl.a(__environ.o)
 .comment       0x000000000000002b       0x2c d:/mplab x ide/xc32_v4.60/bin/bin/../../lib/gcc/pic32c/8.3.1/../../../../pic32c/lib/thumb/v6-m/nofp\libc-musl.a(stdout.o)
 .comment       0x000000000000002b       0x2c d:/mplab x ide/xc32_v4.60/bin/bin/../../lib/gcc/pic32c/8.3.1/../../../../pic32c/lib/thumb/v6-m/nofp\libc-musl.a(__init_stdio.o)
 .comment       0x000000000000002b       0x2c d:/mplab x ide/xc32_v4.60/bin/bin/../../lib/gcc/pic32c/8.3.1/../../../../pic32c/lib/thumb/v6-m/nofp\libpic32c.a(pic32_data_init_clear.o)
 .comment       0x000000000000002b       0x2c d:/mplab x ide/xc32_v4.60/bin/bin/../../lib/gcc/pic32c/8.3.1/../../../../pic32c/lib/thumb/v6-m/nofp\libpic32c.a(pic32_data_init_copy.o)

.debug_info     0x0000000000000000    0x15542
 .debug_info    0x0000000000000000      0x790 build/default/production/_ext/1529399856/osal_freertos.o
 .debug_info    0x0000000000000790      0x617 build/default/production/_ext/60163342/plib_adc0.o
 .debug_info    0x0000000000000da7     0x1300 build/default/production/_ext/60165182/plib_can1.o
 .debug_info    0x00000000000020a7      0x658 build/default/production/_ext/1984496892/plib_clock.o
 .debug_info    0x00000000000026ff      0x3a7 build/default/production/_ext/60167341/plib_eic.o
 .debug_info    0x0000000000002aa6       0x9b build/default/production/_ext/1986646378/plib_evsys.o
 .debug_info    0x0000000000002b41      0x929 build/default/production/_ext/1865468468/plib_nvic.o
 .debug_info    0x000000000000346a      0x732 build/default/production/_ext/1593096446/plib_nvmctrl.o
 .debug_info    0x0000000000003b9c      0x7b4 build/default/production/_ext/1865521619/plib_port.o
 .debug_info    0x0000000000004350      0xcef build/default/production/_ext/17022449/plib_sercom3_spi_master.o
 .debug_info    0x000000000000503f      0xcef build/default/production/_ext/17022449/plib_sercom0_spi_master.o
 .debug_info    0x0000000000005d2e     0x17ae build/default/production/_ext/504274921/plib_sercom7_usart.o
 .debug_info    0x00000000000074dc     0x17ae build/default/production/_ext/504274921/plib_sercom5_usart.o
 .debug_info    0x0000000000008c8a      0x814 build/default/production/_ext/829342655/plib_tc2.o
 .debug_info    0x000000000000949e      0x814 build/default/production/_ext/829342655/plib_tc4.o
 .debug_info    0x0000000000009cb2      0xc10 build/default/production/_ext/1832805299/sys_console.o
 .debug_info    0x000000000000a8c2      0xbf2 build/default/production/_ext/1832805299/sys_console_uart.o
 .debug_info    0x000000000000b4b4      0x34a build/default/production/_ext/944882569/sys_debug.o
 .debug_info    0x000000000000b7fe      0x9de build/default/production/_ext/1171490990/initialization.o
 .debug_info    0x000000000000c1dc      0x45a build/default/production/_ext/1171490990/interrupts.o
 .debug_info    0x000000000000c636       0xc1 build/default/production/_ext/1171490990/exceptions.o
 .debug_info    0x000000000000c6f7      0x205 build/default/production/_ext/1171490990/startup_xc32.o
 .debug_info    0x000000000000c8fc      0x1ac build/default/production/_ext/1171490990/freertos_hooks.o
 .debug_info    0x000000000000caa8      0x1c5 build/default/production/_ext/1171490990/tasks.o
 .debug_info    0x000000000000cc6d      0x3a3 build/default/production/_ext/1624415188/port.o
 .debug_info    0x000000000000d010      0x17c build/default/production/_ext/1624415188/portasm.o
 .debug_info    0x000000000000d18c      0x238 build/default/production/_ext/1665200909/heap_1.o
 .debug_info    0x000000000000d3c4      0x2ff build/default/production/_ext/404212886/list.o
 .debug_info    0x000000000000d6c3     0x1bdf build/default/production/_ext/404212886/queue.o
 .debug_info    0x000000000000f2a2     0x2aed build/default/production/_ext/404212886/FreeRTOS_tasks.o
 .debug_info    0x0000000000011d8f     0x14cc build/default/production/_ext/404212886/timers.o
 .debug_info    0x000000000001325b       0xeb build/default/production/_ext/1360937237/main.o
 .debug_info    0x0000000000013346      0x13a build/default/production/_ext/1360937237/app.o
 .debug_info    0x0000000000013480     0x157f build/default/production/_ext/1360937237/freertos_daemon.o
 .debug_info    0x00000000000149ff       0x68 d:/mplab x ide/xc32_v4.60/bin/bin/../../lib/gcc/pic32c/8.3.1/../../../../pic32c/lib/thumb/v6-m/nofp\libpic32c.a(data_init.o)
 .debug_info    0x0000000000014a67       0xed d:/mplab x ide/xc32_v4.60/bin/bin/../../lib/gcc/pic32c/8.3.1/../../../../pic32c/lib/thumb/v6-m/nofp\libc-size-musl.a(memcpy.o)
 .debug_info    0x0000000000014b54       0xbb d:/mplab x ide/xc32_v4.60/bin/bin/../../lib/gcc/pic32c/8.3.1/../../../../pic32c/lib/thumb/v6-m/nofp\libc-size-musl.a(memset.o)
 .debug_info    0x0000000000014c0f      0x2fb d:/mplab x ide/xc32_v4.60/bin/bin/../../lib/gcc/pic32c/8.3.1/../../../../pic32c/lib/thumb/v6-m/nofp\libc-musl.a(__libc_start_main.o)
 .debug_info    0x0000000000014f0a      0x276 d:/mplab x ide/xc32_v4.60/bin/bin/../../lib/gcc/pic32c/8.3.1/../../../../pic32c/lib/thumb/v6-m/nofp\libc-musl.a(libc.o)
 .debug_info    0x0000000000015180       0x97 d:/mplab x ide/xc32_v4.60/bin/bin/../../lib/gcc/pic32c/8.3.1/../../../../pic32c/lib/thumb/v6-m/nofp\libc-musl.a(__environ.o)
 .debug_info    0x0000000000015217      0x1e9 d:/mplab x ide/xc32_v4.60/bin/bin/../../lib/gcc/pic32c/8.3.1/../../../../pic32c/lib/thumb/v6-m/nofp\libc-musl.a(stdout.o)
 .debug_info    0x0000000000015400       0xc3 d:/mplab x ide/xc32_v4.60/bin/bin/../../lib/gcc/pic32c/8.3.1/../../../../pic32c/lib/thumb/v6-m/nofp\libc-musl.a(__init_stdio.o)
 .debug_info    0x00000000000154c3       0x3f d:/mplab x ide/xc32_v4.60/bin/bin/../../lib/gcc/pic32c/8.3.1/../../../../pic32c/lib/thumb/v6-m/nofp\libpic32c.a(pic32_data_init_clear.o)
 .debug_info    0x0000000000015502       0x40 d:/mplab x ide/xc32_v4.60/bin/bin/../../lib/gcc/pic32c/8.3.1/../../../../pic32c/lib/thumb/v6-m/nofp\libpic32c.a(pic32_data_init_copy.o)

.debug_abbrev   0x0000000000000000     0x4613
 .debug_abbrev  0x0000000000000000      0x1cd build/default/production/_ext/1529399856/osal_freertos.o
 .debug_abbrev  0x00000000000001cd      0x172 build/default/production/_ext/60163342/plib_adc0.o
 .debug_abbrev  0x000000000000033f      0x30a build/default/production/_ext/60165182/plib_can1.o
 .debug_abbrev  0x0000000000000649      0x149 build/default/production/_ext/1984496892/plib_clock.o
 .debug_abbrev  0x0000000000000792      0x195 build/default/production/_ext/60167341/plib_eic.o
 .debug_abbrev  0x0000000000000927       0x46 build/default/production/_ext/1986646378/plib_evsys.o
 .debug_abbrev  0x000000000000096d      0x271 build/default/production/_ext/1865468468/plib_nvic.o
 .debug_abbrev  0x0000000000000bde      0x1c0 build/default/production/_ext/1593096446/plib_nvmctrl.o
 .debug_abbrev  0x0000000000000d9e      0x1ea build/default/production/_ext/1865521619/plib_port.o
 .debug_abbrev  0x0000000000000f88      0x205 build/default/production/_ext/17022449/plib_sercom3_spi_master.o
 .debug_abbrev  0x000000000000118d      0x205 build/default/production/_ext/17022449/plib_sercom0_spi_master.o
 .debug_abbrev  0x0000000000001392      0x423 build/default/production/_ext/504274921/plib_sercom7_usart.o
 .debug_abbrev  0x00000000000017b5      0x423 build/default/production/_ext/504274921/plib_sercom5_usart.o
 .debug_abbrev  0x0000000000001bd8      0x1be build/default/production/_ext/829342655/plib_tc2.o
 .debug_abbrev  0x0000000000001d96      0x1be build/default/production/_ext/829342655/plib_tc4.o
 .debug_abbrev  0x0000000000001f54      0x363 build/default/production/_ext/1832805299/sys_console.o
 .debug_abbrev  0x00000000000022b7      0x2e8 build/default/production/_ext/1832805299/sys_console_uart.o
 .debug_abbrev  0x000000000000259f      0x1a5 build/default/production/_ext/944882569/sys_debug.o
 .debug_abbrev  0x0000000000002744      0x205 build/default/production/_ext/1171490990/initialization.o
 .debug_abbrev  0x0000000000002949       0xf9 build/default/production/_ext/1171490990/interrupts.o
 .debug_abbrev  0x0000000000002a42       0x49 build/default/production/_ext/1171490990/exceptions.o
 .debug_abbrev  0x0000000000002a8b      0x118 build/default/production/_ext/1171490990/startup_xc32.o
 .debug_abbrev  0x0000000000002ba3      0x102 build/default/production/_ext/1171490990/freertos_hooks.o
 .debug_abbrev  0x0000000000002ca5      0x12b build/default/production/_ext/1171490990/tasks.o
 .debug_abbrev  0x0000000000002dd0      0x180 build/default/production/_ext/1624415188/port.o
 .debug_abbrev  0x0000000000002f50       0xc7 build/default/production/_ext/1624415188/portasm.o
 .debug_abbrev  0x0000000000003017      0x162 build/default/production/_ext/1665200909/heap_1.o
 .debug_abbrev  0x0000000000003179      0x12c build/default/production/_ext/404212886/list.o
 .debug_abbrev  0x00000000000032a5      0x2b8 build/default/production/_ext/404212886/queue.o
 .debug_abbrev  0x000000000000355d      0x3f6 build/default/production/_ext/404212886/FreeRTOS_tasks.o
 .debug_abbrev  0x0000000000003953      0x37c build/default/production/_ext/404212886/timers.o
 .debug_abbrev  0x0000000000003ccf       0x82 build/default/production/_ext/1360937237/main.o
 .debug_abbrev  0x0000000000003d51       0xdd build/default/production/_ext/1360937237/app.o
 .debug_abbrev  0x0000000000003e2e      0x1d5 build/default/production/_ext/1360937237/freertos_daemon.o
 .debug_abbrev  0x0000000000004003       0x44 d:/mplab x ide/xc32_v4.60/bin/bin/../../lib/gcc/pic32c/8.3.1/../../../../pic32c/lib/thumb/v6-m/nofp\libpic32c.a(data_init.o)
 .debug_abbrev  0x0000000000004047       0xbb d:/mplab x ide/xc32_v4.60/bin/bin/../../lib/gcc/pic32c/8.3.1/../../../../pic32c/lib/thumb/v6-m/nofp\libc-size-musl.a(memcpy.o)
 .debug_abbrev  0x0000000000004102       0xa2 d:/mplab x ide/xc32_v4.60/bin/bin/../../lib/gcc/pic32c/8.3.1/../../../../pic32c/lib/thumb/v6-m/nofp\libc-size-musl.a(memset.o)
 .debug_abbrev  0x00000000000041a4      0x133 d:/mplab x ide/xc32_v4.60/bin/bin/../../lib/gcc/pic32c/8.3.1/../../../../pic32c/lib/thumb/v6-m/nofp\libc-musl.a(__libc_start_main.o)
 .debug_abbrev  0x00000000000042d7       0xd4 d:/mplab x ide/xc32_v4.60/bin/bin/../../lib/gcc/pic32c/8.3.1/../../../../pic32c/lib/thumb/v6-m/nofp\libc-musl.a(libc.o)
 .debug_abbrev  0x00000000000043ab       0x62 d:/mplab x ide/xc32_v4.60/bin/bin/../../lib/gcc/pic32c/8.3.1/../../../../pic32c/lib/thumb/v6-m/nofp\libc-musl.a(__environ.o)
 .debug_abbrev  0x000000000000440d      0x145 d:/mplab x ide/xc32_v4.60/bin/bin/../../lib/gcc/pic32c/8.3.1/../../../../pic32c/lib/thumb/v6-m/nofp\libc-musl.a(stdout.o)
 .debug_abbrev  0x0000000000004552       0x65 d:/mplab x ide/xc32_v4.60/bin/bin/../../lib/gcc/pic32c/8.3.1/../../../../pic32c/lib/thumb/v6-m/nofp\libc-musl.a(__init_stdio.o)
 .debug_abbrev  0x00000000000045b7       0x2e d:/mplab x ide/xc32_v4.60/bin/bin/../../lib/gcc/pic32c/8.3.1/../../../../pic32c/lib/thumb/v6-m/nofp\libpic32c.a(pic32_data_init_clear.o)
 .debug_abbrev  0x00000000000045e5       0x2e d:/mplab x ide/xc32_v4.60/bin/bin/../../lib/gcc/pic32c/8.3.1/../../../../pic32c/lib/thumb/v6-m/nofp\libpic32c.a(pic32_data_init_copy.o)

.debug_loc      0x0000000000000000     0xc1d5
 .debug_loc     0x0000000000000000      0x7af build/default/production/_ext/1529399856/osal_freertos.o
 .debug_loc     0x00000000000007af      0x14d build/default/production/_ext/60163342/plib_adc0.o
 .debug_loc     0x00000000000008fc      0xc67 build/default/production/_ext/60165182/plib_can1.o
 .debug_loc     0x0000000000001563       0x45 build/default/production/_ext/1984496892/plib_clock.o
 .debug_loc     0x00000000000015a8      0x110 build/default/production/_ext/60167341/plib_eic.o
 .debug_loc     0x00000000000016b8      0x265 build/default/production/_ext/1865468468/plib_nvic.o
 .debug_loc     0x000000000000191d      0x665 build/default/production/_ext/1593096446/plib_nvmctrl.o
 .debug_loc     0x0000000000001f82      0x2bb build/default/production/_ext/1865521619/plib_port.o
 .debug_loc     0x000000000000223d      0x5c8 build/default/production/_ext/17022449/plib_sercom3_spi_master.o
 .debug_loc     0x0000000000002805      0x5c8 build/default/production/_ext/17022449/plib_sercom0_spi_master.o
 .debug_loc     0x0000000000002dcd      0xd8f build/default/production/_ext/504274921/plib_sercom7_usart.o
 .debug_loc     0x0000000000003b5c      0xd8f build/default/production/_ext/504274921/plib_sercom5_usart.o
 .debug_loc     0x00000000000048eb       0x74 build/default/production/_ext/829342655/plib_tc2.o
 .debug_loc     0x000000000000495f       0x74 build/default/production/_ext/829342655/plib_tc4.o
 .debug_loc     0x00000000000049d3      0xb69 build/default/production/_ext/1832805299/sys_console.o
 .debug_loc     0x000000000000553c      0x83c build/default/production/_ext/1832805299/sys_console_uart.o
 .debug_loc     0x0000000000005d78       0xb5 build/default/production/_ext/944882569/sys_debug.o
 .debug_loc     0x0000000000005e2d       0x45 build/default/production/_ext/1171490990/initialization.o
 .debug_loc     0x0000000000005e72       0x40 build/default/production/_ext/1171490990/interrupts.o
 .debug_loc     0x0000000000005eb2       0x20 build/default/production/_ext/1171490990/startup_xc32.o
 .debug_loc     0x0000000000005ed2       0x76 build/default/production/_ext/1171490990/freertos_hooks.o
 .debug_loc     0x0000000000005f48       0x71 build/default/production/_ext/1171490990/tasks.o
 .debug_loc     0x0000000000005fb9      0x44b build/default/production/_ext/1624415188/port.o
 .debug_loc     0x0000000000006404       0xd7 build/default/production/_ext/1665200909/heap_1.o
 .debug_loc     0x00000000000064db       0xa6 build/default/production/_ext/404212886/list.o
 .debug_loc     0x0000000000006581     0x1adc build/default/production/_ext/404212886/queue.o
 .debug_loc     0x000000000000805d     0x2b3a build/default/production/_ext/404212886/FreeRTOS_tasks.o
 .debug_loc     0x000000000000ab97     0x1328 build/default/production/_ext/404212886/timers.o
 .debug_loc     0x000000000000bebf       0x20 build/default/production/_ext/1360937237/main.o
 .debug_loc     0x000000000000bedf       0x16 build/default/production/_ext/1360937237/app.o
 .debug_loc     0x000000000000bef5       0x14 d:/mplab x ide/xc32_v4.60/bin/bin/../../lib/gcc/pic32c/8.3.1/../../../../pic32c/lib/thumb/v6-m/nofp\libpic32c.a(data_init.o)
 .debug_loc     0x000000000000bf09      0x12d d:/mplab x ide/xc32_v4.60/bin/bin/../../lib/gcc/pic32c/8.3.1/../../../../pic32c/lib/thumb/v6-m/nofp\libc-size-musl.a(memcpy.o)
 .debug_loc     0x000000000000c036       0xcd d:/mplab x ide/xc32_v4.60/bin/bin/../../lib/gcc/pic32c/8.3.1/../../../../pic32c/lib/thumb/v6-m/nofp\libc-size-musl.a(memset.o)
 .debug_loc     0x000000000000c103       0x5e d:/mplab x ide/xc32_v4.60/bin/bin/../../lib/gcc/pic32c/8.3.1/../../../../pic32c/lib/thumb/v6-m/nofp\libc-musl.a(__libc_start_main.o)
 .debug_loc     0x000000000000c161       0x40 d:/mplab x ide/xc32_v4.60/bin/bin/../../lib/gcc/pic32c/8.3.1/../../../../pic32c/lib/thumb/v6-m/nofp\libc-musl.a(stdout.o)
 .debug_loc     0x000000000000c1a1       0x20 d:/mplab x ide/xc32_v4.60/bin/bin/../../lib/gcc/pic32c/8.3.1/../../../../pic32c/lib/thumb/v6-m/nofp\libc-musl.a(__init_stdio.o)
 .debug_loc     0x000000000000c1c1       0x14 d:/mplab x ide/xc32_v4.60/bin/bin/../../lib/gcc/pic32c/8.3.1/../../../../pic32c/lib/thumb/v6-m/nofp\libpic32c.a(pic32_data_init_copy.o)

.debug_aranges  0x0000000000000000      0xf88
 .debug_aranges
                0x0000000000000000       0x90 build/default/production/_ext/1529399856/osal_freertos.o
 .debug_aranges
                0x0000000000000090       0x80 build/default/production/_ext/60163342/plib_adc0.o
 .debug_aranges
                0x0000000000000110       0xa0 build/default/production/_ext/60165182/plib_can1.o
 .debug_aranges
                0x00000000000001b0       0x20 build/default/production/_ext/1984496892/plib_clock.o
 .debug_aranges
                0x00000000000001d0       0x40 build/default/production/_ext/60167341/plib_eic.o
 .debug_aranges
                0x0000000000000210       0x20 build/default/production/_ext/1986646378/plib_evsys.o
 .debug_aranges
                0x0000000000000230       0x48 build/default/production/_ext/1865468468/plib_nvic.o
 .debug_aranges
                0x0000000000000278       0xa0 build/default/production/_ext/1593096446/plib_nvmctrl.o
 .debug_aranges
                0x0000000000000318       0x70 build/default/production/_ext/1865521619/plib_port.o
 .debug_aranges
                0x0000000000000388       0x48 build/default/production/_ext/17022449/plib_sercom3_spi_master.o
 .debug_aranges
                0x00000000000003d0       0x48 build/default/production/_ext/17022449/plib_sercom0_spi_master.o
 .debug_aranges
                0x0000000000000418       0xe8 build/default/production/_ext/504274921/plib_sercom7_usart.o
 .debug_aranges
                0x0000000000000500       0xe8 build/default/production/_ext/504274921/plib_sercom5_usart.o
 .debug_aranges
                0x00000000000005e8       0x70 build/default/production/_ext/829342655/plib_tc2.o
 .debug_aranges
                0x0000000000000658       0x70 build/default/production/_ext/829342655/plib_tc4.o
 .debug_aranges
                0x00000000000006c8       0x88 build/default/production/_ext/1832805299/sys_console.o
 .debug_aranges
                0x0000000000000750       0x70 build/default/production/_ext/1832805299/sys_console_uart.o
 .debug_aranges
                0x00000000000007c0       0x48 build/default/production/_ext/944882569/sys_debug.o
 .debug_aranges
                0x0000000000000808       0x20 build/default/production/_ext/1171490990/initialization.o
 .debug_aranges
                0x0000000000000828       0x30 build/default/production/_ext/1171490990/interrupts.o
 .debug_aranges
                0x0000000000000858       0x28 build/default/production/_ext/1171490990/exceptions.o
 .debug_aranges
                0x0000000000000880       0x28 build/default/production/_ext/1171490990/startup_xc32.o
 .debug_aranges
                0x00000000000008a8       0x40 build/default/production/_ext/1171490990/freertos_hooks.o
 .debug_aranges
                0x00000000000008e8       0x28 build/default/production/_ext/1171490990/tasks.o
 .debug_aranges
                0x0000000000000910       0x70 build/default/production/_ext/1624415188/port.o
 .debug_aranges
                0x0000000000000980       0x60 build/default/production/_ext/1624415188/portasm.o
 .debug_aranges
                0x00000000000009e0       0x40 build/default/production/_ext/1665200909/heap_1.o
 .debug_aranges
                0x0000000000000a20       0x40 build/default/production/_ext/404212886/list.o
 .debug_aranges
                0x0000000000000a60       0xe0 build/default/production/_ext/404212886/queue.o
 .debug_aranges
                0x0000000000000b40      0x1b0 build/default/production/_ext/404212886/FreeRTOS_tasks.o
 .debug_aranges
                0x0000000000000cf0       0xd0 build/default/production/_ext/404212886/timers.o
 .debug_aranges
                0x0000000000000dc0       0x20 build/default/production/_ext/1360937237/main.o
 .debug_aranges
                0x0000000000000de0       0x28 build/default/production/_ext/1360937237/app.o
 .debug_aranges
                0x0000000000000e08       0x20 build/default/production/_ext/1360937237/freertos_daemon.o
 .debug_aranges
                0x0000000000000e28       0x30 d:/mplab x ide/xc32_v4.60/bin/bin/../../lib/gcc/pic32c/8.3.1/../../../../pic32c/lib/thumb/v6-m/nofp\libpic32c.a(data_init.o)
 .debug_aranges
                0x0000000000000e58       0x20 d:/mplab x ide/xc32_v4.60/bin/bin/../../lib/gcc/pic32c/8.3.1/../../../../pic32c/lib/thumb/v6-m/nofp\libc-size-musl.a(memcpy.o)
 .debug_aranges
                0x0000000000000e78       0x20 d:/mplab x ide/xc32_v4.60/bin/bin/../../lib/gcc/pic32c/8.3.1/../../../../pic32c/lib/thumb/v6-m/nofp\libc-size-musl.a(memset.o)
 .debug_aranges
                0x0000000000000e98       0x28 d:/mplab x ide/xc32_v4.60/bin/bin/../../lib/gcc/pic32c/8.3.1/../../../../pic32c/lib/thumb/v6-m/nofp\libc-musl.a(__libc_start_main.o)
 .debug_aranges
                0x0000000000000ec0       0x18 d:/mplab x ide/xc32_v4.60/bin/bin/../../lib/gcc/pic32c/8.3.1/../../../../pic32c/lib/thumb/v6-m/nofp\libc-musl.a(libc.o)
 .debug_aranges
                0x0000000000000ed8       0x18 d:/mplab x ide/xc32_v4.60/bin/bin/../../lib/gcc/pic32c/8.3.1/../../../../pic32c/lib/thumb/v6-m/nofp\libc-musl.a(__environ.o)
 .debug_aranges
                0x0000000000000ef0       0x30 d:/mplab x ide/xc32_v4.60/bin/bin/../../lib/gcc/pic32c/8.3.1/../../../../pic32c/lib/thumb/v6-m/nofp\libc-musl.a(stdout.o)
 .debug_aranges
                0x0000000000000f20       0x28 d:/mplab x ide/xc32_v4.60/bin/bin/../../lib/gcc/pic32c/8.3.1/../../../../pic32c/lib/thumb/v6-m/nofp\libc-musl.a(__init_stdio.o)
 .debug_aranges
                0x0000000000000f48       0x20 d:/mplab x ide/xc32_v4.60/bin/bin/../../lib/gcc/pic32c/8.3.1/../../../../pic32c/lib/thumb/v6-m/nofp\libpic32c.a(pic32_data_init_clear.o)
 .debug_aranges
                0x0000000000000f68       0x20 d:/mplab x ide/xc32_v4.60/bin/bin/../../lib/gcc/pic32c/8.3.1/../../../../pic32c/lib/thumb/v6-m/nofp\libpic32c.a(pic32_data_init_copy.o)

.debug_ranges   0x0000000000000000     0x1358
 .debug_ranges  0x0000000000000000       0x80 build/default/production/_ext/1529399856/osal_freertos.o
 .debug_ranges  0x0000000000000080       0x70 build/default/production/_ext/60163342/plib_adc0.o
 .debug_ranges  0x00000000000000f0       0x90 build/default/production/_ext/60165182/plib_can1.o
 .debug_ranges  0x0000000000000180       0x10 build/default/production/_ext/1984496892/plib_clock.o
 .debug_ranges  0x0000000000000190       0x30 build/default/production/_ext/60167341/plib_eic.o
 .debug_ranges  0x00000000000001c0       0x10 build/default/production/_ext/1986646378/plib_evsys.o
 .debug_ranges  0x00000000000001d0       0x50 build/default/production/_ext/1865468468/plib_nvic.o
 .debug_ranges  0x0000000000000220       0x90 build/default/production/_ext/1593096446/plib_nvmctrl.o
 .debug_ranges  0x00000000000002b0       0x60 build/default/production/_ext/1865521619/plib_port.o
 .debug_ranges  0x0000000000000310       0x38 build/default/production/_ext/17022449/plib_sercom3_spi_master.o
 .debug_ranges  0x0000000000000348       0x38 build/default/production/_ext/17022449/plib_sercom0_spi_master.o
 .debug_ranges  0x0000000000000380      0x1e8 build/default/production/_ext/504274921/plib_sercom7_usart.o
 .debug_ranges  0x0000000000000568      0x1e8 build/default/production/_ext/504274921/plib_sercom5_usart.o
 .debug_ranges  0x0000000000000750       0x60 build/default/production/_ext/829342655/plib_tc2.o
 .debug_ranges  0x00000000000007b0       0x60 build/default/production/_ext/829342655/plib_tc4.o
 .debug_ranges  0x0000000000000810       0x78 build/default/production/_ext/1832805299/sys_console.o
 .debug_ranges  0x0000000000000888       0x60 build/default/production/_ext/1832805299/sys_console_uart.o
 .debug_ranges  0x00000000000008e8       0x38 build/default/production/_ext/944882569/sys_debug.o
 .debug_ranges  0x0000000000000920       0x10 build/default/production/_ext/1171490990/initialization.o
 .debug_ranges  0x0000000000000930       0x20 build/default/production/_ext/1171490990/interrupts.o
 .debug_ranges  0x0000000000000950       0x18 build/default/production/_ext/1171490990/exceptions.o
 .debug_ranges  0x0000000000000968       0x18 build/default/production/_ext/1171490990/startup_xc32.o
 .debug_ranges  0x0000000000000980       0x30 build/default/production/_ext/1171490990/freertos_hooks.o
 .debug_ranges  0x00000000000009b0       0x18 build/default/production/_ext/1171490990/tasks.o
 .debug_ranges  0x00000000000009c8       0x60 build/default/production/_ext/1624415188/port.o
 .debug_ranges  0x0000000000000a28       0x50 build/default/production/_ext/1624415188/portasm.o
 .debug_ranges  0x0000000000000a78       0x48 build/default/production/_ext/1665200909/heap_1.o
 .debug_ranges  0x0000000000000ac0       0x30 build/default/production/_ext/404212886/list.o
 .debug_ranges  0x0000000000000af0      0x208 build/default/production/_ext/404212886/queue.o
 .debug_ranges  0x0000000000000cf8      0x438 build/default/production/_ext/404212886/FreeRTOS_tasks.o
 .debug_ranges  0x0000000000001130      0x128 build/default/production/_ext/404212886/timers.o
 .debug_ranges  0x0000000000001258       0x10 build/default/production/_ext/1360937237/main.o
 .debug_ranges  0x0000000000001268       0x18 build/default/production/_ext/1360937237/app.o
 .debug_ranges  0x0000000000001280       0x10 build/default/production/_ext/1360937237/freertos_daemon.o
 .debug_ranges  0x0000000000001290       0x20 d:/mplab x ide/xc32_v4.60/bin/bin/../../lib/gcc/pic32c/8.3.1/../../../../pic32c/lib/thumb/v6-m/nofp\libpic32c.a(data_init.o)
 .debug_ranges  0x00000000000012b0       0x10 d:/mplab x ide/xc32_v4.60/bin/bin/../../lib/gcc/pic32c/8.3.1/../../../../pic32c/lib/thumb/v6-m/nofp\libc-size-musl.a(memcpy.o)
 .debug_ranges  0x00000000000012c0       0x10 d:/mplab x ide/xc32_v4.60/bin/bin/../../lib/gcc/pic32c/8.3.1/../../../../pic32c/lib/thumb/v6-m/nofp\libc-size-musl.a(memset.o)
 .debug_ranges  0x00000000000012d0       0x30 d:/mplab x ide/xc32_v4.60/bin/bin/../../lib/gcc/pic32c/8.3.1/../../../../pic32c/lib/thumb/v6-m/nofp\libc-musl.a(__libc_start_main.o)
 .debug_ranges  0x0000000000001300       0x20 d:/mplab x ide/xc32_v4.60/bin/bin/../../lib/gcc/pic32c/8.3.1/../../../../pic32c/lib/thumb/v6-m/nofp\libc-musl.a(stdout.o)
 .debug_ranges  0x0000000000001320       0x18 d:/mplab x ide/xc32_v4.60/bin/bin/../../lib/gcc/pic32c/8.3.1/../../../../pic32c/lib/thumb/v6-m/nofp\libc-musl.a(__init_stdio.o)
 .debug_ranges  0x0000000000001338       0x10 d:/mplab x ide/xc32_v4.60/bin/bin/../../lib/gcc/pic32c/8.3.1/../../../../pic32c/lib/thumb/v6-m/nofp\libpic32c.a(pic32_data_init_clear.o)
 .debug_ranges  0x0000000000001348       0x10 d:/mplab x ide/xc32_v4.60/bin/bin/../../lib/gcc/pic32c/8.3.1/../../../../pic32c/lib/thumb/v6-m/nofp\libpic32c.a(pic32_data_init_copy.o)

.debug_line     0x0000000000000000     0xb0d3
 .debug_line    0x0000000000000000      0x49e build/default/production/_ext/1529399856/osal_freertos.o
 .debug_line    0x000000000000049e      0x38e build/default/production/_ext/60163342/plib_adc0.o
 .debug_line    0x000000000000082c      0x78e build/default/production/_ext/60165182/plib_can1.o
 .debug_line    0x0000000000000fba      0x3ca build/default/production/_ext/1984496892/plib_clock.o
 .debug_line    0x0000000000001384      0x2bd build/default/production/_ext/60167341/plib_eic.o
 .debug_line    0x0000000000001641       0x66 build/default/production/_ext/1986646378/plib_evsys.o
 .debug_line    0x00000000000016a7      0x48c build/default/production/_ext/1865468468/plib_nvic.o
 .debug_line    0x0000000000001b33      0x442 build/default/production/_ext/1593096446/plib_nvmctrl.o
 .debug_line    0x0000000000001f75      0x478 build/default/production/_ext/1865521619/plib_port.o
 .debug_line    0x00000000000023ed      0x4b5 build/default/production/_ext/17022449/plib_sercom3_spi_master.o
 .debug_line    0x00000000000028a2      0x4b5 build/default/production/_ext/17022449/plib_sercom0_spi_master.o
 .debug_line    0x0000000000002d57      0xd09 build/default/production/_ext/504274921/plib_sercom7_usart.o
 .debug_line    0x0000000000003a60      0xd0b build/default/production/_ext/504274921/plib_sercom5_usart.o
 .debug_line    0x000000000000476b      0x337 build/default/production/_ext/829342655/plib_tc2.o
 .debug_line    0x0000000000004aa2      0x337 build/default/production/_ext/829342655/plib_tc4.o
 .debug_line    0x0000000000004dd9      0x690 build/default/production/_ext/1832805299/sys_console.o
 .debug_line    0x0000000000005469      0x4f6 build/default/production/_ext/1832805299/sys_console_uart.o
 .debug_line    0x000000000000595f      0x1e5 build/default/production/_ext/944882569/sys_debug.o
 .debug_line    0x0000000000005b44      0x4f4 build/default/production/_ext/1171490990/initialization.o
 .debug_line    0x0000000000006038       0xf0 build/default/production/_ext/1171490990/interrupts.o
 .debug_line    0x0000000000006128       0x6f build/default/production/_ext/1171490990/exceptions.o
 .debug_line    0x0000000000006197      0x13f build/default/production/_ext/1171490990/startup_xc32.o
 .debug_line    0x00000000000062d6      0x15d build/default/production/_ext/1171490990/freertos_hooks.o
 .debug_line    0x0000000000006433      0x126 build/default/production/_ext/1171490990/tasks.o
 .debug_line    0x0000000000006559      0x3aa build/default/production/_ext/1624415188/port.o
 .debug_line    0x0000000000006903      0x1a9 build/default/production/_ext/1624415188/portasm.o
 .debug_line    0x0000000000006aac      0x247 build/default/production/_ext/1665200909/heap_1.o
 .debug_line    0x0000000000006cf3      0x2e6 build/default/production/_ext/404212886/list.o
 .debug_line    0x0000000000006fd9      0xf61 build/default/production/_ext/404212886/queue.o
 .debug_line    0x0000000000007f3a     0x1caf build/default/production/_ext/404212886/FreeRTOS_tasks.o
 .debug_line    0x0000000000009be9      0x967 build/default/production/_ext/404212886/timers.o
 .debug_line    0x000000000000a550       0x6d build/default/production/_ext/1360937237/main.o
 .debug_line    0x000000000000a5bd       0x80 build/default/production/_ext/1360937237/app.o
 .debug_line    0x000000000000a63d      0x15c build/default/production/_ext/1360937237/freertos_daemon.o
 .debug_line    0x000000000000a799       0xa5 d:/mplab x ide/xc32_v4.60/bin/bin/../../lib/gcc/pic32c/8.3.1/../../../../pic32c/lib/thumb/v6-m/nofp\libpic32c.a(data_init.o)
 .debug_line    0x000000000000a83e       0xee d:/mplab x ide/xc32_v4.60/bin/bin/../../lib/gcc/pic32c/8.3.1/../../../../pic32c/lib/thumb/v6-m/nofp\libc-size-musl.a(memcpy.o)
 .debug_line    0x000000000000a92c       0xe3 d:/mplab x ide/xc32_v4.60/bin/bin/../../lib/gcc/pic32c/8.3.1/../../../../pic32c/lib/thumb/v6-m/nofp\libc-size-musl.a(memset.o)
 .debug_line    0x000000000000aa0f      0x1bc d:/mplab x ide/xc32_v4.60/bin/bin/../../lib/gcc/pic32c/8.3.1/../../../../pic32c/lib/thumb/v6-m/nofp\libc-musl.a(__libc_start_main.o)
 .debug_line    0x000000000000abcb       0xb5 d:/mplab x ide/xc32_v4.60/bin/bin/../../lib/gcc/pic32c/8.3.1/../../../../pic32c/lib/thumb/v6-m/nofp\libc-musl.a(libc.o)
 .debug_line    0x000000000000ac80       0xfb d:/mplab x ide/xc32_v4.60/bin/bin/../../lib/gcc/pic32c/8.3.1/../../../../pic32c/lib/thumb/v6-m/nofp\libc-musl.a(__environ.o)
 .debug_line    0x000000000000ad7b      0x191 d:/mplab x ide/xc32_v4.60/bin/bin/../../lib/gcc/pic32c/8.3.1/../../../../pic32c/lib/thumb/v6-m/nofp\libc-musl.a(stdout.o)
 .debug_line    0x000000000000af0c       0xd0 d:/mplab x ide/xc32_v4.60/bin/bin/../../lib/gcc/pic32c/8.3.1/../../../../pic32c/lib/thumb/v6-m/nofp\libc-musl.a(__init_stdio.o)
 .debug_line    0x000000000000afdc       0x6f d:/mplab x ide/xc32_v4.60/bin/bin/../../lib/gcc/pic32c/8.3.1/../../../../pic32c/lib/thumb/v6-m/nofp\libpic32c.a(pic32_data_init_clear.o)
 .debug_line    0x000000000000b04b       0x88 d:/mplab x ide/xc32_v4.60/bin/bin/../../lib/gcc/pic32c/8.3.1/../../../../pic32c/lib/thumb/v6-m/nofp\libpic32c.a(pic32_data_init_copy.o)

.debug_str      0x0000000000000000    0x110ec
 .debug_str     0x0000000000000000      0x698 build/default/production/_ext/1529399856/osal_freertos.o
 .debug_str     0x0000000000000698      0x815 build/default/production/_ext/60163342/plib_adc0.o
 .debug_str     0x0000000000000ead      0xe3d build/default/production/_ext/60165182/plib_can1.o
 .debug_str     0x0000000000001cea      0x684 build/default/production/_ext/1984496892/plib_clock.o
 .debug_str     0x000000000000236e      0x44a build/default/production/_ext/60167341/plib_eic.o
 .debug_str     0x00000000000027b8      0x2ad build/default/production/_ext/1986646378/plib_evsys.o
 .debug_str     0x0000000000002a65      0x676 build/default/production/_ext/1865468468/plib_nvic.o
 .debug_str     0x00000000000030db      0x591 build/default/production/_ext/1593096446/plib_nvmctrl.o
 .debug_str     0x000000000000366c      0xa1f build/default/production/_ext/1865521619/plib_port.o
 .debug_str     0x000000000000408b      0x709 build/default/production/_ext/17022449/plib_sercom3_spi_master.o
 .debug_str     0x0000000000004794      0x709 build/default/production/_ext/17022449/plib_sercom0_spi_master.o
 .debug_str     0x0000000000004e9d      0xd8b build/default/production/_ext/504274921/plib_sercom7_usart.o
 .debug_str     0x0000000000005c28      0xd8b build/default/production/_ext/504274921/plib_sercom5_usart.o
 .debug_str     0x00000000000069b3      0x5ca build/default/production/_ext/829342655/plib_tc2.o
 .debug_str     0x0000000000006f7d      0x5ca build/default/production/_ext/829342655/plib_tc4.o
 .debug_str     0x0000000000007547      0xa67 build/default/production/_ext/1832805299/sys_console.o
 .debug_str     0x0000000000007fae      0xa80 build/default/production/_ext/1832805299/sys_console_uart.o
 .debug_str     0x0000000000008a2e      0x4bc build/default/production/_ext/944882569/sys_debug.o
 .debug_str     0x0000000000008eea      0xac9 build/default/production/_ext/1171490990/initialization.o
 .debug_str     0x00000000000099b3      0x661 build/default/production/_ext/1171490990/interrupts.o
 .debug_str     0x000000000000a014      0x2c0 build/default/production/_ext/1171490990/exceptions.o
 .debug_str     0x000000000000a2d4      0x326 build/default/production/_ext/1171490990/startup_xc32.o
 .debug_str     0x000000000000a5fa      0x367 build/default/production/_ext/1171490990/freertos_hooks.o
 .debug_str     0x000000000000a961      0x32b build/default/production/_ext/1171490990/tasks.o
 .debug_str     0x000000000000ac8c      0x4c5 build/default/production/_ext/1624415188/port.o
 .debug_str     0x000000000000b151      0x368 build/default/production/_ext/1624415188/portasm.o
 .debug_str     0x000000000000b4b9      0x3a5 build/default/production/_ext/1665200909/heap_1.o
 .debug_str     0x000000000000b85e      0x3da build/default/production/_ext/404212886/list.o
 .debug_str     0x000000000000bc38      0xb03 build/default/production/_ext/404212886/queue.o
 .debug_str     0x000000000000c73b     0x11a6 build/default/production/_ext/404212886/FreeRTOS_tasks.o
 .debug_str     0x000000000000d8e1      0xaae build/default/production/_ext/404212886/timers.o
 .debug_str     0x000000000000e38f      0x2a0 build/default/production/_ext/1360937237/main.o
 .debug_str     0x000000000000e62f      0x2ec build/default/production/_ext/1360937237/app.o
 .debug_str     0x000000000000e91b      0xf21 build/default/production/_ext/1360937237/freertos_daemon.o
 .debug_str     0x000000000000f83c      0x1fc d:/mplab x ide/xc32_v4.60/bin/bin/../../lib/gcc/pic32c/8.3.1/../../../../pic32c/lib/thumb/v6-m/nofp\libpic32c.a(data_init.o)
 .debug_str     0x000000000000fa38      0x225 d:/mplab x ide/xc32_v4.60/bin/bin/../../lib/gcc/pic32c/8.3.1/../../../../pic32c/lib/thumb/v6-m/nofp\libc-size-musl.a(memcpy.o)
 .debug_str     0x000000000000fc5d      0x211 d:/mplab x ide/xc32_v4.60/bin/bin/../../lib/gcc/pic32c/8.3.1/../../../../pic32c/lib/thumb/v6-m/nofp\libc-size-musl.a(memset.o)
 .debug_str     0x000000000000fe6e      0x3ca d:/mplab x ide/xc32_v4.60/bin/bin/../../lib/gcc/pic32c/8.3.1/../../../../pic32c/lib/thumb/v6-m/nofp\libc-musl.a(__libc_start_main.o)
 .debug_str     0x0000000000010238      0x335 d:/mplab x ide/xc32_v4.60/bin/bin/../../lib/gcc/pic32c/8.3.1/../../../../pic32c/lib/thumb/v6-m/nofp\libc-musl.a(libc.o)
 .debug_str     0x000000000001056d      0x235 d:/mplab x ide/xc32_v4.60/bin/bin/../../lib/gcc/pic32c/8.3.1/../../../../pic32c/lib/thumb/v6-m/nofp\libc-musl.a(__environ.o)
 .debug_str     0x00000000000107a2      0x308 d:/mplab x ide/xc32_v4.60/bin/bin/../../lib/gcc/pic32c/8.3.1/../../../../pic32c/lib/thumb/v6-m/nofp\libc-musl.a(stdout.o)
 .debug_str     0x0000000000010aaa      0x29a d:/mplab x ide/xc32_v4.60/bin/bin/../../lib/gcc/pic32c/8.3.1/../../../../pic32c/lib/thumb/v6-m/nofp\libc-musl.a(__init_stdio.o)
 .debug_str     0x0000000000010d44      0x1d5 d:/mplab x ide/xc32_v4.60/bin/bin/../../lib/gcc/pic32c/8.3.1/../../../../pic32c/lib/thumb/v6-m/nofp\libpic32c.a(pic32_data_init_clear.o)
 .debug_str     0x0000000000010f19      0x1d3 d:/mplab x ide/xc32_v4.60/bin/bin/../../lib/gcc/pic32c/8.3.1/../../../../pic32c/lib/thumb/v6-m/nofp\libpic32c.a(pic32_data_init_copy.o)

.debug_frame    0x0000000000000000     0x2194
 .debug_frame   0x0000000000000000      0x174 build/default/production/_ext/1529399856/osal_freertos.o
 .debug_frame   0x0000000000000174       0xe0 build/default/production/_ext/60163342/plib_adc0.o
 .debug_frame   0x0000000000000254      0x174 build/default/production/_ext/60165182/plib_can1.o
 .debug_frame   0x00000000000003c8       0x20 build/default/production/_ext/1984496892/plib_clock.o
 .debug_frame   0x00000000000003e8       0x84 build/default/production/_ext/60167341/plib_eic.o
 .debug_frame   0x000000000000046c       0x20 build/default/production/_ext/1986646378/plib_evsys.o
 .debug_frame   0x000000000000048c       0x84 build/default/production/_ext/1865468468/plib_nvic.o
 .debug_frame   0x0000000000000510      0x148 build/default/production/_ext/1593096446/plib_nvmctrl.o
 .debug_frame   0x0000000000000658       0xe8 build/default/production/_ext/1865521619/plib_port.o
 .debug_frame   0x0000000000000740       0xa8 build/default/production/_ext/17022449/plib_sercom3_spi_master.o
 .debug_frame   0x00000000000007e8       0xa8 build/default/production/_ext/17022449/plib_sercom0_spi_master.o
 .debug_frame   0x0000000000000890      0x250 build/default/production/_ext/504274921/plib_sercom7_usart.o
 .debug_frame   0x0000000000000ae0      0x250 build/default/production/_ext/504274921/plib_sercom5_usart.o
 .debug_frame   0x0000000000000d30       0xc8 build/default/production/_ext/829342655/plib_tc2.o
 .debug_frame   0x0000000000000df8       0xc8 build/default/production/_ext/829342655/plib_tc4.o
 .debug_frame   0x0000000000000ec0      0x15c build/default/production/_ext/1832805299/sys_console.o
 .debug_frame   0x000000000000101c      0x118 build/default/production/_ext/1832805299/sys_console_uart.o
 .debug_frame   0x0000000000001134       0x70 build/default/production/_ext/944882569/sys_debug.o
 .debug_frame   0x00000000000011a4       0x28 build/default/production/_ext/1171490990/initialization.o
 .debug_frame   0x00000000000011cc       0x50 build/default/production/_ext/1171490990/interrupts.o
 .debug_frame   0x000000000000121c       0x30 build/default/production/_ext/1171490990/exceptions.o
 .debug_frame   0x000000000000124c       0x38 build/default/production/_ext/1171490990/startup_xc32.o
 .debug_frame   0x0000000000001284       0x68 build/default/production/_ext/1171490990/freertos_hooks.o
 .debug_frame   0x00000000000012ec       0x40 build/default/production/_ext/1171490990/tasks.o
 .debug_frame   0x000000000000132c       0xe4 build/default/production/_ext/1624415188/port.o
 .debug_frame   0x0000000000001410       0xa0 build/default/production/_ext/1624415188/portasm.o
 .debug_frame   0x00000000000014b0       0x6c build/default/production/_ext/1665200909/heap_1.o
 .debug_frame   0x000000000000151c       0x6c build/default/production/_ext/404212886/list.o
 .debug_frame   0x0000000000001588      0x2ac build/default/production/_ext/404212886/queue.o
 .debug_frame   0x0000000000001834      0x4fc build/default/production/_ext/404212886/FreeRTOS_tasks.o
 .debug_frame   0x0000000000001d30      0x254 build/default/production/_ext/404212886/timers.o
 .debug_frame   0x0000000000001f84       0x28 build/default/production/_ext/1360937237/main.o
 .debug_frame   0x0000000000001fac       0x30 build/default/production/_ext/1360937237/app.o
 .debug_frame   0x0000000000001fdc       0x20 build/default/production/_ext/1360937237/freertos_daemon.o
 .debug_frame   0x0000000000001ffc       0x48 d:/mplab x ide/xc32_v4.60/bin/bin/../../lib/gcc/pic32c/8.3.1/../../../../pic32c/lib/thumb/v6-m/nofp\libpic32c.a(data_init.o)
 .debug_frame   0x0000000000002044       0x28 d:/mplab x ide/xc32_v4.60/bin/bin/../../lib/gcc/pic32c/8.3.1/../../../../pic32c/lib/thumb/v6-m/nofp\libc-size-musl.a(memcpy.o)
 .debug_frame   0x000000000000206c       0x20 d:/mplab x ide/xc32_v4.60/bin/bin/../../lib/gcc/pic32c/8.3.1/../../../../pic32c/lib/thumb/v6-m/nofp\libc-size-musl.a(memset.o)
 .debug_frame   0x000000000000208c       0x38 d:/mplab x ide/xc32_v4.60/bin/bin/../../lib/gcc/pic32c/8.3.1/../../../../pic32c/lib/thumb/v6-m/nofp\libc-musl.a(__libc_start_main.o)
 .debug_frame   0x00000000000020c4       0x50 d:/mplab x ide/xc32_v4.60/bin/bin/../../lib/gcc/pic32c/8.3.1/../../../../pic32c/lib/thumb/v6-m/nofp\libc-musl.a(stdout.o)
 .debug_frame   0x0000000000002114       0x38 d:/mplab x ide/xc32_v4.60/bin/bin/../../lib/gcc/pic32c/8.3.1/../../../../pic32c/lib/thumb/v6-m/nofp\libc-musl.a(__init_stdio.o)
 .debug_frame   0x000000000000214c       0x20 d:/mplab x ide/xc32_v4.60/bin/bin/../../lib/gcc/pic32c/8.3.1/../../../../pic32c/lib/thumb/v6-m/nofp\libpic32c.a(pic32_data_init_clear.o)
 .debug_frame   0x000000000000216c       0x28 d:/mplab x ide/xc32_v4.60/bin/bin/../../lib/gcc/pic32c/8.3.1/../../../../pic32c/lib/thumb/v6-m/nofp\libpic32c.a(pic32_data_init_copy.o)

.note.GNU-stack
                0x0000000000000000        0x0
 .note.GNU-stack
                0x0000000000000000        0x0 d:/mplab x ide/xc32_v4.60/bin/bin/../../lib/gcc/pic32c/8.3.1/../../../../pic32c/lib/thumb/v6-m/nofp\libc-size-musl.a(memcpy.o)
 .note.GNU-stack
                0x0000000000000000        0x0 d:/mplab x ide/xc32_v4.60/bin/bin/../../lib/gcc/pic32c/8.3.1/../../../../pic32c/lib/thumb/v6-m/nofp\libc-size-musl.a(memset.o)
 .note.GNU-stack
                0x0000000000000000        0x0 d:/mplab x ide/xc32_v4.60/bin/bin/../../lib/gcc/pic32c/8.3.1/../../../../pic32c/lib/thumb/v6-m/nofp\libc-musl.a(__libc_start_main.o)
 .note.GNU-stack
                0x0000000000000000        0x0 d:/mplab x ide/xc32_v4.60/bin/bin/../../lib/gcc/pic32c/8.3.1/../../../../pic32c/lib/thumb/v6-m/nofp\libc-musl.a(libc.o)
 .note.GNU-stack
                0x0000000000000000        0x0 d:/mplab x ide/xc32_v4.60/bin/bin/../../lib/gcc/pic32c/8.3.1/../../../../pic32c/lib/thumb/v6-m/nofp\libc-musl.a(__environ.o)
 .note.GNU-stack
                0x0000000000000000        0x0 d:/mplab x ide/xc32_v4.60/bin/bin/../../lib/gcc/pic32c/8.3.1/../../../../pic32c/lib/thumb/v6-m/nofp\libc-musl.a(stdout.o)
 .note.GNU-stack
                0x0000000000000000        0x0 d:/mplab x ide/xc32_v4.60/bin/bin/../../lib/gcc/pic32c/8.3.1/../../../../pic32c/lib/thumb/v6-m/nofp\libc-musl.a(__init_stdio.o)

__xc_reference_data
                0x0000000000000000       0x28
 __xc_reference_data
                0x0000000000000000        0x8 d:/mplab x ide/xc32_v4.60/bin/bin/../../lib/gcc/pic32c/8.3.1/../../../../pic32c/lib/thumb/v6-m/nofp\libc-musl.a(stdout.o)
                0x0000000000000000                __stdout_needs_init
 __xc_reference_data
                0x0000000000000008       0x14 d:/mplab x ide/xc32_v4.60/bin/bin/../../lib/gcc/pic32c/8.3.1/../../../../pic32c/lib/thumb/v6-m/nofp\libc-musl.a(__io_init_needed.o)
                0x0000000000000008                __io_init_needed
                0x0000000000000014                __io_init_needs_file
 __xc_reference_data
                0x000000000000001c        0xc d:/mplab x ide/xc32_v4.60/bin/bin/../../lib/gcc/pic32c/8.3.1/../../../../pic32c/lib/thumb/v6-m/nofp\libc-musl.a(__io_file_needed.o)
                0x000000000000001c                __io_file_needed

.stack          0x00000000200048b0      0x100
 .stack         0x00000000200048b0      0x100 stack

.bss.ucHeap%1   0x0000000020000014     0x4000
 .bss.ucHeap    0x0000000020000014     0x4000 build/default/production/_ext/1665200909/heap_1.o

.bss.SERCOM5_USART_ReadBuffer%2
                0x0000000020004014      0x100
 .bss.SERCOM5_USART_ReadBuffer
                0x0000000020004014      0x100 build/default/production/_ext/504274921/plib_sercom5_usart.o

.bss.SERCOM5_USART_WriteBuffer%3
                0x0000000020004114      0x100
 .bss.SERCOM5_USART_WriteBuffer
                0x0000000020004114      0x100 build/default/production/_ext/504274921/plib_sercom5_usart.o

.bss.eicCallbackObject%4
                0x0000000020004214       0xc0
 .bss.eicCallbackObject
                0x0000000020004214       0xc0 build/default/production/_ext/60167341/plib_eic.o

.bss.SERCOM7_USART_ReadBuffer%5
                0x00000000200042d4       0x80
 .bss.SERCOM7_USART_ReadBuffer
                0x00000000200042d4       0x80 build/default/production/_ext/504274921/plib_sercom7_usart.o

.bss.SERCOM7_USART_WriteBuffer%6
                0x0000000020004354       0x80
 .bss.SERCOM7_USART_WriteBuffer
                0x0000000020004354       0x80 build/default/production/_ext/504274921/plib_sercom7_usart.o

.bss.pxReadyTasksLists%7
                0x00000000200043d4       0x64
 .bss.pxReadyTasksLists
                0x00000000200043d4       0x64 build/default/production/_ext/404212886/FreeRTOS_tasks.o

.bss%8          0x0000000020004438       0x50
 .bss           0x0000000020004438       0x50 d:/mplab x ide/xc32_v4.60/bin/bin/../../lib/gcc/pic32c/8.3.1/../../../../pic32c/lib/thumb/v6-m/nofp\libc-musl.a(libc.o)
                0x0000000020004438                __progname_full
                0x0000000020004438                program_invocation_name
                0x000000002000443c                program_invocation_short_name
                0x000000002000443c                __progname
                0x0000000020004440                __sysinfo
                0x0000000020004444                __hwcap
                0x0000000020004448                __libc

.bss.sercom7USARTObj%9
                0x0000000020004488       0x40
 .bss.sercom7USARTObj
                0x0000000020004488       0x40 build/default/production/_ext/504274921/plib_sercom7_usart.o

.bss.sercom5USARTObj%10
                0x00000000200044c8       0x40
 .bss.sercom5USARTObj
                0x00000000200044c8       0x40 build/default/production/_ext/504274921/plib_sercom5_usart.o

.bss%11         0x0000000020004508       0x1c
 .bss           0x0000000020004508       0x1c d:/mplab x ide/xc32_v4.60/bin/bin/../../lib/gcc/pic32c/8.3.1/thumb/v6-m/nofp/crtbegin.o

.bss.can1Obj%12
                0x0000000020004524       0x1c
 .bss.can1Obj   0x0000000020004524       0x1c build/default/production/_ext/60165182/plib_can1.o

.bss.xDelayedTaskList1%13
                0x0000000020004540       0x14
 .bss.xDelayedTaskList1
                0x0000000020004540       0x14 build/default/production/_ext/404212886/FreeRTOS_tasks.o

.bss.xDelayedTaskList2%14
                0x0000000020004554       0x14
 .bss.xDelayedTaskList2
                0x0000000020004554       0x14 build/default/production/_ext/404212886/FreeRTOS_tasks.o

.bss.xPendingReadyList%15
                0x0000000020004568       0x14
 .bss.xPendingReadyList
                0x0000000020004568       0x14 build/default/production/_ext/404212886/FreeRTOS_tasks.o

.bss.xSuspendedTaskList%16
                0x000000002000457c       0x14
 .bss.xSuspendedTaskList
                0x000000002000457c       0x14 build/default/production/_ext/404212886/FreeRTOS_tasks.o

.bss.xTasksWaitingTermination%17
                0x0000000020004590       0x14
 .bss.xTasksWaitingTermination
                0x0000000020004590       0x14 build/default/production/_ext/404212886/FreeRTOS_tasks.o

.bss.xActiveTimerList1%18
                0x00000000200045a4       0x14
 .bss.xActiveTimerList1
                0x00000000200045a4       0x14 build/default/production/_ext/404212886/timers.o

.bss.xActiveTimerList2%19
                0x00000000200045b8       0x14
 .bss.xActiveTimerList2
                0x00000000200045b8       0x14 build/default/production/_ext/404212886/timers.o

.bss.consoleDeviceInstance%20
                0x00000000200045cc        0xc
 .bss.consoleDeviceInstance
                0x00000000200045cc        0xc build/default/production/_ext/1832805299/sys_console.o

.bss.gConsoleUartData%21
                0x00000000200045d8        0xc
 .bss.gConsoleUartData
                0x00000000200045d8        0xc build/default/production/_ext/1832805299/sys_console_uart.o

.bss.TC2_CallbackObject%22
                0x00000000200045e4        0x8
 .bss.TC2_CallbackObject
                0x00000000200045e4        0x8 build/default/production/_ext/829342655/plib_tc2.o

.bss.TC4_CallbackObject%23
                0x00000000200045ec        0x8
 .bss.TC4_CallbackObject
                0x00000000200045ec        0x8 build/default/production/_ext/829342655/plib_tc4.o

.bss%24         0x00000000200045f4        0x8
 .bss           0x00000000200045f4        0x8 d:/mplab x ide/xc32_v4.60/bin/bin/../../lib/gcc/pic32c/8.3.1/../../../../pic32c/lib/thumb/v6-m/nofp\libc-musl.a(stdout.o)
                0x00000000200045f8                __stdout_used

.bss.consolePrintBufferMutex%25
                0x00000000200045fc        0x4
 .bss.consolePrintBufferMutex
                0x00000000200045fc        0x4 build/default/production/_ext/1832805299/sys_console.o

.bss.sysDebugInstance%26
                0x0000000020004600        0x4
 .bss.sysDebugInstance
                0x0000000020004600        0x4 build/default/production/_ext/944882569/sys_debug.o

.bss.pucAlignedHeap.4815%27
                0x0000000020004604        0x4
 .bss.pucAlignedHeap.4815
                0x0000000020004604        0x4 build/default/production/_ext/1665200909/heap_1.o

.bss.xNextFreeByte%28
                0x0000000020004608        0x4
 .bss.xNextFreeByte
                0x0000000020004608        0x4 build/default/production/_ext/1665200909/heap_1.o

.bss.pxCurrentTCB%29
                0x000000002000460c        0x4
 .bss.pxCurrentTCB
                0x000000002000460c        0x4 build/default/production/_ext/404212886/FreeRTOS_tasks.o
                0x000000002000460c                pxCurrentTCB

.bss.pxDelayedTaskList%30
                0x0000000020004610        0x4
 .bss.pxDelayedTaskList
                0x0000000020004610        0x4 build/default/production/_ext/404212886/FreeRTOS_tasks.o

.bss.pxOverflowDelayedTaskList%31
                0x0000000020004614        0x4
 .bss.pxOverflowDelayedTaskList
                0x0000000020004614        0x4 build/default/production/_ext/404212886/FreeRTOS_tasks.o

.bss.uxCurrentNumberOfTasks%32
                0x0000000020004618        0x4
 .bss.uxCurrentNumberOfTasks
                0x0000000020004618        0x4 build/default/production/_ext/404212886/FreeRTOS_tasks.o

.bss.uxDeletedTasksWaitingCleanUp%33
                0x000000002000461c        0x4
 .bss.uxDeletedTasksWaitingCleanUp
                0x000000002000461c        0x4 build/default/production/_ext/404212886/FreeRTOS_tasks.o

.bss.uxSchedulerSuspended%34
                0x0000000020004620        0x4
 .bss.uxSchedulerSuspended
                0x0000000020004620        0x4 build/default/production/_ext/404212886/FreeRTOS_tasks.o

.bss.uxTaskNumber%35
                0x0000000020004624        0x4
 .bss.uxTaskNumber
                0x0000000020004624        0x4 build/default/production/_ext/404212886/FreeRTOS_tasks.o

.bss.uxTopReadyPriority%36
                0x0000000020004628        0x4
 .bss.uxTopReadyPriority
                0x0000000020004628        0x4 build/default/production/_ext/404212886/FreeRTOS_tasks.o

.bss.xIdleTaskHandles%37
                0x000000002000462c        0x4
 .bss.xIdleTaskHandles
                0x000000002000462c        0x4 build/default/production/_ext/404212886/FreeRTOS_tasks.o

.bss.xNextTaskUnblockTime%38
                0x0000000020004630        0x4
 .bss.xNextTaskUnblockTime
                0x0000000020004630        0x4 build/default/production/_ext/404212886/FreeRTOS_tasks.o

.bss.xNumOfOverflows%39
                0x0000000020004634        0x4
 .bss.xNumOfOverflows
                0x0000000020004634        0x4 build/default/production/_ext/404212886/FreeRTOS_tasks.o

.bss.xPendedTicks%40
                0x0000000020004638        0x4
 .bss.xPendedTicks
                0x0000000020004638        0x4 build/default/production/_ext/404212886/FreeRTOS_tasks.o

.bss.xSchedulerRunning%41
                0x000000002000463c        0x4
 .bss.xSchedulerRunning
                0x000000002000463c        0x4 build/default/production/_ext/404212886/FreeRTOS_tasks.o

.bss.xTickCount%42
                0x0000000020004640        0x4
 .bss.xTickCount
                0x0000000020004640        0x4 build/default/production/_ext/404212886/FreeRTOS_tasks.o

.bss.xYieldPendings%43
                0x0000000020004644        0x4
 .bss.xYieldPendings
                0x0000000020004644        0x4 build/default/production/_ext/404212886/FreeRTOS_tasks.o

.bss.pxCurrentTimerList%44
                0x0000000020004648        0x4
 .bss.pxCurrentTimerList
                0x0000000020004648        0x4 build/default/production/_ext/404212886/timers.o

.bss.pxOverflowTimerList%45
                0x000000002000464c        0x4
 .bss.pxOverflowTimerList
                0x000000002000464c        0x4 build/default/production/_ext/404212886/timers.o

.bss.xLastTime.5109%46
                0x0000000020004650        0x4
 .bss.xLastTime.5109
                0x0000000020004650        0x4 build/default/production/_ext/404212886/timers.o

.bss.xTimerQueue%47
                0x0000000020004654        0x4
 .bss.xTimerQueue
                0x0000000020004654        0x4 build/default/production/_ext/404212886/timers.o

.bss.xTimerTaskHandle%48
                0x0000000020004658        0x4
 .bss.xTimerTaskHandle
                0x0000000020004658        0x4 build/default/production/_ext/404212886/timers.o

.bss%49         0x000000002000465c        0x4
 .bss           0x000000002000465c        0x4 d:/mplab x ide/xc32_v4.60/bin/bin/../../lib/gcc/pic32c/8.3.1/../../../../pic32c/lib/thumb/v6-m/nofp\libpic32c.a(data_init.o)

.bss%50         0x0000000020004660        0x4
 .bss           0x0000000020004660        0x4 d:/mplab x ide/xc32_v4.60/bin/bin/../../lib/gcc/pic32c/8.3.1/../../../../pic32c/lib/thumb/v6-m/nofp\libc-musl.a(__environ.o)
                0x0000000020004660                __environ
                0x0000000020004660                environ
                0x0000000020004660                ___environ
                0x0000000020004660                _environ

.bss.isConsoleMutexCreated%51
                0x0000000020004664        0x1
 .bss.isConsoleMutexCreated
                0x0000000020004664        0x1 build/default/production/_ext/1832805299/sys_console.o

.data%52        0x0000000020004668       0x20
 .data          0x0000000020004668       0x20 d:/mplab x ide/xc32_v4.60/bin/bin/../../lib/gcc/pic32c/8.3.1/../../../../pic32c/lib/thumb/v6-m/nofp\libc-musl.a(stdout.o)
                0x0000000020004684                _stdout

.data.ulCriticalNesting%53
                0x0000000020004688        0x4
 .data.ulCriticalNesting
                0x0000000020004688        0x4 build/default/production/_ext/1624415188/port.o

.data.uxTopUsedPriority%54
                0x000000002000468c        0x4
 .data.uxTopUsedPriority
                0x000000002000468c        0x4 build/default/production/_ext/404212886/FreeRTOS_tasks.o

.eh_frame%z1    0x0000000000000000        0x0
 .eh_frame      0x0000000000000000        0x0 d:/mplab x ide/xc32_v4.60/bin/bin/../../lib/gcc/pic32c/8.3.1/thumb/v6-m/nofp/crtbegin.o

.config_00804000.__config_00804000%55
                0x0000000000804000        0x4
 .config_00804000.__config_00804000
                0x0000000000804000        0x4 build/default/production/_ext/1171490990/initialization.o
                0x0000000000804000                __config_00804000

.config_00804004.__config_00804004%56
                0x0000000000804004        0x4
 .config_00804004.__config_00804004
                0x0000000000804004        0x4 build/default/production/_ext/1171490990/initialization.o
                0x0000000000804004                __config_00804004

.text.xTaskCreate%57
                0x00000000000000dc      0x1d8
 .text.xTaskCreate
                0x00000000000000dc      0x1d8 build/default/production/_ext/404212886/FreeRTOS_tasks.o
                0x00000000000000dc                xTaskCreate

.dinit%58       0x00000000000002b4      0x1d0
 .dinit         0x00000000000002b4      0x1d0 data_init

.text.CLOCK_Initialize%59
                0x0000000000000484      0x1c4
 .text.CLOCK_Initialize
                0x0000000000000484      0x1c4 build/default/production/_ext/1984496892/plib_clock.o
                0x0000000000000484                CLOCK_Initialize

.text.xTaskIncrementTick%60
                0x0000000000000648      0x188
 .text.xTaskIncrementTick
                0x0000000000000648      0x188 build/default/production/_ext/404212886/FreeRTOS_tasks.o
                0x0000000000000648                xTaskIncrementTick

.text.prvTimerTask%61
                0x00000000000007d0      0x188
 .text.prvTimerTask
                0x00000000000007d0      0x188 build/default/production/_ext/404212886/timers.o

.text.xTaskResumeAll%62
                0x0000000000000958      0x158
 .text.xTaskResumeAll
                0x0000000000000958      0x158 build/default/production/_ext/404212886/FreeRTOS_tasks.o
                0x0000000000000958                xTaskResumeAll

.text.xQueueSemaphoreTake%63
                0x0000000000000ab0      0x136
 .text.xQueueSemaphoreTake
                0x0000000000000ab0      0x136 build/default/production/_ext/404212886/queue.o
                0x0000000000000ab0                xQueueSemaphoreTake

.text.PORT_Initialize%64
                0x0000000000000be8      0x12c
 .text.PORT_Initialize
                0x0000000000000be8      0x12c build/default/production/_ext/1865521619/plib_port.o
                0x0000000000000be8                PORT_Initialize

.text.SERCOM7_USART_Write%65
                0x0000000000000d14      0x104
 .text.SERCOM7_USART_Write
                0x0000000000000d14      0x104 build/default/production/_ext/504274921/plib_sercom7_usart.o
                0x0000000000000d14                SERCOM7_USART_Write

.text.xQueueGenericSend%66
                0x0000000000000e18      0x100
 .text.xQueueGenericSend
                0x0000000000000e18      0x100 build/default/production/_ext/404212886/queue.o
                0x0000000000000e18                xQueueGenericSend

.text.xQueueReceive%67
                0x0000000000000f18       0xf8
 .text.xQueueReceive
                0x0000000000000f18       0xf8 build/default/production/_ext/404212886/queue.o
                0x0000000000000f18                xQueueReceive

.text.SERCOM7_USART_ISR_RX_Handler%68
                0x0000000000001010       0xec
 .text.SERCOM7_USART_ISR_RX_Handler
                0x0000000000001010       0xec build/default/production/_ext/504274921/plib_sercom7_usart.o

.text.SERCOM5_USART_ISR_RX_Handler%69
                0x00000000000010fc       0xec
 .text.SERCOM5_USART_ISR_RX_Handler
                0x00000000000010fc       0xec build/default/production/_ext/504274921/plib_sercom5_usart.o

.text.SERCOM7_USART_ISR_TX_Handler%70
                0x00000000000011e8       0xe0
 .text.SERCOM7_USART_ISR_TX_Handler
                0x00000000000011e8       0xe0 build/default/production/_ext/504274921/plib_sercom7_usart.o

.text.SERCOM5_USART_ISR_TX_Handler%71
                0x00000000000012c8       0xe0
 .text.SERCOM5_USART_ISR_TX_Handler
                0x00000000000012c8       0xe0 build/default/production/_ext/504274921/plib_sercom5_usart.o

.text.xTaskRemoveFromEventList%72
                0x00000000000013a8       0xdc
 .text.xTaskRemoveFromEventList
                0x00000000000013a8       0xdc build/default/production/_ext/404212886/FreeRTOS_tasks.o
                0x00000000000013a8                xTaskRemoveFromEventList

.text.vTaskSwitchContext%73
                0x0000000000001484       0xd8
 .text.vTaskSwitchContext
                0x0000000000001484       0xd8 build/default/production/_ext/404212886/FreeRTOS_tasks.o
                0x0000000000001484                vTaskSwitchContext

.text.xQueueGenericReset%74
                0x000000000000155c       0xb2
 .text.xQueueGenericReset
                0x000000000000155c       0xb2 build/default/production/_ext/404212886/queue.o
                0x000000000000155c                xQueueGenericReset

.text.xTaskPriorityInherit%75
                0x0000000000001610       0xac
 .text.xTaskPriorityInherit
                0x0000000000001610       0xac build/default/production/_ext/404212886/FreeRTOS_tasks.o
                0x0000000000001610                xTaskPriorityInherit

.text.EIC_Initialize%76
                0x00000000000016bc       0xa4
 .text.EIC_Initialize
                0x00000000000016bc       0xa4 build/default/production/_ext/60167341/plib_eic.o
                0x00000000000016bc                EIC_Initialize

.text.pxPortInitialiseStack%77
                0x0000000000001760       0xa0
 .text.pxPortInitialiseStack
                0x0000000000001760       0xa0 build/default/production/_ext/1624415188/port.o
                0x0000000000001760                pxPortInitialiseStack

.text.prvAddCurrentTaskToDelayedList%78
                0x0000000000001800       0xa0
 .text.prvAddCurrentTaskToDelayedList
                0x0000000000001800       0xa0 build/default/production/_ext/404212886/FreeRTOS_tasks.o

.text.SERCOM7_USART_Read%79
                0x00000000000018a0       0x94
 .text.SERCOM7_USART_Read
                0x00000000000018a0       0x94 build/default/production/_ext/504274921/plib_sercom7_usart.o
                0x00000000000018a0                SERCOM7_USART_Read

.text.pvPortMalloc%80
                0x0000000000001934       0x90
 .text.pvPortMalloc
                0x0000000000001934       0x90 build/default/production/_ext/1665200909/heap_1.o
                0x0000000000001934                pvPortMalloc

.text.SERCOM7_USART_Initialize%81
                0x00000000000019c4       0x88
 .text.SERCOM7_USART_Initialize
                0x00000000000019c4       0x88 build/default/production/_ext/504274921/plib_sercom7_usart.o
                0x00000000000019c4                SERCOM7_USART_Initialize

.text.SERCOM5_USART_Initialize%82
                0x0000000000001a4c       0x88
 .text.SERCOM5_USART_Initialize
                0x0000000000001a4c       0x88 build/default/production/_ext/504274921/plib_sercom5_usart.o
                0x0000000000001a4c                SERCOM5_USART_Initialize

.text.vTaskPriorityDisinheritAfterTimeout%83
                0x0000000000001ad4       0x88
 .text.vTaskPriorityDisinheritAfterTimeout
                0x0000000000001ad4       0x88 build/default/production/_ext/404212886/FreeRTOS_tasks.o
                0x0000000000001ad4                vTaskPriorityDisinheritAfterTimeout

.text.prvUnlockQueue%84
                0x0000000000001b5c       0x86
 .text.prvUnlockQueue
                0x0000000000001b5c       0x86 build/default/production/_ext/404212886/queue.o

.text.xQueueGenericCreate%85
                0x0000000000001be2       0x7e
 .text.xQueueGenericCreate
                0x0000000000001be2       0x7e build/default/production/_ext/404212886/queue.o
                0x0000000000001be2                xQueueGenericCreate

.text.xTaskPriorityDisinherit%86
                0x0000000000001c60       0x7c
 .text.xTaskPriorityDisinherit
                0x0000000000001c60       0x7c build/default/production/_ext/404212886/FreeRTOS_tasks.o
                0x0000000000001c60                xTaskPriorityDisinherit

.text.NVIC_Initialize%87
                0x0000000000001cdc       0x78
 .text.NVIC_Initialize
                0x0000000000001cdc       0x78 build/default/production/_ext/1865468468/plib_nvic.o
                0x0000000000001cdc                NVIC_Initialize

.text.prvCopyDataToQueue%88
                0x0000000000001d54       0x76
 .text.prvCopyDataToQueue
                0x0000000000001d54       0x76 build/default/production/_ext/404212886/queue.o

.text.vTaskStartScheduler%89
                0x0000000000001dcc       0x74
 .text.vTaskStartScheduler
                0x0000000000001dcc       0x74 build/default/production/_ext/404212886/FreeRTOS_tasks.o
                0x0000000000001dcc                vTaskStartScheduler

.text.SYS_CONSOLE_Initialize%90
                0x0000000000001e40       0x70
 .text.SYS_CONSOLE_Initialize
                0x0000000000001e40       0x70 build/default/production/_ext/1832805299/sys_console.o
                0x0000000000001e40                SYS_CONSOLE_Initialize

.text.SYS_Initialize%91
                0x0000000000001eb0       0x6c
 .text.SYS_Initialize
                0x0000000000001eb0       0x6c build/default/production/_ext/1171490990/initialization.o
                0x0000000000001eb0                SYS_Initialize

.text.EIC_InterruptHandler%92
                0x0000000000001f1c       0x60
 .text.EIC_InterruptHandler
                0x0000000000001f1c       0x60 build/default/production/_ext/60167341/plib_eic.o
                0x0000000000001f1c                EIC_InterruptHandler

.text.xTaskCheckForTimeOut%93
                0x0000000000001f7c       0x5c
 .text.xTaskCheckForTimeOut
                0x0000000000001f7c       0x5c build/default/production/_ext/404212886/FreeRTOS_tasks.o
                0x0000000000001f7c                xTaskCheckForTimeOut

.text.prvSampleTimeNow%94
                0x0000000000001fd8       0x5c
 .text.prvSampleTimeNow
                0x0000000000001fd8       0x5c build/default/production/_ext/404212886/timers.o

.text.__libc_start_init%95
                0x0000000000002034       0x5c
 .text.__libc_start_init
                0x0000000000002034       0x5c d:/mplab x ide/xc32_v4.60/bin/bin/../../lib/gcc/pic32c/8.3.1/../../../../pic32c/lib/thumb/v6-m/nofp\libc-musl.a(__libc_start_main.o)
                0x0000000000002034                __libc_init_array

.text.CAN1_Initialize%96
                0x0000000000002090       0x54
 .text.CAN1_Initialize
                0x0000000000002090       0x54 build/default/production/_ext/60165182/plib_can1.o
                0x0000000000002090                CAN1_Initialize

.text.SERCOM7_USART_InterruptHandler%97
                0x00000000000020e4       0x54
 .text.SERCOM7_USART_InterruptHandler
                0x00000000000020e4       0x54 build/default/production/_ext/504274921/plib_sercom7_usart.o
                0x00000000000020e4                SERCOM7_USART_InterruptHandler

.text.SERCOM5_USART_InterruptHandler%98
                0x0000000000002138       0x54
 .text.SERCOM5_USART_InterruptHandler
                0x0000000000002138       0x54 build/default/production/_ext/504274921/plib_sercom5_usart.o
                0x0000000000002138                SERCOM5_USART_InterruptHandler

.text.ADC0_Initialize%99
                0x000000000000218c       0x50
 .text.ADC0_Initialize
                0x000000000000218c       0x50 build/default/production/_ext/60163342/plib_adc0.o
                0x000000000000218c                ADC0_Initialize

.text.vQueueWaitForMessageRestricted%100
                0x00000000000021dc       0x50
 .text.vQueueWaitForMessageRestricted
                0x00000000000021dc       0x50 build/default/production/_ext/404212886/queue.o
                0x00000000000021dc                vQueueWaitForMessageRestricted

.text.prvCheckTasksWaitingTermination%101
                0x000000000000222c       0x50
 .text.prvCheckTasksWaitingTermination
                0x000000000000222c       0x50 build/default/production/_ext/404212886/FreeRTOS_tasks.o

.text.prvCheckForValidListAndQueue%102
                0x000000000000227c       0x50
 .text.prvCheckForValidListAndQueue
                0x000000000000227c       0x50 build/default/production/_ext/404212886/timers.o

.text.SERCOM7_USART_ISR_ERR_Handler%103
                0x00000000000022cc       0x4c
 .text.SERCOM7_USART_ISR_ERR_Handler
                0x00000000000022cc       0x4c build/default/production/_ext/504274921/plib_sercom7_usart.o

.text.SERCOM5_USART_ISR_ERR_Handler%104
                0x0000000000002318       0x4c
 .text.SERCOM5_USART_ISR_ERR_Handler
                0x0000000000002318       0x4c build/default/production/_ext/504274921/plib_sercom5_usart.o

.text%105       0x0000000000002364       0x48
 .text          0x0000000000002364       0x48 d:/mplab x ide/xc32_v4.60/bin/bin/../../lib/gcc/pic32c/8.3.1/thumb/v6-m/nofp/crtbegin.o

.text.Reset_Handler%106
                0x00000000000023ac       0x48
 .text.Reset_Handler
                0x00000000000023ac       0x48 build/default/production/_ext/1171490990/startup_xc32.o
                0x00000000000023ac                Reset_Handler

.text.prvInsertTimerInActiveList%107
                0x00000000000023f4       0x48
 .text.prvInsertTimerInActiveList
                0x00000000000023f4       0x48 build/default/production/_ext/404212886/timers.o

.text.TC2_TimerInitialize%108
                0x000000000000243c       0x44
 .text.TC2_TimerInitialize
                0x000000000000243c       0x44 build/default/production/_ext/829342655/plib_tc2.o
                0x000000000000243c                TC2_TimerInitialize

.text.TC4_TimerInitialize%109
                0x0000000000002480       0x44
 .text.TC4_TimerInitialize
                0x0000000000002480       0x44 build/default/production/_ext/829342655/plib_tc4.o
                0x0000000000002480                TC4_TimerInitialize

.text.xPortStartScheduler%110
                0x00000000000024c4       0x44
 .text.xPortStartScheduler
                0x00000000000024c4       0x44 build/default/production/_ext/1624415188/port.o
                0x00000000000024c4                xPortStartScheduler

.text.xPortPendSVHandler%111
                0x0000000000002510       0x44
 .text.xPortPendSVHandler
                0x0000000000002510       0x44 build/default/production/_ext/1624415188/portasm.o
                0x0000000000002510                xPortPendSVHandler

.text.Console_UART_Read%112
                0x0000000000002554       0x40
 .text.Console_UART_Read
                0x0000000000002554       0x40 build/default/production/_ext/1832805299/sys_console_uart.o
                0x0000000000002554                Console_UART_Read

.text.Console_UART_Write%113
                0x0000000000002594       0x40
 .text.Console_UART_Write
                0x0000000000002594       0x40 build/default/production/_ext/1832805299/sys_console_uart.o
                0x0000000000002594                Console_UART_Write

.text.vTaskPlaceOnEventListRestricted%114
                0x00000000000025d4       0x40
 .text.vTaskPlaceOnEventListRestricted
                0x00000000000025d4       0x40 build/default/production/_ext/404212886/FreeRTOS_tasks.o
                0x00000000000025d4                vTaskPlaceOnEventListRestricted

.text.prvProcessExpiredTimer%115
                0x0000000000002614       0x3c
 .text.prvProcessExpiredTimer
                0x0000000000002614       0x3c build/default/production/_ext/404212886/timers.o

.text.xTimerCreateTimerTask%116
                0x0000000000002650       0x3c
 .text.xTimerCreateTimerTask
                0x0000000000002650       0x3c build/default/production/_ext/404212886/timers.o
                0x0000000000002650                xTimerCreateTimerTask

.text.Console_UART_WriteCountGet%117
                0x000000000000268c       0x38
 .text.Console_UART_WriteCountGet
                0x000000000000268c       0x38 build/default/production/_ext/1832805299/sys_console_uart.o
                0x000000000000268c                Console_UART_WriteCountGet

.text.Console_UART_WriteFreeBufferCountGet%118
                0x00000000000026c4       0x38
 .text.Console_UART_WriteFreeBufferCountGet
                0x00000000000026c4       0x38 build/default/production/_ext/1832805299/sys_console_uart.o
                0x00000000000026c4                Console_UART_WriteFreeBufferCountGet

.text.Console_UART_ReadFreeBufferCountGet%119
                0x00000000000026fc       0x38
 .text.Console_UART_ReadFreeBufferCountGet
                0x00000000000026fc       0x38 build/default/production/_ext/1832805299/sys_console_uart.o
                0x00000000000026fc                Console_UART_ReadFreeBufferCountGet

.text.Console_UART_ReadCountGet%120
                0x0000000000002734       0x38
 .text.Console_UART_ReadCountGet
                0x0000000000002734       0x38 build/default/production/_ext/1832805299/sys_console_uart.o
                0x0000000000002734                Console_UART_ReadCountGet

.text.__pic32c_data_initialization%121
                0x000000000000276c       0x38
 .text.__pic32c_data_initialization
                0x000000000000276c       0x38 d:/mplab x ide/xc32_v4.60/bin/bin/../../lib/gcc/pic32c/8.3.1/../../../../pic32c/lib/thumb/v6-m/nofp\libpic32c.a(data_init.o)
                0x000000000000276c                __pic32c_data_initialization

.text.TC2_TimerInterruptHandler%122
                0x00000000000027a4       0x34
 .text.TC2_TimerInterruptHandler
                0x00000000000027a4       0x34 build/default/production/_ext/829342655/plib_tc2.o
                0x00000000000027a4                TC2_TimerInterruptHandler

.text.TC4_TimerInterruptHandler%123
                0x00000000000027d8       0x34
 .text.TC4_TimerInterruptHandler
                0x00000000000027d8       0x34 build/default/production/_ext/829342655/plib_tc4.o
                0x00000000000027d8                TC4_TimerInterruptHandler

.text.vListInsert%124
                0x000000000000280c       0x2e
 .text.vListInsert
                0x000000000000280c       0x2e build/default/production/_ext/404212886/list.o
                0x000000000000280c                vListInsert

.text.SERCOM3_SPI_Initialize%125
                0x000000000000283c       0x2c
 .text.SERCOM3_SPI_Initialize
                0x000000000000283c       0x2c build/default/production/_ext/17022449/plib_sercom3_spi_master.o
                0x000000000000283c                SERCOM3_SPI_Initialize

.text.SERCOM0_SPI_Initialize%126
                0x0000000000002868       0x2c
 .text.SERCOM0_SPI_Initialize
                0x0000000000002868       0x2c build/default/production/_ext/17022449/plib_sercom0_spi_master.o
                0x0000000000002868                SERCOM0_SPI_Initialize

.rodata.sysConsoleUARTDevDesc%127
                0x0000000000002894       0x2c
 .rodata.sysConsoleUARTDevDesc
                0x0000000000002894       0x2c build/default/production/_ext/1832805299/sys_console_uart.o
                0x0000000000002894                sysConsoleUARTDevDesc

.text.SYS_Tasks%128
                0x00000000000028c0       0x2c
 .text.SYS_Tasks
                0x00000000000028c0       0x2c build/default/production/_ext/1171490990/tasks.o
                0x00000000000028c0                SYS_Tasks

.text.prvResetNextTaskUnblockTime%129
                0x00000000000028ec       0x2c
 .text.prvResetNextTaskUnblockTime
                0x00000000000028ec       0x2c build/default/production/_ext/404212886/FreeRTOS_tasks.o

.text.prvReloadTimer%130
                0x0000000000002918       0x2a
 .text.prvReloadTimer
                0x0000000000002918       0x2a build/default/production/_ext/404212886/timers.o

.text.OSAL_MUTEX_Unlock%131
                0x0000000000002942       0x28
 .text.OSAL_MUTEX_Unlock
                0x0000000000002942       0x28 build/default/production/_ext/1529399856/osal_freertos.o
                0x0000000000002942                OSAL_MUTEX_Unlock

.text.vPortSetupTimerInterrupt%132
                0x000000000000296c       0x28
 .text.vPortSetupTimerInterrupt
                0x000000000000296c       0x28 build/default/production/_ext/1624415188/port.o
                0x000000000000296c                vPortSetupTimerInterrupt

.rodata.prvTimerTask%133
                0x0000000000002994       0x28
 .rodata.prvTimerTask
                0x0000000000002994       0x28 build/default/production/_ext/404212886/timers.o

.text.OSAL_MUTEX_Create%134
                0x00000000000029bc       0x24
 .text.OSAL_MUTEX_Create
                0x00000000000029bc       0x24 build/default/production/_ext/1529399856/osal_freertos.o
                0x00000000000029bc                OSAL_MUTEX_Create

.text.Console_UART_Initialize%135
                0x00000000000029e0       0x24
 .text.Console_UART_Initialize
                0x00000000000029e0       0x24 build/default/production/_ext/1832805299/sys_console_uart.o
                0x00000000000029e0                Console_UART_Initialize

.text.xPortSysTickHandler%136
                0x0000000000002a04       0x24
 .text.xPortSysTickHandler
                0x0000000000002a04       0x24 build/default/production/_ext/1624415188/port.o
                0x0000000000002a04                xPortSysTickHandler

.text.vRestoreContextOfFirstTask%137
                0x0000000000002a30       0x24
 .text.vRestoreContextOfFirstTask
                0x0000000000002a30       0x24 build/default/production/_ext/1624415188/portasm.o
                0x0000000000002a30                vRestoreContextOfFirstTask

.text.uxListRemove%138
                0x0000000000002a54       0x24
 .text.uxListRemove
                0x0000000000002a54       0x24 build/default/production/_ext/404212886/list.o
                0x0000000000002a54                uxListRemove

.text.prvCopyDataFromQueue%139
                0x0000000000002a78       0x24
 .text.prvCopyDataFromQueue
                0x0000000000002a78       0x24 build/default/production/_ext/404212886/queue.o

.text.xQueueCreateMutex%140
                0x0000000000002a9c       0x24
 .text.xQueueCreateMutex
                0x0000000000002a9c       0x24 build/default/production/_ext/404212886/queue.o
                0x0000000000002a9c                xQueueCreateMutex

.text.OSAL_MUTEX_Lock%141
                0x0000000000002ac0       0x22
 .text.OSAL_MUTEX_Lock
                0x0000000000002ac0       0x22 build/default/production/_ext/1529399856/osal_freertos.o
                0x0000000000002ac0                OSAL_MUTEX_Lock

.text.vPortSVCHandler%142
                0x0000000000002af0       0x20
 .text.vPortSVCHandler
                0x0000000000002af0       0x20 build/default/production/_ext/1624415188/portasm.o
                0x0000000000002af0                vPortSVCHandler

.text.__dinit_copy%143
                0x0000000000002b10       0x1e
 .text.__dinit_copy
                0x0000000000002b10       0x1e d:/mplab x ide/xc32_v4.60/bin/bin/../../lib/gcc/pic32c/8.3.1/../../../../pic32c/lib/thumb/v6-m/nofp\libpic32c.a(pic32_data_init_copy.o)
                0x0000000000002b10                __dinit_copy_needed
                0x0000000000002b10                __dinit_copy

.text.SERCOM7_USART_WritePendingBytesGet%144
                0x0000000000002b30       0x1c
 .text.SERCOM7_USART_WritePendingBytesGet
                0x0000000000002b30       0x1c build/default/production/_ext/504274921/plib_sercom7_usart.o

.text.SERCOM7_USART_ReadCountGet%145
                0x0000000000002b4c       0x1c
 .text.SERCOM7_USART_ReadCountGet
                0x0000000000002b4c       0x1c build/default/production/_ext/504274921/plib_sercom7_usart.o
                0x0000000000002b4c                SERCOM7_USART_ReadCountGet

.text.SERCOM5_USART_WritePendingBytesGet%146
                0x0000000000002b68       0x1c
 .text.SERCOM5_USART_WritePendingBytesGet
                0x0000000000002b68       0x1c build/default/production/_ext/504274921/plib_sercom5_usart.o

.text.SERCOM5_USART_ReadCountGet%147
                0x0000000000002b84       0x1c
 .text.SERCOM5_USART_ReadCountGet
                0x0000000000002b84       0x1c build/default/production/_ext/504274921/plib_sercom5_usart.o
                0x0000000000002b84                SERCOM5_USART_ReadCountGet

.text.SYS_DEBUG_Initialize%148
                0x0000000000002ba0       0x1c
 .text.SYS_DEBUG_Initialize
                0x0000000000002ba0       0x1c build/default/production/_ext/944882569/sys_debug.o
                0x0000000000002ba0                SYS_DEBUG_Initialize

.text.vTaskPlaceOnEventList%149
                0x0000000000002bbc       0x1c
 .text.vTaskPlaceOnEventList
                0x0000000000002bbc       0x1c build/default/production/_ext/404212886/FreeRTOS_tasks.o
                0x0000000000002bbc                vTaskPlaceOnEventList

.rodata.sysConsole0UARTPlibAPI%150
                0x0000000000002bd8       0x18
 .rodata.sysConsole0UARTPlibAPI
                0x0000000000002bd8       0x18 build/default/production/_ext/1171490990/initialization.o

.text.vPortYield%151
                0x0000000000002bf0       0x18
 .text.vPortYield
                0x0000000000002bf0       0x18 build/default/production/_ext/1624415188/port.o
                0x0000000000002bf0                vPortYield

.text.vPortEnterCritical%152
                0x0000000000002c08       0x18
 .text.vPortEnterCritical
                0x0000000000002c08       0x18 build/default/production/_ext/1624415188/port.o
                0x0000000000002c08                vPortEnterCritical

.text.vPortExitCritical%153
                0x0000000000002c20       0x18
 .text.vPortExitCritical
                0x0000000000002c20       0x18 build/default/production/_ext/1624415188/port.o
                0x0000000000002c20                vPortExitCritical

.text.prvIdleTask%154
                0x0000000000002c38       0x18
 .text.prvIdleTask
                0x0000000000002c38       0x18 build/default/production/_ext/404212886/FreeRTOS_tasks.o

.text.vTaskInternalSetTimeOutState%155
                0x0000000000002c50       0x18
 .text.vTaskInternalSetTimeOutState
                0x0000000000002c50       0x18 build/default/production/_ext/404212886/FreeRTOS_tasks.o
                0x0000000000002c50                vTaskInternalSetTimeOutState

.text.vListInitialise%156
                0x0000000000002c68       0x16
 .text.vListInitialise
                0x0000000000002c68       0x16 build/default/production/_ext/404212886/list.o
                0x0000000000002c68                vListInitialise

.text.SERCOM7_USART_ReadFreeBufferCountGet%157
                0x0000000000002c80       0x14
 .text.SERCOM7_USART_ReadFreeBufferCountGet
                0x0000000000002c80       0x14 build/default/production/_ext/504274921/plib_sercom7_usart.o
                0x0000000000002c80                SERCOM7_USART_ReadFreeBufferCountGet

.text.SERCOM7_USART_WriteFreeBufferCountGet%158
                0x0000000000002c94       0x14
 .text.SERCOM7_USART_WriteFreeBufferCountGet
                0x0000000000002c94       0x14 build/default/production/_ext/504274921/plib_sercom7_usart.o
                0x0000000000002c94                SERCOM7_USART_WriteFreeBufferCountGet

.text.SERCOM5_USART_WriteFreeBufferCountGet%159
                0x0000000000002ca8       0x14
 .text.SERCOM5_USART_WriteFreeBufferCountGet
                0x0000000000002ca8       0x14 build/default/production/_ext/504274921/plib_sercom5_usart.o
                0x0000000000002ca8                SERCOM5_USART_WriteFreeBufferCountGet

.text.Console_UART_Status%160
                0x0000000000002cbc       0x14
 .text.Console_UART_Status
                0x0000000000002cbc       0x14 build/default/production/_ext/1832805299/sys_console_uart.o
                0x0000000000002cbc                Console_UART_Status

.text.Console_UART_ResourceLock%161
                0x0000000000002cd0       0x14
 .text.Console_UART_ResourceLock
                0x0000000000002cd0       0x14 build/default/production/_ext/1832805299/sys_console_uart.o

.text.vPortSVCHandler_C%162
                0x0000000000002ce4       0x14
 .text.vPortSVCHandler_C
                0x0000000000002ce4       0x14 build/default/production/_ext/1624415188/port.o
                0x0000000000002ce4                vPortSVCHandler_C

.text.prvIsQueueEmpty%163
                0x0000000000002cf8       0x14
 .text.prvIsQueueEmpty
                0x0000000000002cf8       0x14 build/default/production/_ext/404212886/queue.o

.text.pvTaskIncrementMutexHeldCount%164
                0x0000000000002d0c       0x14
 .text.pvTaskIncrementMutexHeldCount
                0x0000000000002d0c       0x14 build/default/production/_ext/404212886/FreeRTOS_tasks.o
                0x0000000000002d0c                pvTaskIncrementMutexHeldCount

.text.APP_Tasks%165
                0x0000000000002d20       0x14
 .text.APP_Tasks
                0x0000000000002d20       0x14 build/default/production/_ext/1360937237/app.o
                0x0000000000002d20                APP_Tasks

.rodata%166     0x0000000000002d34       0x14
 .rodata        0x0000000000002d34       0x14 d:/mplab x ide/xc32_v4.60/bin/bin/../../lib/gcc/pic32c/8.3.1/../../../../pic32c/lib/thumb/v6-m/nofp\libpic32c.a(data_init.o)

.text.memcpy%167
                0x0000000000002d48       0x14
 .text.memcpy   0x0000000000002d48       0x14 d:/mplab x ide/xc32_v4.60/bin/bin/../../lib/gcc/pic32c/8.3.1/../../../../pic32c/lib/thumb/v6-m/nofp\libc-size-musl.a(memcpy.o)
                0x0000000000002d48                memcpy

.text.memset%168
                0x0000000000002d5c       0x14
 .text.memset   0x0000000000002d5c       0x14 d:/mplab x ide/xc32_v4.60/bin/bin/../../lib/gcc/pic32c/8.3.1/../../../../pic32c/lib/thumb/v6-m/nofp\libc-size-musl.a(memset.o)
                0x0000000000002d5c                memset

.text.__init_stdout%169
                0x0000000000002d70       0x14
 .text.__init_stdout
                0x0000000000002d70       0x14 d:/mplab x ide/xc32_v4.60/bin/bin/../../lib/gcc/pic32c/8.3.1/../../../../pic32c/lib/thumb/v6-m/nofp\libc-musl.a(stdout.o)
                0x0000000000002d70                __init_stdout

.text.prvTaskExitError%170
                0x0000000000002d84       0x12
 .text.prvTaskExitError
                0x0000000000002d84       0x12 build/default/production/_ext/1624415188/port.o

.text.__dinit_clear%171
                0x0000000000002d96       0x12
 .text.__dinit_clear
                0x0000000000002d96       0x12 d:/mplab x ide/xc32_v4.60/bin/bin/../../lib/gcc/pic32c/8.3.1/../../../../pic32c/lib/thumb/v6-m/nofp\libpic32c.a(pic32_data_init_clear.o)
                0x0000000000002d96                __dinit_clear
                0x0000000000002d96                __dinit_clear_needed

.text.vStartFirstTask%172
                0x0000000000002db0       0x10
 .text.vStartFirstTask
                0x0000000000002db0       0x10 build/default/production/_ext/1624415188/portasm.o
                0x0000000000002db0                vStartFirstTask

.text.vTaskSuspendAll%173
                0x0000000000002dc0       0x10
 .text.vTaskSuspendAll
                0x0000000000002dc0       0x10 build/default/production/_ext/404212886/FreeRTOS_tasks.o
                0x0000000000002dc0                vTaskSuspendAll

.text.__init_stdio%174
                0x0000000000002dd0       0x10
 .text.__init_stdio
                0x0000000000002dd0       0x10 d:/mplab x ide/xc32_v4.60/bin/bin/../../lib/gcc/pic32c/8.3.1/../../../../pic32c/lib/thumb/v6-m/nofp\libc-musl.a(__init_stdio.o)
                0x0000000000002dd0                __init_stdio_needed
                0x0000000000002dd0                __init_stdio

.text.main%175  0x0000000000002ae2        0xe
 .text.main     0x0000000000002ae2        0xe build/default/production/_ext/1360937237/main.o
                0x0000000000002ae2                main

.text.NVMCTRL_Initialize%176
                0x0000000000002de0        0xc
 .text.NVMCTRL_Initialize
                0x0000000000002de0        0xc build/default/production/_ext/1593096446/plib_nvmctrl.o
                0x0000000000002de0                NVMCTRL_Initialize

.rodata.debugInit%177
                0x0000000000002dec        0xc
 .rodata.debugInit
                0x0000000000002dec        0xc build/default/production/_ext/1171490990/initialization.o

.rodata.sysConsole0Init%178
                0x0000000000002df8        0xc
 .rodata.sysConsole0Init
                0x0000000000002df8        0xc build/default/production/_ext/1171490990/initialization.o

.rodata.SYS_Tasks.str1.4%179
                0x0000000000002e04        0xc
 .rodata.SYS_Tasks.str1.4
                0x0000000000002e04        0xc build/default/production/_ext/1171490990/tasks.o

.text.xTaskGetTickCount%180
                0x0000000000002e10        0xc
 .text.xTaskGetTickCount
                0x0000000000002e10        0xc build/default/production/_ext/404212886/FreeRTOS_tasks.o
                0x0000000000002e10                xTaskGetTickCount

.text.vTaskMissedYield%181
                0x0000000000002e1c        0xc
 .text.vTaskMissedYield
                0x0000000000002e1c        0xc build/default/production/_ext/404212886/FreeRTOS_tasks.o
                0x0000000000002e1c                vTaskMissedYield

.text.APP_Initialize%182
                0x0000000000002e28        0xc
 .text.APP_Initialize
                0x0000000000002e28        0xc build/default/production/_ext/1360937237/app.o
                0x0000000000002e28                APP_Initialize

.text.SERCOM7_USART_WriteCountGet%183
                0x0000000000002508        0x8
 .text.SERCOM7_USART_WriteCountGet
                0x0000000000002508        0x8 build/default/production/_ext/504274921/plib_sercom7_usart.o
                0x0000000000002508                SERCOM7_USART_WriteCountGet

.text.TC2_7_Handler%184
                0x0000000000002a28        0x8
 .text.TC2_7_Handler
                0x0000000000002a28        0x8 build/default/production/_ext/1171490990/interrupts.o

.text.SERCOM1_7_Handler%185
                0x0000000000002da8        0x8
 .text.SERCOM1_7_Handler
                0x0000000000002da8        0x8 build/default/production/_ext/1171490990/interrupts.o

.text.lAPP_Tasks%186
                0x0000000000002e34        0x8
 .text.lAPP_Tasks
                0x0000000000002e34        0x8 build/default/production/_ext/1171490990/tasks.o

.text.ulSetInterruptMask%187
                0x0000000000002e3c        0x8
 .text.ulSetInterruptMask
                0x0000000000002e3c        0x8 build/default/production/_ext/1624415188/portasm.o
                0x0000000000002e3c                ulSetInterruptMask

.rodata.xTimerCreateTimerTask.str1.4%188
                0x0000000000002e44        0x8
 .rodata.xTimerCreateTimerTask.str1.4
                0x0000000000002e44        0x8 build/default/production/_ext/404212886/timers.o

.text.__dummy%189
                0x0000000000002e4c        0x8
 .text.__dummy  0x0000000000002e4c        0x8 d:/mplab x ide/xc32_v4.60/bin/bin/../../lib/gcc/pic32c/8.3.1/../../../../pic32c/lib/thumb/v6-m/nofp\libc-musl.a(stdout.o)
                0x0000000000002e4c                __get_stdout

.text.vClearInterruptMask%190
                0x0000000000002e54        0x6
 .text.vClearInterruptMask
                0x0000000000002e54        0x6 build/default/production/_ext/1624415188/portasm.o
                0x0000000000002e54                vClearInterruptMask

.text.vListInitialiseItem%191
                0x0000000000002e5a        0x6
 .text.vListInitialiseItem
                0x0000000000002e5a        0x6 build/default/production/_ext/404212886/list.o
                0x0000000000002e5a                vListInitialiseItem

.text.Console_UART_Flush%192
                0x0000000000002e60        0x4
 .text.Console_UART_Flush
                0x0000000000002e60        0x4 build/default/production/_ext/1832805299/sys_console_uart.o
                0x0000000000002e60                Console_UART_Flush

.rodata.sysConsole0UARTInitData%193
                0x0000000000002e64        0x4
 .rodata.sysConsole0UARTInitData
                0x0000000000002e64        0x4 build/default/production/_ext/1171490990/initialization.o

.text.vApplicationStackOverflowHook%194
                0x0000000000002e68        0x4
 .text.vApplicationStackOverflowHook
                0x0000000000002e68        0x4 build/default/production/_ext/1171490990/freertos_hooks.o
                0x0000000000002e68                vApplicationStackOverflowHook

.text.vApplicationMallocFailedHook%195
                0x0000000000002e6c        0x4
 .text.vApplicationMallocFailedHook
                0x0000000000002e6c        0x4 build/default/production/_ext/1171490990/freertos_hooks.o
                0x0000000000002e6c                vApplicationMallocFailedHook

.text.__dummy_decompress%196
                0x0000000000002e70        0x4
 .text.__dummy_decompress
                0x0000000000002e70        0x4 d:/mplab x ide/xc32_v4.60/bin/bin/../../lib/gcc/pic32c/8.3.1/../../../../pic32c/lib/thumb/v6-m/nofp\libpic32c.a(data_init.o)
                0x0000000000002e70                __dinit_decompress
                0x0000000000002e70                __dinit_copy_val_data
                0x0000000000002e70                __dinit_copy_emb

.text.EVSYS_Initialize%197
                0x0000000000000be6        0x2
 .text.EVSYS_Initialize
                0x0000000000000be6        0x2 build/default/production/_ext/1986646378/plib_evsys.o
                0x0000000000000be6                EVSYS_Initialize

.text.Console_UART_Tasks%198
                0x000000000000160e        0x2
 .text.Console_UART_Tasks
                0x000000000000160e        0x2 build/default/production/_ext/1832805299/sys_console_uart.o
                0x000000000000160e                Console_UART_Tasks

.text.Dummy_Handler%199
                0x0000000000001dca        0x2
 .text.Dummy_Handler
                0x0000000000001dca        0x2 build/default/production/_ext/1171490990/interrupts.o
                0x0000000000001dca                DMAC_Handler
                0x0000000000001dca                AC_Handler
                0x0000000000001dca                TCC1_Handler
                0x0000000000001dca                SERCOM2_Handler
                0x0000000000001dca                TCC0_Handler
                0x0000000000001dca                TC1_6_Handler
                0x0000000000001dca                RTC_Handler
                0x0000000000001dca                ADC1_Handler
                0x0000000000001dca                WDT_Handler
                0x0000000000001dca                CAN0_Handler
                0x0000000000001dca                TC3_Handler
                0x0000000000001dca                SDADC_Handler
                0x0000000000001dca                Dummy_Handler
                0x0000000000001dca                TC0_5_Handler
                0x0000000000001dca                CAN1_Handler
                0x0000000000001dca                ADC0_Handler
                0x0000000000001dca                TSENS_Handler
                0x0000000000001dca                TCC2_Handler
                0x0000000000001dca                EVSYS_Handler
                0x0000000000001dca                SERCOM3_Handler
                0x0000000000001dca                SERCOM4_Handler
                0x0000000000001dca                NVMCTRL_Handler
                0x0000000000001dca                SYSTEM_Handler
                0x0000000000001dca                DAC_Handler
                0x0000000000001dca                PTC_Handler
                0x0000000000001dca                SERCOM0_6_Handler
                0x0000000000001dca                FREQM_Handler

.text.NonMaskableInt_Handler%200
                0x000000000000283a        0x2
 .text.NonMaskableInt_Handler
                0x000000000000283a        0x2 build/default/production/_ext/1171490990/exceptions.o
                0x000000000000283a                NonMaskableInt_Handler

.text.HardFault_Handler%201
                0x000000000000296a        0x2
 .text.HardFault_Handler
                0x000000000000296a        0x2 build/default/production/_ext/1171490990/exceptions.o
                0x000000000000296a                HardFault_Handler

.text.Dummy_App_Func%202
                0x0000000000002b2e        0x2
 .text.Dummy_App_Func
                0x0000000000002b2e        0x2 build/default/production/_ext/1171490990/startup_xc32.o
                0x0000000000002b2e                _on_reset
                0x0000000000002b2e                _on_bootstrap
                0x0000000000002b2e                __xc32_on_reset
                0x0000000000002b2e                Dummy_App_Func
                0x0000000000002b2e                __xc32_on_bootstrap

.text.vPortFree%203
                0x0000000000002c7e        0x2
 .text.vPortFree
                0x0000000000002c7e        0x2 build/default/production/_ext/1665200909/heap_1.o
                0x0000000000002c7e                vPortFree

.text.vApplicationDaemonTaskStartupHook%204
                0x0000000000002e74        0x2
 .text.vApplicationDaemonTaskStartupHook
                0x0000000000002e74        0x2 build/default/production/_ext/1360937237/freertos_daemon.o
                0x0000000000002e74                vApplicationDaemonTaskStartupHook

.text.__dummy_init_tls%205
                0x0000000000002e76        0x2
 .text.__dummy_init_tls
                0x0000000000002e76        0x2 d:/mplab x ide/xc32_v4.60/bin/bin/../../lib/gcc/pic32c/8.3.1/../../../../pic32c/lib/thumb/v6-m/nofp\libpic32c.a(data_init.o)
                0x0000000000002e76                xc32_init_tls

.text.__dummy%206
                0x0000000000002e78        0x2
 .text.__dummy  0x0000000000002e78        0x2 d:/mplab x ide/xc32_v4.60/bin/bin/../../lib/gcc/pic32c/8.3.1/../../../../pic32c/lib/thumb/v6-m/nofp\libc-musl.a(__libc_start_main.o)
                0x0000000000002e78                __init_host

.text.__dummy%207
                0x0000000000002e7a        0x2
 .text.__dummy  0x0000000000002e7a        0x2 d:/mplab x ide/xc32_v4.60/bin/bin/../../lib/gcc/pic32c/8.3.1/../../../../pic32c/lib/thumb/v6-m/nofp\libc-musl.a(__init_stdio.o)
                0x0000000000002e7a                __init_stdin
                0x0000000000002e7a                __init_stderr
